(dp0
S'S000005506'
p1
(lp2
cnumpy.core.multiarray
scalar
p3
(cnumpy
dtype
p4
(S'f4'
p5
I0
I1
tp6
Rp7
(I3
S'<'
p8
NNNI-1
I-1
I0
tp9
bS'\x96\x903A'
p10
tp11
Rp12
asS'S000002254'
p13
(lp14
g3
(g7
S'\x03\xd5\x97@'
p15
tp16
Rp17
asS'S000001597'
p18
(lp19
g3
(g7
S'\x93\x12\xde?'
p20
tp21
Rp22
asS'S000005976'
p23
(lp24
g3
(g7
S'\x87\x87e?'
p25
tp26
Rp27
asS'S000005977'
p28
(lp29
g3
(g7
S'<z6@'
p30
tp31
Rp32
asS'S000000202'
p33
(lp34
g3
(g7
S'5l\xbb@'
p35
tp36
Rp37
asS'S000002849'
p38
(lp39
g3
(g7
S'\x90\xd3\x18>'
p40
tp41
Rp42
asS'S000001607'
p43
(lp44
g3
(g7
S'$8\x1fA'
p45
tp46
Rp47
asS'S000002483'
p48
(lp49
g3
(g7
S'\xa1\xb2\x1dA'
p50
tp51
Rp52
asS'S000001351'
p53
(lp54
g3
(g7
S'\xa5\xbb\xbb@'
p55
tp56
Rp57
asS'S000001352'
p58
(lp59
g3
(g7
S'\x99\xaa\xfb?'
p60
tp61
Rp62
asS'S000005610'
p63
(lp64
g3
(g7
S'\xefT,A'
p65
tp66
Rp67
asS'S000028542'
p68
(lp69
g3
(g7
S'$8\x1fA'
p70
tp71
Rp72
asS'S000005229'
p73
(lp74
g3
(g7
S'\x80P\x06?'
p75
tp76
Rp77
asS'S000002556'
p78
(lp79
g3
(g7
S'\xd39P@'
p80
tp81
Rp82
asS'S000003724'
p83
(lp84
g3
(g7
S'0\x90WA'
p85
tp86
Rp87
asS'S000000689'
p88
(lp89
g3
(g7
S'\xfco\xad@'
p90
tp91
Rp92
asS'S000005270'
p93
(lp94
g3
(g7
S'\xb4]\x89@'
p95
tp96
Rp97
asS'S000005377'
p98
(lp99
g3
(g7
S'\xc7h\xa6@'
p100
tp101
Rp102
asS'S000000687'
p103
(lp104
g3
(g7
S'x\xd8\x9aA'
p105
tp106
Rp107
asS'S000004673'
p108
(lp109
g3
(g7
S'J\x1e5@'
p110
tp111
Rp112
asS'S000005373'
p113
(lp114
g3
(g7
S'\x11\xa6#A'
p115
tp116
Rp117
asS'S000004676'
p118
(lp119
g3
(g7
S'e\x89\xfa?'
p120
tp121
Rp122
asS'S000003722'
p123
(lp124
g3
(g7
S'\x99\xaa\xfb?'
p125
tp126
Rp127
asS'S000006319'
p128
(lp129
g3
(g7
S'\xa32\xec@'
p130
tp131
Rp132
asS'S000004124'
p133
(lp134
g3
(g7
S'\x03_^?'
p135
tp136
Rp137
asS'S000003231'
p138
(lp139
g3
(g7
S'\xf5\x1a\xaa@'
p140
tp141
Rp142
asS'S000003230'
p143
(lp144
g3
(g7
S'\xcc6\xc3@'
p145
tp146
Rp147
asS'S000003206'
p148
(lp149
g3
(g7
S'\xac3\xb6?'
p150
tp151
Rp152
asS'S000001509'
p153
(lp154
g3
(g7
S'\x9a\xc9\xff@'
p155
tp156
Rp157
asS'S000002321'
p158
(lp159
g3
(g7
S'eesA'
p160
tp161
Rp162
asS'S000002323'
p163
(lp164
g3
(g7
S'eesA'
p165
tp166
Rp167
asS'S000005290'
p168
(lp169
g3
(g7
S'\xd1*\x89@'
p170
tp171
Rp172
asS'S000001503'
p173
(lp174
g3
(g7
S'\x12\x1b\xd0@'
p175
tp176
Rp177
asS'S000001915'
p178
(lp179
g3
(g7
S'GV8A'
p180
tp181
Rp182
asS'S000001913'
p183
(lp184
g3
(g7
S'GV8A'
p185
tp186
Rp187
asS'S000029704'
p188
(lp189
g3
(g7
S'\x8c\xc5\x1aA'
p190
tp191
Rp192
asS'S000001697'
p193
(lp194
g3
(g7
S'\x90\xa5\xc5@'
p195
tp196
Rp197
asS'S000005192'
p198
(lp199
g3
(g7
S'\xfe\xa3\xee>'
p200
tp201
Rp202
asS'S000003733'
p203
(lp204
g3
(g7
S'"\x7f-@'
p205
tp206
Rp207
asS'S000001103'
p208
(lp209
g3
(g7
S'\xa4D\x15A'
p210
tp211
Rp212
asS'S000000437'
p213
(lp214
g3
(g7
S'\xbd\x031A'
p215
tp216
Rp217
asS'S000003738'
p218
(lp219
g3
(g7
S'\x80P\x06?'
p220
tp221
Rp222
asS'S000001606'
p223
(lp224
g3
(g7
S'7\x9a\x01@'
p225
tp226
Rp227
asS'S000001210'
p228
(lp229
g3
(g7
S'9\x88wA'
p230
tp231
Rp232
asS'S000006039'
p233
(lp234
g3
(g7
S'6\xd4\xdf@'
p235
tp236
Rp237
asS'S000001213'
p238
(lp239
g3
(g7
S'\x0b\xf5b@'
p240
tp241
Rp242
asS'S000004289'
p243
(lp244
g3
(g7
S'0\xb0\xf0@'
p245
tp246
Rp247
asS'S000003516'
p248
(lp249
g3
(g7
S'g\xc2_@'
p250
tp251
Rp252
asS'S000003121'
p253
(lp254
g3
(g7
S'\x13J\x94A'
p255
tp256
Rp257
asS'S000028817'
p258
(lp259
g3
(g7
S'\x84y\x95@'
p260
tp261
Rp262
asS'S000003128'
p263
(lp264
g3
(g7
S'\xeb\xff\x0f@'
p265
tp266
Rp267
asS'S000003287'
p268
(lp269
g3
(g7
S'\x9b\xec\n@'
p270
tp271
Rp272
asS'S000004218'
p273
(lp274
g3
(g7
S'\xd15\x81A'
p275
tp276
Rp277
asS'S000004219'
p278
(lp279
g3
(g7
S'5\xb8q@'
p280
tp281
Rp282
asS'S000000022'
p283
(lp284
g3
(g7
S'\xeb\xff\x0f@'
p285
tp286
Rp287
asS'S000000024'
p288
(lp289
g3
(g7
S'\x90\xd3\x18>'
p290
tp291
Rp292
asS'S000004210'
p293
(lp294
g3
(g7
S'\xc9\xae\xa7?'
p295
tp296
Rp297
asS'S000005593'
p298
(lp299
g3
(g7
S']\xba"@'
p300
tp301
Rp302
asS'S000000944'
p303
(lp304
g3
(g7
S"'-\xb5?"
p305
tp306
Rp307
asS'S000006756'
p308
(lp309
g3
(g7
S'\xc6/\x91A'
p310
tp311
Rp312
asS'S000028725'
p313
(lp314
g3
(g7
S',\xd8$A'
p315
tp316
Rp317
asS'S000006082'
p318
(lp319
g3
(g7
S'9~\xe7@'
p320
tp321
Rp322
asS'S000000412'
p323
(lp324
g3
(g7
S'3\x14xA'
p325
tp326
Rp327
asS'S000002459'
p328
(lp329
g3
(g7
S'g\xc2_@'
p330
tp331
Rp332
asS'S000001439'
p333
(lp334
g3
(g7
S'\x05\xad\x81@'
p335
tp336
Rp337
asS'S000004033'
p338
(lp339
g3
(g7
S'\x8a\x03\x19A'
p340
tp341
Rp342
asS'S000004031'
p343
(lp344
g3
(g7
S'h\xedj@'
p345
tp346
Rp347
asS'S000000419'
p348
(lp349
g3
(g7
S'\xca3g?'
p350
tp351
Rp352
asS'S000004917'
p353
(lp354
g3
(g7
S'L}\xf0@'
p355
tp356
Rp357
asS'S000003347'
p358
(lp359
g3
(g7
S'\xb1:\xb8?'
p360
tp361
Rp362
asS'S000003346'
p363
(lp364
g3
(g7
S'\xb1:\xb8?'
p365
tp366
Rp367
asS'S000003341'
p368
(lp369
g3
(g7
S'3\x14xA'
p370
tp371
Rp372
asS'S000003469'
p373
(lp374
g3
(g7
S'\x11\xee@A'
p375
tp376
Rp377
asS'S000006104'
p378
(lp379
g3
(g7
S'\x8d\xdd\x93@'
p380
tp381
Rp382
asS'S000006106'
p383
(lp384
g3
(g7
S'\x80P\x06?'
p385
tp386
Rp387
asS'S000003460'
p388
(lp389
g3
(g7
S'5\xb8q@'
p390
tp391
Rp392
asS'S000004859'
p393
(lp394
g3
(g7
S'\xc8\xacLA'
p395
tp396
Rp397
asS'S000006102'
p398
(lp399
g3
(g7
S'\x8d\xdd\x93@'
p400
tp401
Rp402
asS'S000000110'
p403
(lp404
g3
(g7
S'\xf2\xe6#A'
p405
tp406
Rp407
asS'S000003195'
p408
(lp409
g3
(g7
S'e\x89\xfa?'
p410
tp411
Rp412
asS'S000003943'
p413
(lp414
g3
(g7
S'\x148\x1bA'
p415
tp416
Rp417
asS'S000001130'
p418
(lp419
g3
(g7
S'?\x90\xf5@'
p420
tp421
Rp422
asS'S000004320'
p423
(lp424
g3
(g7
S'e\x89\xfa?'
p425
tp426
Rp427
asS'S000004326'
p428
(lp429
g3
(g7
S'0\xd9\xb9@'
p430
tp431
Rp432
asS'S000004756'
p433
(lp434
g3
(g7
S'\x90\xd3\x18>'
p435
tp436
Rp437
ag3
(g7
S'\x90\xd3\x18>'
p438
tp439
Rp440
asS'S000004754'
p441
(lp442
g3
(g7
S'\x90\xd3\x18>'
p443
tp444
Rp445
asS'S000005321'
p446
(lp447
g3
(g7
S' \xd7\x9e@'
p448
tp449
Rp450
asS'S000005323'
p451
(lp452
g3
(g7
S'"\x7f-@'
p453
tp454
Rp455
asS'S000005322'
p456
(lp457
g3
(g7
S'"\x7f-@'
p458
tp459
Rp460
asS'S000005328'
p461
(lp462
g3
(g7
S'\x90\xd3\x18>'
p463
tp464
Rp465
asS'S000005499'
p466
(lp467
g3
(g7
S'9~\xe7@'
p468
tp469
Rp470
asS'S000000246'
p471
(lp472
g3
(g7
S'\xa9V\xdb@'
p473
tp474
Rp475
asS'S000000240'
p476
(lp477
g3
(g7
S'\x15N\x9a?'
p478
tp479
Rp480
asS'S000000242'
p481
(lp482
g3
(g7
S'\x15N\x9a?'
p483
tp484
Rp485
asS'S000001721'
p486
(lp487
g3
(g7
S'P\xbf\x0bA'
p488
tp489
Rp490
asS'S000000561'
p491
(lp492
g3
(g7
S'm\x88\x92@'
p493
tp494
Rp495
asS'S000007618'
p496
(lp497
g3
(g7
S'$\xe2\x0fA'
p498
tp499
Rp500
asS'S000001729'
p501
(lp502
g3
(g7
S'S\xd2(@'
p503
tp504
Rp505
asS'S000007616'
p506
(lp507
g3
(g7
S'i\xccW@'
p508
tp509
Rp510
asS'S000003780'
p511
(lp512
g3
(g7
S'6\xd4\xdf@'
p513
tp514
Rp515
asS'S000007598'
p516
(lp517
g3
(g7
S'bp\xdd@'
p518
tp519
Rp520
asS'S000000347'
p521
(lp522
g3
(g7
S'=O\xa8@'
p523
tp524
Rp525
ag3
(g7
S'x\xd8\x9aA'
p526
tp527
Rp528
asS'S000004169'
p529
(lp530
g3
(g7
S'T\x1e%A'
p531
tp532
Rp533
asS'S000004506'
p534
(lp535
g3
(g7
S'\xb4\x01\xf4@'
p536
tp537
Rp538
asS'S000006620'
p539
(lp540
g3
(g7
S'\x13s\xf5@'
p541
tp542
Rp543
asS'S000006622'
p544
(lp545
g3
(g7
S'02X@'
p546
tp547
Rp548
asS'S000006749'
p549
(lp550
g3
(g7
S'R\x15\xdf>'
p551
tp552
Rp553
asS'S000000960'
p554
(lp555
g3
(g7
S'\x1c\xaa\xdb?'
p556
tp557
Rp558
asS'S000001394'
p559
(lp560
g3
(g7
S'\xdd\xb8,A'
p561
tp562
Rp563
asS'S000003836'
p564
(lp565
g3
(g7
S'\xdc\nNA'
p566
tp567
Rp568
asS'S000004139'
p569
(lp570
g3
(g7
S'z\xa1\x96A'
p571
tp572
Rp573
asS'S000003834'
p574
(lp575
g3
(g7
S'\xdc\nNA'
p576
tp577
Rp578
asS'S000000803'
p579
(lp580
g3
(g7
S'V\xfa\x02A'
p581
tp582
Rp583
asS'S000003839'
p584
(lp585
g3
(g7
S'\xa3\xa4\xce@'
p586
tp587
Rp588
asS'S000003838'
p589
(lp590
g3
(g7
S'\xa3\xa4\xce@'
p591
tp592
Rp593
asS'S000004132'
p594
(lp595
g3
(g7
S'm\x88\x92@'
p596
tp597
Rp598
ag3
(g7
S'\x0e"\x03A'
p599
tp600
Rp601
asS'S000005928'
p602
(lp603
g3
(g7
S'\x9e\xb3OA'
p604
tp605
Rp606
asS'S000000494'
p607
(lp608
g3
(g7
S'\xc6\x12\xd4@'
p609
tp610
Rp611
asS'S000005665'
p612
(lp613
g3
(g7
S'\xdc\xd0\x07A'
p614
tp615
Rp616
asS'S000002200'
p617
(lp618
g3
(g7
S'\xee\xc6\xf7?'
p619
tp620
Rp621
asS'S000005927'
p622
(lp623
g3
(g7
S'\x9e\xb3OA'
p624
tp625
Rp626
asS'S000001706'
p627
(lp628
g3
(g7
S'\x12c"@'
p629
tp630
Rp631
asS'S000001545'
p632
(lp633
g3
(g7
S"'_\xa4@"
p634
tp635
Rp636
asS'S000001268'
p637
(lp638
g3
(g7
S'\x0b\xf5b@'
p639
tp640
Rp641
asS'S000005822'
p642
(lp643
g3
(g7
S'J\xd4R?'
p644
tp645
Rp646
asS'S000004170'
p647
(lp648
g3
(g7
S'T\x1e%A'
p649
tp650
Rp651
asS'S000028691'
p652
(lp653
g3
(g7
S'\x82\xf1\x01@'
p654
tp655
Rp656
asS'S000028692'
p657
(lp658
g3
(g7
S'\x0e"\x03A'
p659
tp660
Rp661
asS'S000002318'
p662
(lp663
g3
(g7
S'oU\x14@'
p664
tp665
Rp666
asS'S000000460'
p667
(lp668
g3
(g7
S'\xc6b\xf0?'
p669
tp670
Rp671
asS'S000003168'
p672
(lp673
g3
(g7
S'A\xc4\x92?'
p674
tp675
Rp676
asS'S000028699'
p677
(lp678
g3
(g7
S'w@~?'
p679
tp680
Rp681
ag3
(g7
S'P\xbf\x0bA'
p682
tp683
Rp684
asS'S000028510'
p685
(lp686
g3
(g7
S'b\xad@A'
p687
tp688
Rp689
asS'S000005718'
p690
(lp691
g3
(g7
S'`\x12\xa4@'
p692
tp693
Rp694
asS'S000005719'
p695
(lp696
g3
(g7
S'\xc6/\x91A'
p697
tp698
Rp699
asS'S000002684'
p700
(lp701
g3
(g7
S'\xb8\x00p@'
p702
tp703
Rp704
asS'S000005370'
p705
(lp706
g3
(g7
S'P\xbf\x0bA'
p707
tp708
Rp709
asS'S000005711'
p710
(lp711
g3
(g7
S'\n\x18\xeb@'
p712
tp713
Rp714
asS'S000005712'
p715
(lp716
g3
(g7
S'\n\x18\xeb@'
p717
tp718
Rp719
asS'S000005240'
p720
(lp721
g3
(g7
S'\x11\xee@A'
p722
tp723
Rp724
asS'S000005241'
p725
(lp726
g3
(g7
S'\x1fg\xf3?'
p727
tp728
Rp729
ag3
(g7
S'\x1a\xfb\xfa@'
p730
tp731
Rp732
asS'S000028678'
p733
(lp734
g3
(g7
S'\xc6/\x91A'
p735
tp736
Rp737
asS'S000000184'
p738
(lp739
g3
(g7
S'\x04\xbf#@'
p740
tp741
Rp742
asS'S000003165'
p743
(lp744
g3
(g7
S'A\xc4\x92?'
p745
tp746
Rp747
ag3
(g7
S'3\x14xA'
p748
tp749
Rp750
asS'S000003167'
p751
(lp752
g3
(g7
S'3\x14xA'
p753
tp754
Rp755
asS'S000000823'
p756
(lp757
g3
(g7
S'\x9av\xd6@'
p758
tp759
Rp760
asS'S000006364'
p761
(lp762
g3
(g7
S',\xd8$A'
p763
tp764
Rp765
asS'S000003246'
p766
(lp767
g3
(g7
S'\x9av\xd6@'
p768
tp769
Rp770
asS'S000005828'
p771
(lp772
g3
(g7
S'\xc1\xf5\xc1?'
p773
tp774
Rp775
asS'S000005819'
p776
(lp777
g3
(g7
S'\x8c\x03\x8c@'
p778
tp779
Rp780
asS'S000006288'
p781
(lp782
g3
(g7
S'\xdc\nNA'
p783
tp784
Rp785
asS'S000006286'
p786
(lp787
g3
(g7
S'-\xfe_A'
p788
tp789
Rp790
asS'S000005812'
p791
(lp792
g3
(g7
S'-\xfe_A'
p793
tp794
Rp795
asS'S000001948'
p796
(lp797
g3
(g7
S'\x07\x82\x81>'
p798
tp799
Rp800
asS'S000001864'
p801
(lp802
g3
(g7
S'\xd0\xa8\x02A'
p803
tp804
Rp805
asS'S000000061'
p806
(lp807
g3
(g7
S'\r\xf9\xd1@'
p808
tp809
Rp810
asS'S000000062'
p811
(lp812
g3
(g7
S'\r\xf9\xd1@'
p813
tp814
Rp815
asS'S000001943'
p816
(lp817
g3
(g7
S'\x1c\xb4\x8b@'
p818
tp819
Rp820
asS'S000004505'
p821
(lp822
g3
(g7
S'\xc6/\x91A'
p823
tp824
Rp825
asS'S000001944'
p826
(lp827
g3
(g7
S'\x1c\xb4\x8b@'
p828
tp829
Rp830
asS'S000001947'
p831
(lp832
g3
(g7
S'\x07\x82\x81>'
p833
tp834
Rp835
asS'S000001946'
p836
(lp837
g3
(g7
S'\x8a\xa1\x1fA'
p838
tp839
Rp840
asS'S000003641'
p841
(lp842
g3
(g7
S'(\xd6\x92?'
p843
tp844
Rp845
asS'S000003647'
p846
(lp847
g3
(g7
S'J\xd4R?'
p848
tp849
Rp850
asS'S000005343'
p851
(lp852
g3
(g7
S'\x16\xedaA'
p853
tp854
Rp855
asS'S000003761'
p856
(lp857
g3
(g7
S'!w\x12>'
p858
tp859
Rp860
asS'S000003760'
p861
(lp862
g3
(g7
S'\x05\xad\x81@'
p863
tp864
Rp865
asS'S000003767'
p866
(lp867
g3
(g7
S')\x98\x86?'
p868
tp869
Rp870
asS'S000004815'
p871
(lp872
g3
(g7
S'oa"A'
p873
tp874
Rp875
asS'S000004764'
p876
(lp877
g3
(g7
S'=2\xbc@'
p878
tp879
Rp880
asS'S000003386'
p881
(lp882
g3
(g7
S'\xdc\nNA'
p883
tp884
Rp885
asS'S000003389'
p886
(lp887
g3
(g7
S'\xfeGN@'
p888
tp889
Rp890
asS'S000003388'
p891
(lp892
g3
(g7
S'\x8c\x03\x8c@'
p893
tp894
Rp895
asS'S000001456'
p896
(lp897
g3
(g7
S'$8\x1fA'
p898
tp899
Rp900
asS'S000006046'
p901
(lp902
g3
(g7
S'\x99\xaa\xfb?'
p903
tp904
Rp905
asS'S000006067'
p906
(lp907
g3
(g7
S'\x04\xa8\x85@'
p908
tp909
Rp910
asS'S000006064'
p911
(lp912
g3
(g7
S'`\x12\xa4@'
p913
tp914
Rp915
asS'S000006068'
p916
(lp917
g3
(g7
S'S\xd2(@'
p918
tp919
Rp920
asS'S000003985'
p921
(lp922
g3
(g7
S'\x80E]@'
p923
tp924
Rp925
asS'S000003984'
p926
(lp927
g3
(g7
S'\x80E]@'
p928
tp929
Rp930
ag3
(g7
S'\x00\xf4\xb0@'
p931
tp932
Rp933
asS'S000000956'
p934
(lp935
g3
(g7
S'w@~?'
p936
tp937
Rp938
asS'S000004082'
p939
(lp940
g3
(g7
S'\x12c"@'
p941
tp942
Rp943
asS'S000004367'
p944
(lp945
g3
(g7
S'\xfco\xad@'
p946
tp947
Rp948
ag3
(g7
S'\xa0\x83]A'
p949
tp950
Rp951
asS'S000004362'
p952
(lp953
g3
(g7
S'\x8a\xc4\x84?'
p954
tp955
Rp956
asS'S000004715'
p957
(lp958
g3
(g7
S'\xcb\xdf\xdb?'
p959
tp960
Rp961
asS'S000004713'
p962
(lp963
g3
(g7
S'U\x10\x99?'
p964
tp965
Rp966
asS'S000004541'
p967
(lp968
g3
(g7
S'\xdb\xaf-@'
p969
tp970
Rp971
asS'S000000523'
p972
(lp973
g3
(g7
S'GV8A'
p974
tp975
Rp976
asS'S000001768'
p977
(lp978
g3
(g7
S'D\x00R?'
p979
tp980
Rp981
asS'S000005590'
p982
(lp983
g3
(g7
S'\xad<5A'
p984
tp985
Rp986
asS'S000005591'
p987
(lp988
g3
(g7
S'\x8a\x03\x19A'
p989
tp990
Rp991
ag3
(g7
S'\xad<5A'
p992
tp993
Rp994
asS'S000001765'
p995
(lp996
g3
(g7
S'\x98/\xbc@'
p997
tp998
Rp999
asS'S000000444'
p1000
(lp1001
g3
(g7
S'\x12c"@'
p1002
tp1003
Rp1004
asS'S000006780'
p1005
(lp1006
g3
(g7
S'\xc72\x17@'
p1007
tp1008
Rp1009
asS'S000004967'
p1010
(lp1011
g3
(g7
S'\xdf\x9cEA'
p1012
tp1013
Rp1014
asS'S000000342'
p1015
(lp1016
g3
(g7
S'6\xc4\x87A'
p1017
tp1018
Rp1019
asS'S000001442'
p1020
(lp1021
g3
(g7
S'\x88RQ?'
p1022
tp1023
Rp1024
ag3
(g7
S'3\x0e\x82@'
p1025
tp1026
Rp1027
asS'S000004888'
p1028
(lp1029
g3
(g7
S'\xcd\xaa\x0b?'
p1030
tp1031
Rp1032
ag3
(g7
S'\xdb\xe4\x12A'
p1033
tp1034
Rp1035
asS'S000001869'
p1036
(lp1037
g3
(g7
S'\xa6\x9a\x1a?'
p1038
tp1039
Rp1040
asS'S000003330'
p1041
(lp1042
g3
(g7
S'\xdd\xb8,A'
p1043
tp1044
Rp1045
asS'S000004882'
p1046
(lp1047
g3
(g7
S'\x90\xd3\x18>'
p1048
tp1049
Rp1050
asS'S000003332'
p1051
(lp1052
g3
(g7
S'\xd2\x13\xbf@'
p1053
tp1054
Rp1055
asS'S000006665'
p1056
(lp1057
g3
(g7
S'\xc6/\x91A'
p1058
tp1059
Rp1060
asS'S000006660'
p1061
(lp1062
g3
(g7
S'\x92\x0b\xcd@'
p1063
tp1064
Rp1065
asS'S000006544'
p1066
(lp1067
g3
(g7
S'\xc6/\x91A'
p1068
tp1069
Rp1070
asS'S000006669'
p1071
(lp1072
g3
(g7
S'\xc6/\x91A'
p1073
tp1074
Rp1075
asS'S000003447'
p1076
(lp1077
g3
(g7
S'A\x00\xd9@'
p1078
tp1079
Rp1080
asS'S000000844'
p1081
(lp1082
g3
(g7
S'\x9b\xec\n@'
p1083
tp1084
Rp1085
asS'S000001044'
p1086
(lp1087
g3
(g7
S'\xd0\xa8\x02A'
p1088
tp1089
Rp1090
asS'S000003973'
p1091
(lp1092
g3
(g7
S'U\x10\x99?'
p1093
tp1094
Rp1095
asS'S000004566'
p1096
(lp1097
g3
(g7
S'\x93\x12\xde?'
p1098
tp1099
Rp1100
ag3
(g7
S'z]\xe2@'
p1101
tp1102
Rp1103
asS'S000004402'
p1104
(lp1105
g3
(g7
S'\xb1:\xb8?'
p1106
tp1107
Rp1108
asS'S000000081'
p1109
(lp1110
g3
(g7
S'\xd15\x81A'
p1111
tp1112
Rp1113
asS'S000005966'
p1114
(lp1115
g3
(g7
S'\xf3\xa5K@'
p1116
tp1117
Rp1118
asS'S000000546'
p1119
(lp1120
g3
(g7
S'n\xb2\x05A'
p1121
tp1122
Rp1123
asS'S000000787'
p1124
(lp1125
g3
(g7
S'\xd39P@'
p1126
tp1127
Rp1128
asS'S000005961'
p1129
(lp1130
g3
(g7
S'\x9aHfA'
p1131
tp1132
Rp1133
asS'S000001589'
p1134
(lp1135
g3
(g7
S'i\xccW@'
p1136
tp1137
Rp1138
asS'S000001221'
p1139
(lp1140
g3
(g7
S'\x11\xee@A'
p1141
tp1142
Rp1143
asS'S000000621'
p1144
(lp1145
g3
(g7
S'Dt!@'
p1146
tp1147
Rp1148
asS'S000002602'
p1149
(lp1150
g3
(g7
S'\x08F\xb0@'
p1151
tp1152
Rp1153
asS'S000007239'
p1154
(lp1155
g3
(g7
S'\xc6/\x91A'
p1156
tp1157
Rp1158
asS'S000002871'
p1159
(lp1160
g3
(g7
S'\xa5\xbb\xbb@'
p1161
tp1162
Rp1163
asS'S000004588'
p1164
(lp1165
g3
(g7
S'?\x1f\xf2@'
p1166
tp1167
Rp1168
ag3
(g7
S'\xde\xd3\x83A'
p1169
tp1170
Rp1171
asS'S000002873'
p1172
(lp1173
g3
(g7
S'bp\xdd@'
p1174
tp1175
Rp1176
asS'S000002874'
p1177
(lp1178
g3
(g7
S'bp\xdd@'
p1179
tp1180
Rp1181
asS'S000001346'
p1182
(lp1183
g3
(g7
S'\xcfk\x8b@'
p1184
tp1185
Rp1186
asS'S000028556'
p1187
(lp1188
g3
(g7
S'\xac3\xb6?'
p1189
tp1190
Rp1191
asS'S000028550'
p1192
(lp1193
g3
(g7
S'q\x0c\x96@'
p1194
tp1195
Rp1196
asS'S000000861'
p1197
(lp1198
g3
(g7
S'\x8c\x03\x8c@'
p1199
tp1200
Rp1201
asS'S000001299'
p1202
(lp1203
g3
(g7
S'\xcc\r\xfa@'
p1204
tp1205
Rp1206
asS'S000000341'
p1207
(lp1208
g3
(g7
S'\xe0>B?'
p1209
tp1210
Rp1211
asS'S000002287'
p1212
(lp1213
g3
(g7
S'\xb4]\x89@'
p1214
tp1215
Rp1216
asS'S000000930'
p1217
(lp1218
g3
(g7
S'~P\xd2?'
p1219
tp1220
Rp1221
asS'S000003204'
p1222
(lp1223
g3
(g7
S'\xac3\xb6?'
p1224
tp1225
Rp1226
asS'S000003754'
p1227
(lp1228
g3
(g7
S'\x03_^?'
p1229
tp1230
Rp1231
asS'S000002330'
p1232
(lp1233
g3
(g7
S'\xd3\x88\xc2@'
p1234
tp1235
Rp1236
asS'S000005131'
p1237
(lp1238
g3
(g7
S'!w\x12>'
p1239
tp1240
Rp1241
asS'S000028638'
p1242
(lp1243
g3
(g7
S'\n\x18\xeb@'
p1244
tp1245
Rp1246
asS'S000001158'
p1247
(lp1248
g3
(g7
S'\x148\x1bA'
p1249
tp1250
Rp1251
asS'S000002626'
p1252
(lp1253
g3
(g7
S'\xfb\xacdA'
p1254
tp1255
Rp1256
asS'S000002622'
p1257
(lp1258
g3
(g7
S'(a\x95@'
p1259
tp1260
Rp1261
asS'S000000300'
p1262
(lp1263
g3
(g7
S'\x82Mf?'
p1264
tp1265
Rp1266
asS'S000005919'
p1267
(lp1268
g3
(g7
S'\x89C\xe2>'
p1269
tp1270
Rp1271
ag3
(g7
S'MJ\xd7?'
p1272
tp1273
Rp1274
asS'S000001530'
p1275
(lp1276
g3
(g7
S'\x9c#\x82@'
p1277
tp1278
Rp1279
asS'S000001900'
p1280
(lp1281
g3
(g7
S'\xaa\x96\xcc@'
p1282
tp1283
Rp1284
asS'S000005945'
p1285
(lp1286
g3
(g7
S'i\xccW@'
p1287
tp1288
Rp1289
asS'S000005183'
p1290
(lp1291
g3
(g7
S'U\xd1(A'
p1292
tp1293
Rp1294
asS'S000005182'
p1295
(lp1296
g3
(g7
S'\xee\xc6\xf7?'
p1297
tp1298
Rp1299
asS'S000003723'
p1300
(lp1301
g3
(g7
S'\x99\xaa\xfb?'
p1302
tp1303
Rp1304
asS'S000005184'
p1305
(lp1306
g3
(g7
S'U\xd1(A'
p1307
tp1308
Rp1309
ag3
(g7
S'0\x90WA'
p1310
tp1311
Rp1312
asS'S000005623'
p1313
(lp1314
g3
(g7
S'e\r\xca@'
p1315
tp1316
Rp1317
asS'S000003728'
p1318
(lp1319
g3
(g7
S'\xfc[-A'
p1320
tp1321
Rp1322
asS'S000006186'
p1323
(lp1324
g3
(g7
S'7+\xb9@'
p1325
tp1326
Rp1327
asS'S000006180'
p1328
(lp1329
g3
(g7
S'\xdf/\x9dA'
p1330
tp1331
Rp1332
asS'S000005022'
p1333
(lp1334
g3
(g7
S'\xd15\x81A'
p1335
tp1336
Rp1337
asS'S000006182'
p1338
(lp1339
g3
(g7
S'\xc5\x9d\x94@'
p1340
tp1341
Rp1342
asS'S000003054'
p1343
(lp1344
g3
(g7
S'\xefT,A'
p1345
tp1346
Rp1347
asS'S000003505'
p1348
(lp1349
g3
(g7
S'gh\x03A'
p1350
tp1351
Rp1352
asS'S000003502'
p1353
(lp1354
g3
(g7
S'\xcc6\xc3@'
p1355
tp1356
Rp1357
asS'S000003500'
p1358
(lp1359
g3
(g7
S'\xd3\x88\xc2@'
p1360
tp1361
Rp1362
ag3
(g7
S'\xcc6\xc3@'
p1363
tp1364
Rp1365
asS'S000002759'
p1366
(lp1367
g3
(g7
S'0\\EA'
p1368
tp1369
Rp1370
asS'S000002758'
p1371
(lp1372
g3
(g7
S'\x07\x82\x81>'
p1373
tp1374
Rp1375
asS'S000006437'
p1376
(lp1377
g3
(g7
S'Fd\x17@'
p1378
tp1379
Rp1380
asS'S000005988'
p1381
(lp1382
g3
(g7
S'\xb4]\x89@'
p1383
tp1384
Rp1385
asS'S000000018'
p1386
(lp1387
g3
(g7
S'O\xf2a@'
p1388
tp1389
Rp1390
asS'S000005980'
p1391
(lp1392
g3
(g7
S'\xde\xa5\x0bA'
p1393
tp1394
Rp1395
asS'S000000017'
p1396
(lp1397
g3
(g7
S'O\xf2a@'
p1398
tp1399
Rp1400
asS'S000004201'
p1401
(lp1402
g3
(g7
S'j\xf1MA'
p1403
tp1404
Rp1405
asS'S000000011'
p1406
(lp1407
g3
(g7
S'\x15N\x9a?'
p1408
tp1409
Rp1410
asS'S000000012'
p1411
(lp1412
g3
(g7
S'\xd89\xf3@'
p1413
tp1414
Rp1415
asS'S000000013'
p1416
(lp1417
g3
(g7
S'\x15N\x9a?'
p1418
tp1419
Rp1420
asS'S000002892'
p1421
(lp1422
g3
(g7
S'\xb1:\xb8?'
p1423
tp1424
Rp1425
asS'S000002893'
p1426
(lp1427
g3
(g7
S']\xba"@'
p1428
tp1429
Rp1430
asS'S000002890'
p1431
(lp1432
g3
(g7
S'\xb1:\xb8?'
p1433
tp1434
Rp1435
asS'S000002958'
p1436
(lp1437
g3
(g7
S'\xfc\xd1\xb2@'
p1438
tp1439
Rp1440
asS'S000003378'
p1441
(lp1442
g3
(g7
S'7D\xa5@'
p1443
tp1444
Rp1445
asS'S000004430'
p1446
(lp1447
g3
(g7
S'i\xd0\\A'
p1448
tp1449
Rp1450
asS'S000004431'
p1451
(lp1452
g3
(g7
S'\xf2\xffo@'
p1453
tp1454
Rp1455
asS'S000000403'
p1456
(lp1457
g3
(g7
S'\x8c\xc5\x1aA'
p1458
tp1459
Rp1460
asS'S000005268'
p1461
(lp1462
g3
(g7
S'<z6@'
p1463
tp1464
Rp1465
asS'S000000401'
p1466
(lp1467
g3
(g7
S'bp\xdd@'
p1468
tp1469
Rp1470
asS'S000001155'
p1471
(lp1472
g3
(g7
S'\xaa\x84\x02A'
p1473
tp1474
Rp1475
asS'S000004386'
p1476
(lp1477
g3
(g7
S'\x12\x1b\xd0@'
p1478
tp1479
Rp1480
asS'S000004029'
p1481
(lp1482
g3
(g7
S'h\xedj@'
p1483
tp1484
Rp1485
asS'S000003472'
p1486
(lp1487
g3
(g7
S'\xf6E\x15A'
p1488
tp1489
Rp1490
asS'S000003479'
p1491
(lp1492
g3
(g7
S'\xefT,A'
p1493
tp1494
Rp1495
asS'S000003478'
p1496
(lp1497
g3
(g7
S'\xefT,A'
p1498
tp1499
Rp1500
asS'S000003183'
p1501
(lp1502
g3
(g7
S'\x17\xcf1>'
p1503
tp1504
Rp1505
asS'S000005521'
p1506
(lp1507
g3
(g7
S'\xaf4\x7f@'
p1508
tp1509
Rp1510
asS'S000004333'
p1511
(lp1512
g3
(g7
S'\x12h\rA'
p1513
tp1514
Rp1515
asS'S000004331'
p1516
(lp1517
g3
(g7
S'\x12h\rA'
p1518
tp1519
Rp1520
asS'S000004446'
p1521
(lp1522
g3
(g7
S'\xfa\xfdGA'
p1523
tp1524
Rp1525
asS'S000004445'
p1526
(lp1527
g3
(g7
S'\xfa\xfdGA'
p1528
tp1529
Rp1530
asS'S000004728'
p1531
(lp1532
g3
(g7
S'*F-A'
p1533
tp1534
Rp1535
asS'S000004338'
p1536
(lp1537
g3
(g7
S'\x84y\x95@'
p1538
tp1539
Rp1540
asS'S000004721'
p1541
(lp1542
g3
(g7
S'\x9b\xe6\x9b@'
p1543
tp1544
Rp1545
asS'S000001233'
p1546
(lp1547
g3
(g7
S'\x9c#\x82@'
p1548
tp1549
Rp1550
asS'S000005350'
p1551
(lp1552
g3
(g7
S'\x9b\xe6\x9b@'
p1553
tp1554
Rp1555
asS'S000007587'
p1556
(lp1557
g3
(g7
S'\xa1\x87j@'
p1558
tp1559
Rp1560
asS'S000005319'
p1561
(lp1562
g3
(g7
S' \xd7\x9e@'
p1563
tp1564
Rp1565
asS'S000001300'
p1566
(lp1567
g3
(g7
S'\xdc\xd0\x07A'
p1568
tp1569
Rp1570
asS'S000002389'
p1571
(lp1572
g3
(g7
S'\xfc\xd1\xb2@'
p1573
tp1574
Rp1575
asS'S000001494'
p1576
(lp1577
g3
(g7
S'm\xea\x97@'
p1578
tp1579
Rp1580
asS'S000003634'
p1581
(lp1582
g3
(g7
S'\x04\xa8\x85@'
p1583
tp1584
Rp1585
asS'S000001719'
p1586
(lp1587
g3
(g7
S'P\xbf\x0bA'
p1588
tp1589
Rp1590
asS'S000002369'
p1591
(lp1592
g3
(g7
S'`\x12\xa4@'
p1593
tp1594
Rp1595
asS'S000001490'
p1596
(lp1597
g3
(g7
S'2s\xfd@'
p1598
tp1599
Rp1600
asS'S000006754'
p1601
(lp1602
g3
(g7
S'\xe5\x01M@'
p1603
tp1604
Rp1605
asS'S000005418'
p1606
(lp1607
g3
(g7
S'\x80P\x06?'
p1608
tp1609
Rp1610
asS'S000005795'
p1611
(lp1612
g3
(g7
S'R\x15\xdf>'
p1613
tp1614
Rp1615
asS'S000006614'
p1616
(lp1617
g3
(g7
S'5\xb8q@'
p1618
tp1619
Rp1620
asS'S000006613'
p1621
(lp1622
g3
(g7
S'\xc6/\x91A'
p1623
tp1624
Rp1625
asS'S000005000'
p1626
(lp1627
g3
(g7
S'\xc6/\x91A'
p1628
tp1629
Rp1630
asS'S000000976'
p1631
(lp1632
g3
(g7
S'oa"A'
p1633
tp1634
Rp1635
asS'S000005550'
p1636
(lp1637
g3
(g7
S'S\xd2(@'
p1638
tp1639
Rp1640
asS'S000005551'
p1641
(lp1642
g3
(g7
S'S\xd2(@'
p1643
tp1644
Rp1645
asS'S000005004'
p1646
(lp1647
g3
(g7
S'\xaa\x96\xcc@'
p1648
tp1649
Rp1650
asS'S000005005'
p1651
(lp1652
g3
(g7
S'\x90\xd3\x18>'
p1653
tp1654
Rp1655
asS'S000001396'
p1656
(lp1657
g3
(g7
S'\xac3\xb6?'
p1658
tp1659
Rp1660
asS'S000001397'
p1661
(lp1662
g3
(g7
S'\xac3\xb6?'
p1663
tp1664
Rp1665
asS'S000004533'
p1666
(lp1667
g3
(g7
S't\x97\xfc@'
p1668
tp1669
Rp1670
asS'S000000877'
p1671
(lp1672
g3
(g7
S'\xb79\x82@'
p1673
tp1674
Rp1675
asS'S000005558'
p1676
(lp1677
g3
(g7
S'`\x12\xa4@'
p1678
tp1679
Rp1680
asS'S000000875'
p1681
(lp1682
g3
(g7
S'\xa3\xa4\xce@'
p1683
tp1684
Rp1685
asS'S000000872'
p1686
(lp1687
g3
(g7
S'\xf0\x7f\x15A'
p1688
tp1689
Rp1690
asS'S000000871'
p1691
(lp1692
g3
(g7
S'\xa1`\x1b?'
p1693
tp1694
Rp1695
asS'S000006207'
p1696
(lp1697
g3
(g7
S'\xa8\xd59A'
p1698
tp1699
Rp1700
asS'S000005896'
p1701
(lp1702
g3
(g7
S'\xa5\x1d\x07A'
p1703
tp1704
Rp1705
asS'S000005674'
p1706
(lp1707
g3
(g7
S'\x13J\x94A'
p1708
tp1709
Rp1710
asS'S000001570'
p1711
(lp1712
g3
(g7
S'\x85\xc4\xbf?'
p1713
tp1714
Rp1715
asS'S000001571'
p1716
(lp1717
g3
(g7
S'\xdd\xb8,A'
p1718
tp1719
Rp1720
asS'S000000755'
p1721
(lp1722
g3
(g7
S'2e[A'
p1723
tp1724
Rp1725
asS'S000001623'
p1726
(lp1727
g3
(g7
S'\xdf\x9cEA'
p1728
tp1729
Rp1730
asS'S000005899'
p1731
(lp1732
g3
(g7
S'\xfb\xacdA'
p1733
tp1734
Rp1735
asS'S000005380'
p1736
(lp1737
g3
(g7
S'\xc6/\x91A'
p1738
tp1739
Rp1740
asS'S000002743'
p1741
(lp1742
g3
(g7
S'0\xb0\xf0@'
p1743
tp1744
Rp1745
asS'S000005388'
p1746
(lp1747
g3
(g7
S'wyl@'
p1748
tp1749
Rp1750
asS'S000000548'
p1751
(lp1752
g3
(g7
S'n\xb2\x05A'
p1753
tp1754
Rp1755
asS'S000000343'
p1756
(lp1757
g3
(g7
S'6\xc4\x87A'
p1758
tp1759
Rp1760
asS'S000001786'
p1761
(lp1762
g3
(g7
S'\x148\x1bA'
p1763
tp1764
Rp1765
asS'S000028567'
p1766
(lp1767
g3
(g7
S'O\xf2a@'
p1768
tp1769
Rp1770
asS'S000000589'
p1771
(lp1772
g3
(g7
S'\x17\xe9;@'
p1773
tp1774
Rp1775
asS'S000002468'
p1776
(lp1777
g3
(g7
S'\xefT,A'
p1778
tp1779
Rp1780
asS'S000002579'
p1781
(lp1782
g3
(g7
S'\x98/\xbc@'
p1783
tp1784
Rp1785
asS'S000004597'
p1786
(lp1787
g3
(g7
S'\r\x97\xcc@'
p1788
tp1789
Rp1790
asS'S000005257'
p1791
(lp1792
g3
(g7
S'\xd1*\x89@'
p1793
tp1794
Rp1795
asS'S000005256'
p1796
(lp1797
g3
(g7
S'\xd1*\x89@'
p1798
tp1799
Rp1800
asS'S000002848'
p1801
(lp1802
g3
(g7
S'\x06\xa2@>'
p1803
tp1804
Rp1805
asS'S000028706'
p1806
(lp1807
g3
(g7
S'\xcb\xdf\xdb?'
p1808
tp1809
Rp1810
asS'S000003620'
p1811
(lp1812
g3
(g7
S'\xdfT(A'
p1813
tp1814
Rp1815
asS'S000003159'
p1816
(lp1817
g3
(g7
S'*F-A'
p1818
tp1819
Rp1820
asS'S000003628'
p1821
(lp1822
g3
(g7
S'x\xd8\x9aA'
p1823
tp1824
Rp1825
asS'S000003629'
p1826
(lp1827
g3
(g7
S'x\xd8\x9aA'
p1828
tp1829
Rp1830
asS'S000006375'
p1831
(lp1832
g3
(g7
S'oU\x14@'
p1833
tp1834
Rp1835
asS'S000006374'
p1836
(lp1837
g3
(g7
S'oU\x14@'
p1838
tp1839
Rp1840
asS'S000000696'
p1841
(lp1842
g3
(g7
S'\xed\x0c\x16@'
p1843
tp1844
Rp1845
asS'S000000728'
p1846
(lp1847
g3
(g7
S'\xa0\x83]A'
p1848
tp1849
Rp1850
asS'S000002716'
p1851
(lp1852
g3
(g7
S'\r\xf9\xd1@'
p1853
tp1854
Rp1855
asS'S000002659'
p1856
(lp1857
g3
(g7
S'~P\xd2?'
p1858
tp1859
Rp1860
asS'S000000197'
p1861
(lp1862
g3
(g7
S'n\xc4\x9f@'
p1863
tp1864
Rp1865
asS'S000003782'
p1866
(lp1867
g3
(g7
S'\xd2\xd4XA'
p1868
tp1869
Rp1870
asS'S000002655'
p1871
(lp1872
g3
(g7
S'6\xd4\xdf@'
p1873
tp1874
Rp1875
ag3
(g7
S'z\xa1\x96A'
p1876
tp1877
Rp1878
asS'S000002308'
p1879
(lp1880
g3
(g7
S'Fd\x17@'
p1881
tp1882
Rp1883
asS'S000002657'
p1884
(lp1885
g3
(g7
S'~P\xd2?'
p1886
tp1887
Rp1888
asS'S000000056'
p1889
(lp1890
g3
(g7
S'\x11\xee@A'
p1891
tp1892
Rp1893
ag3
(g7
S'\x11\xee@A'
p1894
tp1895
Rp1896
asS'S000002773'
p1897
(lp1898
g3
(g7
S'\xc6/\x91A'
p1899
tp1900
Rp1901
asS'S000000299'
p1902
(lp1903
g3
(g7
S'\x82Mf?'
p1904
tp1905
Rp1906
asS'S000001870'
p1907
(lp1908
g3
(g7
S'\x90\xd3\x18>'
p1909
tp1910
Rp1911
asS'S000000355'
p1912
(lp1913
g3
(g7
S'\xfc\xd1\xb2@'
p1914
tp1915
Rp1916
asS'S000000354'
p1917
(lp1918
g3
(g7
S'\xfc\xd1\xb2@'
p1919
tp1920
Rp1921
asS'S000000293'
p1922
(lp1923
g3
(g7
S'J\xd4R?'
p1924
tp1925
Rp1926
asS'S000002913'
p1927
(lp1928
g3
(g7
S'\xfa\xfdGA'
p1929
tp1930
Rp1931
asS'S000003656'
p1932
(lp1933
g3
(g7
S'9~\xe7@'
p1934
tp1935
Rp1936
asS'S000003654'
p1937
(lp1938
g3
(g7
S'9~\xe7@'
p1939
tp1940
Rp1941
asS'S000003275'
p1942
(lp1943
g3
(g7
S'\xc4\xf4\x19A'
p1944
tp1945
Rp1946
asS'S000005304'
p1947
(lp1948
g3
(g7
S'\xdd]\xe2@'
p1949
tp1950
Rp1951
asS'S000002782'
p1952
(lp1953
g3
(g7
S'\x98/\xbc@'
p1954
tp1955
Rp1956
asS'S000004771'
p1957
(lp1958
g3
(g7
S')\x98\x86?'
p1959
tp1960
Rp1961
asS'S000004805'
p1962
(lp1963
g3
(g7
S'\xe0>B?'
p1964
tp1965
Rp1966
asS'S000005191'
p1967
(lp1968
g3
(g7
S'\xfe\xa3\xee>'
p1969
tp1970
Rp1971
asS'S000004777'
p1972
(lp1973
g3
(g7
S'\xd1*\x89@'
p1974
tp1975
Rp1976
asS'S000004776'
p1977
(lp1978
g3
(g7
S'\xd1*\x89@'
p1979
tp1980
Rp1981
asS'S000003436'
p1982
(lp1983
g3
(g7
S'8\xaf\x8c@'
p1984
tp1985
Rp1986
asS'S000003435'
p1987
(lp1988
g3
(g7
S'8\xaf\x8c@'
p1989
tp1990
Rp1991
asS'S000003434'
p1992
(lp1993
g3
(g7
S'8\xaf\x8c@'
p1994
tp1995
Rp1996
asS'S000007242'
p1997
(lp1998
g3
(g7
S'\xf0\x7f\x15A'
p1999
tp2000
Rp2001
asS'S000003431'
p2002
(lp2003
g3
(g7
S'\x84y\x95@'
p2004
tp2005
Rp2006
asS'S000006016'
p2007
(lp2008
g3
(g7
S'A\x00\xd9@'
p2009
tp2010
Rp2011
asS'S000003025'
p2012
(lp2013
g3
(g7
S'gh\x03A'
p2014
tp2015
Rp2016
asS'S000006014'
p2017
(lp2018
g3
(g7
S'A\x00\xd9@'
p2019
tp2020
Rp2021
asS'S000005595'
p2022
(lp2023
g3
(g7
S']\xba"@'
p2024
tp2025
Rp2026
asS'S000003531'
p2027
(lp2028
g3
(g7
S'\x99\x0e\xac?'
p2029
tp2030
Rp2031
asS'S000004103'
p2032
(lp2033
g3
(g7
S'\xacT\x10A'
p2034
tp2035
Rp2036
asS'S000005879'
p2037
(lp2038
g3
(g7
S'\xc9\xaf\xc0@'
p2039
tp2040
Rp2041
asS'S000005878'
p2042
(lp2043
g3
(g7
S'\xc9\xaf\xc0@'
p2044
tp2045
Rp2046
asS'S000000128'
p2047
(lp2048
g3
(g7
S'\x8a\xc4\x84?'
p2049
tp2050
Rp2051
asS'S000005042'
p2052
(lp2053
g3
(g7
S'P\xbf\x0bA'
p2054
tp2055
Rp2056
asS'S000002393'
p2057
(lp2058
g3
(g7
S'\x99\x0e\xac?'
p2059
tp2060
Rp2061
asS'S000000127'
p2062
(lp2063
g3
(g7
S'j,\x06A'
p2064
tp2065
Rp2066
ag3
(g7
S'w\xb9:A'
p2067
tp2068
Rp2069
asS'S000002395'
p2070
(lp2071
g3
(g7
S'wyl@'
p2072
tp2073
Rp2074
asS'S000006388'
p2075
(lp2076
g3
(g7
S'\xdf/\x9dA'
p2077
tp2078
Rp2079
asS'S000002948'
p2080
(lp2081
g3
(g7
S'\x80E]@'
p2082
tp2083
Rp2084
asS'S000005427'
p2085
(lp2086
g3
(g7
S'\x83\xa0c>'
p2087
tp2088
Rp2089
ag3
(g7
S'\x15N\x9a?'
p2090
tp2091
Rp2092
asS'S000007339'
p2093
(lp2094
g3
(g7
S'\x9c\xba2@'
p2095
tp2096
Rp2097
asS'S000004979'
p2098
(lp2099
g3
(g7
S'm\x88\x92@'
p2100
tp2101
Rp2102
asS'S000001026'
p2103
(lp2104
g3
(g7
S'd?8A'
p2105
tp2106
Rp2107
asS'S000004507'
p2108
(lp2109
g3
(g7
S'\xb4\x01\xf4@'
p2110
tp2111
Rp2112
asS'S000004113'
p2113
(lp2114
g3
(g7
S'\x87\x87e?'
p2115
tp2116
Rp2117
asS'S000004112'
p2118
(lp2119
g3
(g7
S'\x87\x87e?'
p2120
tp2121
Rp2122
asS'S000001452'
p2123
(lp2124
g3
(g7
S'`\x12\xa4@'
p2125
tp2126
Rp2127
asS'S000001457'
p2128
(lp2129
g3
(g7
S'$8\x1fA'
p2130
tp2131
Rp2132
asS'S000000433'
p2133
(lp2134
g3
(g7
S'\xde\xa5\x0bA'
p2135
tp2136
Rp2137
asS'S000001454'
p2138
(lp2139
g3
(g7
S'`\x12\xa4@'
p2140
tp2141
Rp2142
asS'S000001185'
p2143
(lp2144
g3
(g7
S'6\xd4\xdf@'
p2145
tp2146
Rp2147
asS'S000004873'
p2148
(lp2149
g3
(g7
S'\xa1\xb2\x1dA'
p2150
tp2151
Rp2152
asS'S000005793'
p2153
(lp2154
g3
(g7
S'R\x15\xdf>'
p2155
tp2156
Rp2157
asS'S000003327'
p2158
(lp2159
g3
(g7
S'\xa8T\xea@'
p2160
tp2161
Rp2162
asS'S000001180'
p2163
(lp2164
g3
(g7
S'\xdf/\x9dA'
p2165
tp2166
Rp2167
asS'S000006651'
p2168
(lp2169
g3
(g7
S'7+\xb9@'
p2170
tp2171
Rp2172
asS'S000006654'
p2173
(lp2174
g3
(g7
S'\xa9\n6A'
p2175
tp2176
Rp2177
asS'S000006655'
p2178
(lp2179
g3
(g7
S'\xc6/\x91A'
p2180
tp2181
Rp2182
asS'S000004521'
p2183
(lp2184
g3
(g7
S'N\xac2A'
p2185
tp2186
Rp2187
asS'S000005429'
p2188
(lp2189
g3
(g7
S'F\xf4\xd5@'
p2190
tp2191
Rp2192
asS'S000005518'
p2193
(lp2194
g3
(g7
S'w@~?'
p2195
tp2196
Rp2197
asS'S000004184'
p2198
(lp2199
g3
(g7
S'\x14D]>'
p2200
tp2201
Rp2202
asS'S000001118'
p2203
(lp2204
g3
(g7
S"W\xe2'A"
p2205
tp2206
Rp2207
asS'S000001050'
p2208
(lp2209
g3
(g7
S'\x90\xd3\x18>'
p2210
tp2211
Rp2212
ag3
(g7
S'0-\x9b@'
p2213
tp2214
Rp2215
asS'S000004477'
p2216
(lp2217
g3
(g7
S'\x99\xaa\xfb?'
p2218
tp2219
Rp2220
asS'S000003969'
p2221
(lp2222
g3
(g7
S'\x0e"\x03A'
p2223
tp2224
Rp2225
asS'S000004579'
p2226
(lp2227
g3
(g7
S'(a\x95@'
p2228
tp2229
Rp2230
asS'S000001441'
p2231
(lp2232
g3
(g7
S'\x88RQ?'
p2233
tp2234
Rp2235
asS'S000000383'
p2236
(lp2237
g3
(g7
S'\x177O@'
p2238
tp2239
Rp2240
asS'S000000384'
p2241
(lp2242
g3
(g7
S'\x177O@'
p2243
tp2244
Rp2245
asS'S000005733'
p2246
(lp2247
g3
(g7
S',\xd8$A'
p2248
tp2249
Rp2250
asS'S000001237'
p2251
(lp2252
g3
(g7
S'\xbd\x031A'
p2253
tp2254
Rp2255
asS'S000004603'
p2256
(lp2257
g3
(g7
S'\x82\xf1\x01@'
p2258
tp2259
Rp2260
asS'S000000220'
p2261
(lp2262
g3
(g7
S'\xfb\x0f\x1c>'
p2263
tp2264
Rp2265
asS'S000000227'
p2266
(lp2267
g3
(g7
S'\xbf\xbb\xae?'
p2268
tp2269
Rp2270
asS'S000004604'
p2271
(lp2272
g3
(g7
S'\x82\xf1\x01@'
p2273
tp2274
Rp2275
asS'S000001231'
p2276
(lp2277
g3
(g7
S'\x9c#\x82@'
p2278
tp2279
Rp2280
asS'S000000543'
p2281
(lp2282
g3
(g7
S'x\xd8\x9aA'
p2283
tp2284
Rp2285
asS'S000000898'
p2286
(lp2287
g3
(g7
S'xA\x9b>'
p2288
tp2289
Rp2290
asS'S000000545'
p2291
(lp2292
g3
(g7
S'n\xb2\x05A'
p2293
tp2294
Rp2295
asS'S000000896'
p2296
(lp2297
g3
(g7
S'\x9b\xec\n@'
p2298
tp2299
Rp2300
asS'S000004166'
p2301
(lp2302
g3
(g7
S'\\\xa9|?'
p2303
tp2304
Rp2305
ag3
(g7
S'\x1fg\xf3?'
p2306
tp2307
Rp2308
ag3
(g7
S'z\xa1\x96A'
p2309
tp2310
Rp2311
asS'S000000415'
p2312
(lp2313
g3
(g7
S':Q\xd5@'
p2314
tp2315
Rp2316
asS'S000006238'
p2317
(lp2318
g3
(g7
S'\xa1\x87j@'
p2319
tp2320
Rp2321
asS'S000005553'
p2322
(lp2323
g3
(g7
S'~\x8em>'
p2324
tp2325
Rp2326
asS'S000001898'
p2327
(lp2328
g3
(g7
S'A\xc4\x92?'
p2329
tp2330
Rp2331
asS'S000006239'
p2332
(lp2333
g3
(g7
S'\xfc[-A'
p2334
tp2335
Rp2336
asS'S000005002'
p2337
(lp2338
g3
(g7
S'\xc9\xaf\xc0@'
p2339
tp2340
Rp2341
ag3
(g7
S'\xaa\x96\xcc@'
p2342
tp2343
Rp2344
asS'S000006722'
p2345
(lp2346
g3
(g7
S'\xdf/\x9dA'
p2347
tp2348
Rp2349
asS'S000003819'
p2350
(lp2351
g3
(g7
S't\x97\xfc@'
p2352
tp2353
Rp2354
asS'S000005352'
p2355
(lp2356
g3
(g7
S'\x90\xd3\x18>'
p2357
tp2358
Rp2359
asS'S000004696'
p2360
(lp2361
g3
(g7
S'\x93l\xde?'
p2362
tp2363
Rp2364
asS'S000004881'
p2365
(lp2366
g3
(g7
S'\x90\xd3\x18>'
p2367
tp2368
Rp2369
asS'S000002436'
p2370
(lp2371
g3
(g7
S'A\xc4\x92?'
p2372
tp2373
Rp2374
asS'S000004695'
p2375
(lp2376
g3
(g7
S'\x93l\xde?'
p2377
tp2378
Rp2379
asS'S000003811'
p2380
(lp2381
g3
(g7
S"'-\xb5?"
p2382
tp2383
Rp2384
asS'S000005359'
p2385
(lp2386
g3
(g7
S'\xaf4\x7f@'
p2387
tp2388
Rp2389
asS'S000005428'
p2390
(lp2391
g3
(g7
S'F\xf4\xd5@'
p2392
tp2393
Rp2394
asS'S000000945'
p2395
(lp2396
g3
(g7
S"'-\xb5?"
p2397
tp2398
Rp2399
asS'S000004167'
p2400
(lp2401
g3
(g7
S'z\xa1\x96A'
p2402
tp2403
Rp2404
asS'S000003814'
p2405
(lp2406
g3
(g7
S'\x04\xa8\x85@'
p2407
tp2408
Rp2409
asS'S000028625'
p2410
(lp2411
g3
(g7
S'oa"A'
p2412
tp2413
Rp2414
asS'S000002619'
p2415
(lp2416
g3
(g7
S'\xc6/\x91A'
p2417
tp2418
Rp2419
asS'S000005120'
p2420
(lp2421
g3
(g7
S'\x15N\x9a?'
p2422
tp2423
Rp2424
asS'S000028588'
p2425
(lp2426
g3
(g7
S'\x9aHfA'
p2427
tp2428
Rp2429
asS'S000005126'
p2430
(lp2431
g3
(g7
S'oX\xdc@'
p2432
tp2433
Rp2434
ag3
(g7
S'\x13J\x94A'
p2435
tp2436
Rp2437
asS'S000005125'
p2438
(lp2439
g3
(g7
S'\x13J\x94A'
p2440
tp2441
Rp2442
asS'S000003746'
p2443
(lp2444
g3
(g7
S'7+\xb9@'
p2445
tp2446
Rp2447
asS'S000003140'
p2448
(lp2449
g3
(g7
S'\x85\x90\x10@'
p2450
tp2451
Rp2452
asS'S000003748'
p2453
(lp2454
g3
(g7
S'7+\xb9@'
p2455
tp2456
Rp2457
asS'S000005007'
p2458
(lp2459
g3
(g7
S'\x90\xa5\xc5@'
p2460
tp2461
Rp2462
asS'S000002617'
p2463
(lp2464
g3
(g7
S'\xd1*\x89@'
p2465
tp2466
Rp2467
ag3
(g7
S'\xc6/\x91A'
p2468
tp2469
Rp2470
asS'S000002593'
p2471
(lp2472
g3
(g7
S'A\xc4\x92?'
p2473
tp2474
Rp2475
asS'S000001013'
p2476
(lp2477
g3
(g7
S'\xb7\xb6\x8f?'
p2478
tp2479
Rp2480
asS'S000000762'
p2481
(lp2482
g3
(g7
S',\xd8$A'
p2483
tp2484
Rp2485
asS'S000000091'
p2486
(lp2487
g3
(g7
S'\x9b\xec\n@'
p2488
tp2489
Rp2490
asS'S000000760'
p2491
(lp2492
g3
(g7
S',\xd8$A'
p2493
tp2494
Rp2495
asS'S000005906'
p2496
(lp2497
g3
(g7
S'\xb7\xb6\x8f?'
p2498
tp2499
Rp2500
asS'S000001242'
p2501
(lp2502
g3
(g7
S'\x8c\xc5\x1aA'
p2503
tp2504
Rp2505
asS'S000000316'
p2506
(lp2507
g3
(g7
S'\xce\xe8\xa6@'
p2508
tp2509
Rp2510
asS'S000002599'
p2511
(lp2512
g3
(g7
S'\xfco\xad@'
p2513
tp2514
Rp2515
ag3
(g7
S'2s\xfd@'
p2516
tp2517
Rp2518
asS'S000000642'
p2519
(lp2520
g3
(g7
S'\xbf\xbb\xae?'
p2521
tp2522
Rp2523
asS'S000000645'
p2524
(lp2525
g3
(g7
S'\xf4G\xbc@'
p2526
tp2527
Rp2528
asS'S000000644'
p2529
(lp2530
g3
(g7
S'\xc6\x12\xd4@'
p2531
tp2532
Rp2533
asS'S000000311'
p2534
(lp2535
g3
(g7
S'\xc6\x12\xd4@'
p2536
tp2537
Rp2538
asS'S000001938'
p2539
(lp2540
g3
(g7
S'3\x14xA'
p2541
tp2542
Rp2543
asS'S000003784'
p2544
(lp2545
g3
(g7
S'\xd2\xd4XA'
p2546
tp2547
Rp2548
asS'S000029722'
p2549
(lp2550
g3
(g7
S'\xde\xa5\x0bA'
p2551
tp2552
Rp2553
asS'S000007524'
p2554
(lp2555
g3
(g7
S'*F-A'
p2556
tp2557
Rp2558
asS'S000001527'
p2559
(lp2560
g3
(g7
S'h\xedj@'
p2561
tp2562
Rp2563
asS'S000005635'
p2564
(lp2565
g3
(g7
S'.\xad(A'
p2566
tp2567
Rp2568
asS'S000000797'
p2569
(lp2570
g3
(g7
S':Q\xd5@'
p2571
tp2572
Rp2573
asS'S000006580'
p2574
(lp2575
g3
(g7
S'\x80E]@'
p2576
tp2577
Rp2578
asS'S000003061'
p2579
(lp2580
g3
(g7
S's\x01\x08A'
p2581
tp2582
Rp2583
asS'S000003062'
p2584
(lp2585
g3
(g7
S's\x01\x08A'
p2586
tp2587
Rp2588
asS'S000003064'
p2589
(lp2590
g3
(g7
S'\xc4\xf4\x19A'
p2591
tp2592
Rp2593
asS'S000006585'
p2594
(lp2595
g3
(g7
S'\xc6/\x91A'
p2596
tp2597
Rp2598
asS'S000005567'
p2599
(lp2600
g3
(g7
S'\xc8\xacLA'
p2601
tp2602
Rp2603
asS'S000000169'
p2604
(lp2605
g3
(g7
S'\x03\xd5\x97@'
p2606
tp2607
Rp2608
ag3
(g7
S'x\xd8\x9aA'
p2609
tp2610
Rp2611
asS'S000001931'
p2612
(lp2613
g3
(g7
S'\x13s\xf5@'
p2614
tp2615
Rp2616
asS'S000003268'
p2617
(lp2618
g3
(g7
S'\x9av\xd6@'
p2619
tp2620
Rp2621
asS'S000003269'
p2622
(lp2623
g3
(g7
S'\x88RQ?'
p2624
tp2625
Rp2626
asS'S000003535'
p2627
(lp2628
g3
(g7
S'\x9b\xec\n@'
p2629
tp2630
Rp2631
asS'S000000368'
p2632
(lp2633
g3
(g7
S'3\x0e\x82@'
p2634
tp2635
Rp2636
asS'S000002298'
p2637
(lp2638
g3
(g7
S'\xf8\xf41A'
p2639
tp2640
Rp2641
asS'S000005830'
p2642
(lp2643
g3
(g7
S'\x01\xbe\xaa@'
p2644
tp2645
Rp2646
asS'S000001804'
p2647
(lp2648
g3
(g7
S'O\xf2a@'
p2649
tp2650
Rp2651
asS'S000002297'
p2652
(lp2653
g3
(g7
S'\xf8\xf41A'
p2654
tp2655
Rp2656
asS'S000001800'
p2657
(lp2658
g3
(g7
S'"\x7f-@'
p2659
tp2660
Rp2661
asS'S000001801'
p2662
(lp2663
g3
(g7
S'"\x7f-@'
p2664
tp2665
Rp2666
asS'S000000647'
p2667
(lp2668
g3
(g7
S'\xf4G\xbc@'
p2669
tp2670
Rp2671
asS'S000003669'
p2672
(lp2673
g3
(g7
S'C,\xa4@'
p2674
tp2675
Rp2676
ag3
(g7
S'N\xac2A'
p2677
tp2678
Rp2679
asS'S000003972'
p2680
(lp2681
g3
(g7
S'U\x10\x99?'
p2682
tp2683
Rp2684
asS'S000004795'
p2685
(lp2686
g3
(g7
S'\xcc\r\xfa@'
p2687
tp2688
Rp2689
asS'S000003661'
p2690
(lp2691
g3
(g7
S'\n\xca\xfe?'
p2692
tp2693
Rp2694
asS'S000004421'
p2695
(lp2696
g3
(g7
S'\x99\x0e\xac?'
p2697
tp2698
Rp2699
asS'S000004392'
p2700
(lp2701
g3
(g7
S's\x01\x08A'
p2702
tp2703
Rp2704
asS'S000001143'
p2705
(lp2706
g3
(g7
S'e`\xa1@'
p2707
tp2708
Rp2709
asS'S000001142'
p2710
(lp2711
g3
(g7
S'0\xd9\xb9@'
p2712
tp2713
Rp2714
asS'S000001046'
p2715
(lp2716
g3
(g7
S'\xdfT(A'
p2717
tp2718
Rp2719
asS'S000002830'
p2720
(lp2721
g3
(g7
S'(a\x95@'
p2722
tp2723
Rp2724
asS'S000004780'
p2725
(lp2726
g3
(g7
S'\xf5\x1a\xaa@'
p2727
tp2728
Rp2729
asS'S000006695'
p2730
(lp2731
g3
(g7
S'\xc6/\x91A'
p2732
tp2733
Rp2734
asS'S000006690'
p2735
(lp2736
g3
(g7
S'~\x8em>'
p2737
tp2738
Rp2739
asS'S000004569'
p2740
(lp2741
g3
(g7
S'\x93\x12\xde?'
p2742
tp2743
Rp2744
ag3
(g7
S'z]\xe2@'
p2745
tp2746
Rp2747
asS'S000006043'
p2748
(lp2749
g3
(g7
S'\xc6\x12\xd4@'
p2750
tp2751
Rp2752
asS'S000006047'
p2753
(lp2754
g3
(g7
S'\xd7b2A'
p2755
tp2756
Rp2757
asS'S000006169'
p2758
(lp2759
g3
(g7
S'\x95]\x81@'
p2760
tp2761
Rp2762
asS'S000003002'
p2763
(lp2764
g3
(g7
S'\x9av\xd6@'
p2765
tp2766
Rp2767
asS'S000000754'
p2768
(lp2769
g3
(g7
S'2e[A'
p2770
tp2771
Rp2772
asS'S000004304'
p2773
(lp2774
g3
(g7
S'S\xd2(@'
p2775
tp2776
Rp2777
asS'S000004303'
p2778
(lp2779
g3
(g7
S'S\xd2(@'
p2780
tp2781
Rp2782
asS'S000003783'
p2783
(lp2784
g3
(g7
S'6\xd4\xdf@'
p2785
tp2786
Rp2787
asS'S000006190'
p2788
(lp2789
g3
(g7
S'A\xc4\x92?'
p2790
tp2791
Rp2792
asS'S000004730'
p2793
(lp2794
g3
(g7
S'\xad<5A'
p2795
tp2796
Rp2797
asS'S000007248'
p2798
(lp2799
g3
(g7
S'\xc6/\x91A'
p2800
tp2801
Rp2802
asS'S000001661'
p2803
(lp2804
g3
(g7
S'\xed\x0c\x16@'
p2805
tp2806
Rp2807
asS'S000006173'
p2808
(lp2809
g3
(g7
S'\x05\xad\x81@'
p2810
tp2811
Rp2812
asS'S000003932'
p2813
(lp2814
g3
(g7
S'7+\xb9@'
p2815
tp2816
Rp2817
asS'S000005068'
p2818
(lp2819
g3
(g7
S'\x92\x0b\xcd@'
p2820
tp2821
Rp2822
asS'S000005069'
p2823
(lp2824
g3
(g7
S'\x92\x0b\xcd@'
p2825
tp2826
Rp2827
asS'S000000502'
p2828
(lp2829
g3
(g7
S'+\x0b\x9d@'
p2830
tp2831
Rp2832
asS'S000000503'
p2833
(lp2834
g3
(g7
S'+\x0b\x9d@'
p2835
tp2836
Rp2837
asS'S000004162'
p2838
(lp2839
g3
(g7
S'\x03_^?'
p2840
tp2841
Rp2842
asS'S000004943'
p2843
(lp2844
g3
(g7
S'\xcb\xdf\xdb?'
p2845
tp2846
Rp2847
asS'S000004940'
p2848
(lp2849
g3
(g7
S'\x89C\xe2>'
p2850
tp2851
Rp2852
ag3
(g7
S'MJ\xd7?'
p2853
tp2854
Rp2855
asS'S000000466'
p2856
(lp2857
g3
(g7
S'\xa1\xb2\x1dA'
p2858
tp2859
Rp2860
asS'S000004492'
p2861
(lp2862
g3
(g7
S'\xeb\xff\x0f@'
p2863
tp2864
Rp2865
asS'S000000362'
p2866
(lp2867
g3
(g7
S'\x04\xbf#@'
p2868
tp2869
Rp2870
asS'S000006606'
p2871
(lp2872
g3
(g7
S'\x9c#\x82@'
p2873
tp2874
Rp2875
asS'S000006563'
p2876
(lp2877
g3
(g7
S'\xc6/\x91A'
p2878
tp2879
Rp2880
asS'S000005464'
p2881
(lp2882
g3
(g7
S'\xc6/\x91A'
p2883
tp2884
Rp2885
asS'S000005462'
p2886
(lp2887
g3
(g7
S'0\x90WA'
p2888
tp2889
Rp2890
asS'S000001132'
p2891
(lp2892
g3
(g7
S'\xe0<MA'
p2893
tp2894
Rp2895
asS'S000003084'
p2896
(lp2897
g3
(g7
S'\xe5\x01M@'
p2898
tp2899
Rp2900
asS'S000005014'
p2901
(lp2902
g3
(g7
S'\x11\xee@A'
p2903
tp2904
Rp2905
asS'S000001383'
p2906
(lp2907
g3
(g7
S'\x1c\xb4\x8b@'
p2908
tp2909
Rp2910
asS'S000004546'
p2911
(lp2912
g3
(g7
S'\xa8T\xea@'
p2913
tp2914
Rp2915
asS'S000003916'
p2916
(lp2917
g3
(g7
S'kg7@'
p2918
tp2919
Rp2920
asS'S000001062'
p2921
(lp2922
g3
(g7
S'\xf6P\x12@'
p2923
tp2924
Rp2925
asS'S000001061'
p2926
(lp2927
g3
(g7
S'\xf6P\x12@'
p2928
tp2929
Rp2930
ag3
(g7
S'\x04\xa8\x85@'
p2931
tp2932
Rp2933
asS'S000001569'
p2934
(lp2935
g3
(g7
S'\x85\xc4\xbf?'
p2936
tp2937
Rp2938
asS'S000002265'
p2939
(lp2940
g3
(g7
S'\xad\x82/@'
p2941
tp2942
Rp2943
asS'S000005947'
p2944
(lp2945
g3
(g7
S'i\xccW@'
p2946
tp2947
Rp2948
asS'S000005946'
p2949
(lp2950
g3
(g7
S'i\xccW@'
p2951
tp2952
Rp2953
asS'S000005608'
p2954
(lp2955
g3
(g7
S'\xefT,A'
p2956
tp2957
Rp2958
asS'S000000216'
p2959
(lp2960
g3
(g7
S'\xc6/\x91A'
p2961
tp2962
Rp2963
asS'S000001203'
p2964
(lp2965
g3
(g7
S'\x9d\xf1eA'
p2966
tp2967
Rp2968
asS'S000001201'
p2969
(lp2970
g3
(g7
S'2s\xfd@'
p2971
tp2972
Rp2973
asS'S000000177'
p2974
(lp2975
g3
(g7
S'J\xd4R?'
p2976
tp2977
Rp2978
asS'S000002852'
p2979
(lp2980
g3
(g7
S'\x8a\xb4\x1bA'
p2981
tp2982
Rp2983
asS'S000001364'
p2984
(lp2985
g3
(g7
S'\xbd\xc1\x87@'
p2986
tp2987
Rp2988
asS'S000002870'
p2989
(lp2990
g3
(g7
S'\xa5\xbb\xbb@'
p2991
tp2992
Rp2993
asS'S000005260'
p2994
(lp2995
g3
(g7
S'0\xd9\xb9@'
p2996
tp2997
Rp2998
asS'S000004589'
p2999
(lp3000
g3
(g7
S'?\x1f\xf2@'
p3001
tp3002
Rp3003
ag3
(g7
S'\xde\xd3\x83A'
p3004
tp3005
Rp3006
asS'S000005266'
p3007
(lp3008
g3
(g7
S'q9\xc3@'
p3009
tp3010
Rp3011
asS'S000005303'
p3012
(lp3013
g3
(g7
S'\xc6b\xf0?'
p3014
tp3015
Rp3016
asS'S000003521'
p3017
(lp3018
g3
(g7
S'+\x0b\x9d@'
p3019
tp3020
Rp3021
asS'S000002460'
p3022
(lp3023
g3
(g7
S'eesA'
p3024
tp3025
Rp3026
asS'S000000690'
p3027
(lp3028
g3
(g7
S'\x9b\xec\n@'
p3029
tp3030
Rp3031
asS'S000002464'
p3032
(lp3033
g3
(g7
S'A\xc4\x92?'
p3034
tp3035
Rp3036
asS'S000005118'
p3037
(lp3038
g3
(g7
S'\x15N\x9a?'
p3039
tp3040
Rp3041
asS'S000003632'
p3042
(lp3043
g3
(g7
S'\xdd]\xe2@'
p3044
tp3045
Rp3046
asS'S000003635'
p3047
(lp3048
g3
(g7
S'\x8a\xc4\x84?'
p3049
tp3050
Rp3051
asS'S000028710'
p3052
(lp3053
g3
(g7
S'`\x12\xa4@'
p3054
tp3055
Rp3056
ag3
(g7
S'C,\xa4@'
p3057
tp3058
Rp3059
asS'S000006308'
p3060
(lp3061
g3
(g7
S'\x13J\x94A'
p3062
tp3063
Rp3064
asS'S000028712'
p3065
(lp3066
g3
(g7
S'\x8a\xb4\x1bA'
p3067
tp3068
Rp3069
asS'S000002725'
p3070
(lp3071
g3
(g7
S'+\x0b\x9d@'
p3072
tp3073
Rp3074
asS'S000005114'
p3075
(lp3076
g3
(g7
S'\x83\xa0c>'
p3077
tp3078
Rp3079
asS'S000002310'
p3080
(lp3081
g3
(g7
S'Fd\x17@'
p3082
tp3083
Rp3084
asS'S000001519'
p3085
(lp3086
g3
(g7
S'7+\xb9@'
p3087
tp3088
Rp3089
asS'S000002319'
p3090
(lp3091
g3
(g7
S'oU\x14@'
p3092
tp3093
Rp3094
asS'S000006268'
p3095
(lp3096
g3
(g7
S'SQ\x03A'
p3097
tp3098
Rp3099
asS'S000028688'
p3100
(lp3101
g3
(g7
S'\x93\x12\xde?'
p3102
tp3103
Rp3104
ag3
(g7
S'\xc9\xaf\xc0@'
p3105
tp3106
Rp3107
ag3
(g7
S'z]\xe2@'
p3108
tp3109
Rp3110
ag3
(g7
S'\xe8\xda\xf9@'
p3111
tp3112
Rp3113
asS'S000000737'
p3114
(lp3115
g3
(g7
S'-\xfe_A'
p3116
tp3117
Rp3118
asS'S000000040'
p3119
(lp3120
g3
(g7
S' {K@'
p3121
tp3122
Rp3123
asS'S000000327'
p3124
(lp3125
g3
(g7
S'b\xad@A'
p3126
tp3127
Rp3128
asS'S000001688'
p3129
(lp3130
g3
(g7
S'\x8a\x03\x19A'
p3131
tp3132
Rp3133
asS'S000000325'
p3134
(lp3135
g3
(g7
S'\xd2\xd4XA'
p3136
tp3137
Rp3138
asS'S000000328'
p3139
(lp3140
g3
(g7
S'\xefT,A'
p3141
tp3142
Rp3143
asS'S000002799'
p3144
(lp3145
g3
(g7
S'\xa6\x9a\x1a?'
p3146
tp3147
Rp3148
asS'S000004143'
p3149
(lp3150
g3
(g7
S'\r6\x0eA'
p3151
tp3152
Rp3153
asS'S000004140'
p3154
(lp3155
g3
(g7
S'z\xa1\x96A'
p3156
tp3157
Rp3158
asS'S000005160'
p3159
(lp3160
g3
(g7
S'\xa2Y\x04A'
p3161
tp3162
Rp3163
asS'S000004745'
p3164
(lp3165
g3
(g7
S'\tH\xa1@'
p3166
tp3167
Rp3168
asS'S000004294'
p3169
(lp3170
g3
(g7
S'\xa5R\x03A'
p3171
tp3172
Rp3173
asS'S000004747'
p3174
(lp3175
g3
(g7
S'\tH\xa1@'
p3176
tp3177
Rp3178
asS'S000003524'
p3179
(lp3180
g3
(g7
S'+\x0b\x9d@'
p3181
tp3182
Rp3183
asS'S000003136'
p3184
(lp3185
g3
(g7
S'02X@'
p3186
tp3187
Rp3188
asS'S000004269'
p3189
(lp3190
g3
(g7
S'\xad2\xf4?'
p3191
tp3192
Rp3193
asS'S000000130'
p3194
(lp3195
g3
(g7
S'\x82\xf1\x01@'
p3196
tp3197
Rp3198
asS'S000005848'
p3199
(lp3200
g3
(g7
S'\xc9\xaf\xc0@'
p3201
tp3202
Rp3203
asS'S000005847'
p3204
(lp3205
g3
(g7
S'\xc9\xaf\xc0@'
p3206
tp3207
Rp3208
asS'S000000036'
p3209
(lp3210
g3
(g7
S'\x8b\x8d;@'
p3211
tp3212
Rp3213
ag3
(g7
S'f\x0cZA'
p3214
tp3215
Rp3216
asS'S000000037'
p3217
(lp3218
g3
(g7
S'\xdf/\x9dA'
p3219
tp3220
Rp3221
asS'S000004513'
p3222
(lp3223
g3
(g7
S'2\xd83@'
p3224
tp3225
Rp3226
asS'S000006096'
p3227
(lp3228
g3
(g7
S'\xd2\x13\xbf@'
p3229
tp3230
Rp3231
asS'S000002970'
p3232
(lp3233
g3
(g7
S'\xfc\x1d\x8f@'
p3234
tp3235
Rp3236
asS'S000002977'
p3237
(lp3238
g3
(g7
S'\xa1\xf1\x9e@'
p3239
tp3240
Rp3241
asS'S000001747'
p3242
(lp3243
g3
(g7
S'b\xe1RA'
p3244
tp3245
Rp3246
asS'S000001745'
p3247
(lp3248
g3
(g7
S'\nE\xfd@'
p3249
tp3250
Rp3251
asS'S000004512'
p3252
(lp3253
g3
(g7
S'2\xd83@'
p3254
tp3255
Rp3256
asS'S000000429'
p3257
(lp3258
g3
(g7
S'\xefT,A'
p3259
tp3260
Rp3261
asS'S000004518'
p3262
(lp3263
g3
(g7
S'9\x88wA'
p3264
tp3265
Rp3266
asS'S000001422'
p3267
(lp3268
g3
(g7
S'_\xd8\x8eA'
p3269
tp3270
Rp3271
ag3
(g7
S'\xdf/\x9dA'
p3272
tp3273
Rp3274
asS'S000001421'
p3275
(lp3276
g3
(g7
S'_\xd8\x8eA'
p3277
tp3278
Rp3279
ag3
(g7
S'\xdf/\x9dA'
p3280
tp3281
Rp3282
asS'S000003356'
p3283
(lp3284
g3
(g7
S'\xf6E\x15A'
p3285
tp3286
Rp3287
asS'S000001480'
p3288
(lp3289
g3
(g7
S'\xcc6\xc3@'
p3290
tp3291
Rp3292
asS'S000000927'
p3293
(lp3294
g3
(g7
S'\x97-\xcb@'
p3295
tp3296
Rp3297
asS'S000004864'
p3298
(lp3299
g3
(g7
S'(a\x95@'
p3300
tp3301
Rp3302
ag3
(g7
S'6\xc4\x87A'
p3303
tp3304
Rp3305
asS'S000006649'
p3306
(lp3307
g3
(g7
S'\xc6/\x91A'
p3308
tp3309
Rp3310
asS'S000006641'
p3311
(lp3312
g3
(g7
S'N\xac2A'
p3313
tp3314
Rp3315
asS'S000003891'
p3316
(lp3317
g3
(g7
S'_\xd8\x8eA'
p3318
tp3319
Rp3320
asS'S000003892'
p3321
(lp3322
g3
(g7
S'_\xd8\x8eA'
p3323
tp3324
Rp3325
asS'S000006523'
p3326
(lp3327
g3
(g7
S'\xcc\xa9c@'
p3328
tp3329
Rp3330
asS'S000006520'
p3331
(lp3332
g3
(g7
S'\xc6/\x91A'
p3333
tp3334
Rp3335
asS'S000006521'
p3336
(lp3337
g3
(g7
S'\xc6/\x91A'
p3338
tp3339
Rp3340
asS'S000004195'
p3341
(lp3342
g3
(g7
S'\x03$\xb2@'
p3343
tp3344
Rp3345
ag3
(g7
S'\x16\xedaA'
p3346
tp3347
Rp3348
asS'S000005507'
p3349
(lp3350
g3
(g7
S'\x99\xaa\xfb?'
p3351
tp3352
Rp3353
asS'S000004196'
p3354
(lp3355
g3
(g7
S'\x03$\xb2@'
p3356
tp3357
Rp3358
ag3
(g7
S'\x16\xedaA'
p3359
tp3360
Rp3361
asS'S000006529'
p3362
(lp3363
g3
(g7
S'\xc8\xacLA'
p3364
tp3365
Rp3366
asS'S000004463'
p3367
(lp3368
g3
(g7
S',\xd8$A'
p3369
tp3370
Rp3371
asS'S000004462'
p3372
(lp3373
g3
(g7
S',\xd8$A'
p3374
tp3375
Rp3376
asS'S000002453'
p3377
(lp3378
g3
(g7
S'\x13J\x94A'
p3379
tp3380
Rp3381
asS'S000002863'
p3382
(lp3383
g3
(g7
S'\xba\xf8jA'
p3384
tp3385
Rp3386
asS'S000005331'
p3387
(lp3388
g3
(g7
S'\x03\xd5\x97@'
p3389
tp3390
Rp3391
asS'S000000393'
p3392
(lp3393
g3
(g7
S'\xfa\xfdGA'
p3394
tp3395
Rp3396
asS'S000002454'
p3397
(lp3398
g3
(g7
S'\x13J\x94A'
p3399
tp3400
Rp3401
asS'S000000259'
p3402
(lp3403
g3
(g7
S'`\x12\xa4@'
p3404
tp3405
Rp3406
asS'S000000256'
p3407
(lp3408
g3
(g7
S'\xd4uE@'
p3409
tp3410
Rp3411
asS'S000001630'
p3412
(lp3413
g3
(g7
S'\x05o\xdb@'
p3414
tp3415
Rp3416
asS'S000001732'
p3417
(lp3418
g3
(g7
S'n\xb2\x05A'
p3419
tp3420
Rp3421
asS'S000000550'
p3422
(lp3423
g3
(g7
S'\xaf4\x7f@'
p3424
tp3425
Rp3426
asS'S000001326'
p3427
(lp3428
g3
(g7
S'\x97-\xcb@'
p3429
tp3430
Rp3431
asS'S000001583'
p3432
(lp3433
g3
(g7
S'\nE\xfd@'
p3434
tp3435
Rp3436
asS'S000007604'
p3437
(lp3438
g3
(g7
S'\xad2\xf4?'
p3439
tp3440
Rp3441
asS'S000001328'
p3442
(lp3443
g3
(g7
S'\x97-\xcb@'
p3444
tp3445
Rp3446
asS'S000006735'
p3447
(lp3448
g3
(g7
S'\xc5\x8c;@'
p3449
tp3450
Rp3451
asS'S000004482'
p3452
(lp3453
g3
(g7
S'g\xc2_@'
p3454
tp3455
Rp3456
asS'S000004998'
p3457
(lp3458
g3
(g7
S'\xb4]\x89@'
p3459
tp3460
Rp3461
asS'S000005431'
p3462
(lp3463
g3
(g7
S'\x12h\rA'
p3464
tp3465
Rp3466
asS'S000004129'
p3467
(lp3468
g3
(g7
S'm\x88\x92@'
p3469
tp3470
Rp3471
ag3
(g7
S'\x0e"\x03A'
p3472
tp3473
Rp3474
asS'S000005433'
p3475
(lp3476
g3
(g7
S'P\xbf\x0bA'
p3477
tp3478
Rp3479
asS'S000004682'
p3480
(lp3481
g3
(g7
S'~P\xd2?'
p3482
tp3483
Rp3484
asS'S000000959'
p3485
(lp3486
g3
(g7
S'\r\xf9\xd1@'
p3487
tp3488
Rp3489
asS'S000004689'
p3490
(lp3491
g3
(g7
S'MJ\xd7?'
p3492
tp3493
Rp3494
asS'S000000954'
p3495
(lp3496
g3
(g7
S'w@~?'
p3497
tp3498
Rp3499
asS'S000005025'
p3500
(lp3501
g3
(g7
S'\xc6b\xf0?'
p3502
tp3503
Rp3504
asS'S000003820'
p3505
(lp3506
g3
(g7
S't\x97\xfc@'
p3507
tp3508
Rp3509
asS'S000005023'
p3510
(lp3511
g3
(g7
S'\xd15\x81A'
p3512
tp3513
Rp3514
asS'S000005348'
p3515
(lp3516
g3
(g7
S'\xed\x0c\x16@'
p3517
tp3518
Rp3519
asS'S000005153'
p3520
(lp3521
g3
(g7
S'$\xe2\x0fA'
p3522
tp3523
Rp3524
asS'S000002357'
p3525
(lp3526
g3
(g7
S'\xa1`\x1b?'
p3527
tp3528
Rp3529
ag3
(g7
S'\xcc6\xc3@'
p3530
tp3531
Rp3532
asS'S000002603'
p3533
(lp3534
g3
(g7
S'\x08F\xb0@'
p3535
tp3536
Rp3537
asS'S000006220'
p3538
(lp3539
g3
(g7
S'6\xd4\xdf@'
p3540
tp3541
Rp3542
asS'S000002601'
p3543
(lp3544
g3
(g7
S'\x98/\xbc@'
p3545
tp3546
Rp3547
asS'S000001884'
p3548
(lp3549
g3
(g7
S'\x8c\x03\x8c@'
p3550
tp3551
Rp3552
asS'S000005931'
p3553
(lp3554
g3
(g7
S'\xc9\xaf\xc0@'
p3555
tp3556
Rp3557
asS'S000002212'
p3558
(lp3559
g3
(g7
S'u\xd5!A'
p3560
tp3561
Rp3562
asS'S000002213'
p3563
(lp3564
g3
(g7
S'\x15N\x9a?'
p3565
tp3566
Rp3567
asS'S000006324'
p3568
(lp3569
g3
(g7
S'\xc8\xacLA'
p3570
tp3571
Rp3572
ag3
(g7
S'\x98]UA'
p3573
tp3574
Rp3575
ag3
(g7
S'3\x14xA'
p3576
tp3577
Rp3578
asS'S000003124'
p3579
(lp3580
g3
(g7
S'02X@'
p3581
tp3582
Rp3583
asS'S000002800'
p3584
(lp3585
g3
(g7
S'\xa6\x9a\x1a?'
p3586
tp3587
Rp3588
asS'S000002803'
p3589
(lp3590
g3
(g7
S'\xce\xe8\xa6@'
p3591
tp3592
Rp3593
asS'S000006279'
p3594
(lp3595
g3
(g7
S'\xb9\xe0\x00?'
p3596
tp3597
Rp3598
asS'S000002804'
p3599
(lp3600
g3
(g7
S'\x90\xd3\x18>'
p3601
tp3602
Rp3603
asS'S000004002'
p3604
(lp3605
g3
(g7
S'"\xdcuA'
p3606
tp3607
Rp3608
asS'S000005678'
p3609
(lp3610
g3
(g7
S'4b\x86A'
p3611
tp3612
Rp3613
asS'S000002694'
p3614
(lp3615
g3
(g7
S'U\xd1(A'
p3616
tp3617
Rp3618
asS'S000002695'
p3619
(lp3620
g3
(g7
S'U\xd1(A'
p3621
tp3622
Rp3623
asS'S000000424'
p3624
(lp3625
g3
(g7
S'\x84y\x95@'
p3626
tp3627
Rp3628
asS'S000005233'
p3629
(lp3630
g3
(g7
S'\x11\xee@A'
p3631
tp3632
Rp3633
asS'S000000964'
p3634
(lp3635
g3
(g7
S'\x83\xc1\xe0@'
p3636
tp3637
Rp3638
asS'S000005230'
p3639
(lp3640
g3
(g7
S'\x80P\x06?'
p3641
tp3642
Rp3643
asS'S000002517'
p3644
(lp3645
g3
(g7
S'?\x1f\xf2@'
p3646
tp3647
Rp3648
ag3
(g7
S'<a\nA'
p3649
tp3650
Rp3651
asS'S000003075'
p3652
(lp3653
g3
(g7
S'<z6@'
p3654
tp3655
Rp3656
asS'S000003074'
p3657
(lp3658
g3
(g7
S'<z6@'
p3659
tp3660
Rp3661
asS'S000003073'
p3662
(lp3663
g3
(g7
S'<z6@'
p3664
tp3665
Rp3666
asS'S000005402'
p3667
(lp3668
g3
(g7
S'\x15N\x9a?'
p3669
tp3670
Rp3671
ag3
(g7
S'\x03\xd5\x97@'
p3672
tp3673
Rp3674
asS'S000006591'
p3675
(lp3676
g3
(g7
S'\x9c\xba2@'
p3677
tp3678
Rp3679
asS'S000006677'
p3680
(lp3681
g3
(g7
S'\xc6/\x91A'
p3682
tp3683
Rp3684
asS'S000004100'
p3685
(lp3686
g3
(g7
S'\xacT\x10A'
p3687
tp3688
Rp3689
asS'S000005403'
p3690
(lp3691
g3
(g7
S'\x15N\x9a?'
p3692
tp3693
Rp3694
asS'S000006599'
p3695
(lp3696
g3
(g7
S'\xc6/\x91A'
p3697
tp3698
Rp3699
asS'S000003271'
p3700
(lp3701
g3
(g7
S'\xc6/\x91A'
p3702
tp3703
Rp3704
asS'S000003270'
p3705
(lp3706
g3
(g7
S'\x88RQ?'
p3707
tp3708
Rp3709
asS'S000006355'
p3710
(lp3711
g3
(g7
S'~P\xd2?'
p3712
tp3713
Rp3714
ag3
(g7
S'~P\xd2?'
p3715
tp3716
Rp3717
ag3
(g7
S'\xc6b\xf0?'
p3718
tp3719
Rp3720
asS'S000000178'
p3721
(lp3722
g3
(g7
S'J\xd4R?'
p3723
tp3724
Rp3725
asS'S000006359'
p3726
(lp3727
g3
(g7
S'\xddU\t@'
p3728
tp3729
Rp3730
asS'S000002670'
p3731
(lp3732
g3
(g7
S'\xc6/\x91A'
p3733
tp3734
Rp3735
asS'S000002677'
p3736
(lp3737
g3
(g7
S'\x80P\x06?'
p3738
tp3739
Rp3740
asS'S000000171'
p3741
(lp3742
g3
(g7
S'x\xd8\x9aA'
p3743
tp3744
Rp3745
asS'S000002280'
p3746
(lp3747
g3
(g7
S'S\xd2(@'
p3748
tp3749
Rp3750
asS'S000004223'
p3751
(lp3752
g3
(g7
S'3\x0e\x82@'
p3753
tp3754
Rp3755
asS'S000002289'
p3756
(lp3757
g3
(g7
S'$+\x1f@'
p3758
tp3759
Rp3760
asS'S000002993'
p3761
(lp3762
g3
(g7
S'\\\xa9|?'
p3763
tp3764
Rp3765
asS'S000005911'
p3766
(lp3767
g3
(g7
S'0\x90WA'
p3768
tp3769
Rp3770
ag3
(g7
S'0\x90WA'
p3771
tp3772
Rp3773
asS'S000028587'
p3774
(lp3775
g3
(g7
S'U\xd1(A'
p3776
tp3777
Rp3778
asS'S000003675'
p3779
(lp3780
g3
(g7
S'\xbcT\x14A'
p3781
tp3782
Rp3783
asS'S000002938'
p3784
(lp3785
g3
(g7
S'w\xb9:A'
p3786
tp3787
Rp3788
asS'S000003673'
p3789
(lp3790
g3
(g7
S'.\xad(A'
p3791
tp3792
Rp3793
asS'S000003394'
p3794
(lp3795
g3
(g7
S'\x98]UA'
p3796
tp3797
Rp3798
asS'S000004936'
p3799
(lp3800
g3
(g7
S'\xde\xd3\x83A'
p3801
tp3802
Rp3803
asS'S000004797'
p3804
(lp3805
g3
(g7
S'\xcc\r\xfa@'
p3806
tp3807
Rp3808
asS'S000004796'
p3809
(lp3810
g3
(g7
S'\xc9\xaf\xc0@'
p3811
tp3812
Rp3813
ag3
(g7
S'\xbd\x031A'
p3814
tp3815
Rp3816
asS'S000003398'
p3817
(lp3818
g3
(g7
S'\xa1\n\x8b@'
p3819
tp3820
Rp3821
asS'S000006686'
p3822
(lp3823
g3
(g7
S'\xc6/\x91A'
p3824
tp3825
Rp3826
asS'S000006684'
p3827
(lp3828
g3
(g7
S'\xc6/\x91A'
p3829
tp3830
Rp3831
asS'S000003415'
p3832
(lp3833
g3
(g7
S'h\xedj@'
p3834
tp3835
Rp3836
asS'S000003000'
p3837
(lp3838
g3
(g7
S'\x90\xd3\x18>'
p3839
tp3840
Rp3841
asS'S000003416'
p3842
(lp3843
g3
(g7
S'\xfek\xf6@'
p3844
tp3845
Rp3846
asS'S000003411'
p3847
(lp3848
g3
(g7
S',\x1c\x84@'
p3849
tp3850
Rp3851
ag3
(g7
S'=O\xa8@'
p3852
tp3853
Rp3854
asS'S000006170'
p3855
(lp3856
g3
(g7
S'\xdf\x9cEA'
p3857
tp3858
Rp3859
asS'S000003413'
p3860
(lp3861
g3
(g7
S'N\xac2A'
p3862
tp3863
Rp3864
asS'S000028828'
p3865
(lp3866
g3
(g7
S'0-\x9b@'
p3867
tp3868
Rp3869
asS'S000006076'
p3870
(lp3871
g3
(g7
S'\xcb\xdf\xdb?'
p3872
tp3873
Rp3874
asS'S000006179'
p3875
(lp3876
g3
(g7
S'n\xb2\x05A'
p3877
tp3878
Rp3879
asS'S000001144'
p3880
(lp3881
g3
(g7
S'e`\xa1@'
p3882
tp3883
Rp3884
asS'S000003994'
p3885
(lp3886
g3
(g7
S'\xbcT\x14A'
p3887
tp3888
Rp3889
asS'S000003995'
p3890
(lp3891
g3
(g7
S'\xbcT\x14A'
p3892
tp3893
Rp3894
asS'S000003210'
p3895
(lp3896
g3
(g7
S'<H^@'
p3897
tp3898
Rp3899
asS'S000004429'
p3900
(lp3901
g3
(g7
S'i\xd0\\A'
p3902
tp3903
Rp3904
asS'S000004707'
p3905
(lp3906
g3
(g7
S'<z6@'
p3907
tp3908
Rp3909
asS'S000005071'
p3910
(lp3911
g3
(g7
S'\x0b\xf5b@'
p3912
tp3913
Rp3914
asS'S000000926'
p3915
(lp3916
g3
(g7
S'\x97-\xcb@'
p3917
tp3918
Rp3919
asS'S000004079'
p3920
(lp3921
g3
(g7
S'\xdd\xb8,A'
p3922
tp3923
Rp3924
asS'S000001414'
p3925
(lp3926
g3
(g7
S'\x11TZ?'
p3927
tp3928
Rp3929
asS'S000000516'
p3930
(lp3931
g3
(g7
S"W\xe2'A"
p3932
tp3933
Rp3934
asS'S000000928'
p3935
(lp3936
g3
(g7
S'~P\xd2?'
p3937
tp3938
Rp3939
asS'S000000929'
p3940
(lp3941
g3
(g7
S'\x80P\x06?'
p3942
tp3943
Rp3944
asS'S000001470'
p3945
(lp3946
g3
(g7
S'h\xedj@'
p3947
tp3948
Rp3949
asS'S000001472'
p3950
(lp3951
g3
(g7
S'h\xedj@'
p3952
tp3953
Rp3954
asS'S000001479'
p3955
(lp3956
g3
(g7
S'\x12c"@'
p3957
tp3958
Rp3959
asS'S000006776'
p3960
(lp3961
g3
(g7
S'\xc6/\x91A'
p3962
tp3963
Rp3964
asS'S000004892'
p3965
(lp3966
g3
(g7
S'<z6@'
p3967
tp3968
Rp3969
asS'S000005508'
p3970
(lp3971
g3
(g7
S'\x96\x903A'
p3972
tp3973
Rp3974
asS'S000006578'
p3975
(lp3976
g3
(g7
S'\x82Mf?'
p3977
tp3978
Rp3979
asS'S000006673'
p3980
(lp3981
g3
(g7
S'\xc6/\x91A'
p3982
tp3983
Rp3984
asS'S000006362'
p3985
(lp3986
g3
(g7
S'\x13J\x94A'
p3987
tp3988
Rp3989
asS'S000001071'
p3990
(lp3991
g3
(g7
S'\x8c\x03\x8c@'
p3992
tp3993
Rp3994
asS'S000006573'
p3995
(lp3996
g3
(g7
S'\xc6/\x91A'
p3997
tp3998
Rp3999
asS'S000006577'
p4000
(lp4001
g3
(g7
S'\xc6/\x91A'
p4002
tp4003
Rp4004
asS'S000003867'
p4005
(lp4006
g3
(g7
S'kg7@'
p4007
tp4008
Rp4009
asS'S000005574'
p4010
(lp4011
g3
(g7
S'i\xccW@'
p4012
tp4013
Rp4014
asS'S000000859'
p4015
(lp4016
g3
(g7
S'\x8c\x03\x8c@'
p4017
tp4018
Rp4019
asS'S000001076'
p4020
(lp4021
g3
(g7
S'^\xc8t@'
p4022
tp4023
Rp4024
asS'S000004003'
p4025
(lp4026
g3
(g7
S'"\xdcuA'
p4027
tp4028
Rp4029
asS'S000001070'
p4030
(lp4031
g3
(g7
S'\xc9\xaf\xc0@'
p4032
tp4033
Rp4034
as.