(dp0
S'S000001591'
p1
(lp2
cnumpy.core.multiarray
scalar
p3
(cnumpy
dtype
p4
(S'f4'
p5
I0
I1
tp6
Rp7
(I3
S'<'
p8
NNNI-1
I-1
I0
tp9
bS'\x00\x00@A'
p10
tp11
Rp12
asS'S000002152'
p13
(lp14
g3
(g7
S'\x00\x00@A'
p15
tp16
Rp17
asS'S000001599'
p18
(lp19
g3
(g7
S'\x00\x00@A'
p20
tp21
Rp22
asS'S000005972'
p23
(lp24
g3
(g7
S'\x00\x00@A'
p25
tp26
Rp27
asS'S000001358'
p28
(lp29
g3
(g7
S'\x00\x00@A'
p30
tp31
Rp32
ag3
(g7
S'\x00\x00@A'
p33
tp34
Rp35
asS'S000001607'
p36
(lp37
g3
(g7
S'\x00\x00@A'
p38
tp39
Rp40
ag3
(g7
S'\x00\x00@A'
p41
tp42
Rp43
asS'S000002482'
p44
(lp45
g3
(g7
S'\x00\x00@A'
p46
tp47
Rp48
ag3
(g7
S'\x00\x00@A'
p49
tp50
Rp51
asS'S000001355'
p52
(lp53
g3
(g7
S'\x00\x00@A'
p54
tp55
Rp56
asS'S000005975'
p57
(lp58
g3
(g7
S'\x00\x00@A'
p59
tp60
Rp61
ag3
(g7
S'\x00\x00@A'
p62
tp63
Rp64
asS'S000002557'
p65
(lp66
g3
(g7
S'\x00\x00@A'
p67
tp68
Rp69
asS'S000002555'
p70
(lp71
g3
(g7
S'\x00\x00@A'
p72
tp73
Rp74
asS'S000001283'
p75
(lp76
g3
(g7
S'\x00\x00@A'
p77
tp78
Rp79
asS'S000004676'
p80
(lp81
g3
(g7
S'\x00\x00@A'
p82
tp83
Rp84
asS'S000005278'
p85
(lp86
g3
(g7
S'\x00\x00@A'
p87
tp88
Rp89
asS'S000005108'
p90
(lp91
g3
(g7
S'\x00\x00@A'
p92
tp93
Rp94
asS'S000003607'
p95
(lp96
g3
(g7
S'\x00\x00@A'
p97
tp98
Rp99
asS'S000003602'
p100
(lp101
g3
(g7
S'\x00\x00@A'
p102
tp103
Rp104
asS'S000002738'
p105
(lp106
g3
(g7
S'\x00\x00@A'
p107
tp108
Rp109
asS'S000002734'
p110
(lp111
g3
(g7
S'\x00\x00@A'
p112
tp113
Rp114
asS'S000002733'
p115
(lp116
g3
(g7
S'\x00\x00@A'
p117
tp118
Rp119
ag3
(g7
S'\x00\x00@A'
p120
tp121
Rp122
asS'S000002731'
p123
(lp124
g3
(g7
S'\x00\x00@A'
p125
tp126
Rp127
asS'S000005298'
p128
(lp129
g3
(g7
S'\x00\x00@A'
p130
tp131
Rp132
asS'S000005291'
p133
(lp134
g3
(g7
S'\x00\x00@A'
p135
tp136
Rp137
asS'S000005290'
p138
(lp139
g3
(g7
S'\x00\x00@A'
p140
tp141
Rp142
asS'S000001916'
p143
(lp144
g3
(g7
S'\x00\x00@A'
p145
tp146
Rp147
asS'S000001911'
p148
(lp149
g3
(g7
S'\x00\x00@A'
p150
tp151
Rp152
asS'S000003733'
p153
(lp154
g3
(g7
S'\x00\x00@A'
p155
tp156
Rp157
ag3
(g7
S'\x00\x00@A'
p158
tp159
Rp160
asS'S000003737'
p161
(lp162
g3
(g7
S'\x00\x00@A'
p163
tp164
Rp165
ag3
(g7
S'\x00\x00@A'
p166
tp167
Rp168
asS'S000003738'
p169
(lp170
g3
(g7
S'\x00\x00@A'
p171
tp172
Rp173
asS'S000001606'
p174
(lp175
g3
(g7
S'\x00\x00@A'
p176
tp177
Rp178
ag3
(g7
S'\x00\x00@A'
p179
tp180
Rp181
asS'S000003518'
p182
(lp183
g3
(g7
S'\x00\x00@A'
p184
tp185
Rp186
ag3
(g7
S'\x00\x00@A'
p187
tp188
Rp189
asS'S000006039'
p190
(lp191
g3
(g7
S'\x00\x00@A'
p192
tp193
Rp194
asS'S000003048'
p195
(lp196
g3
(g7
S'\x00\x00@A'
p197
tp198
Rp199
ag3
(g7
S'\x00\x00@A'
p200
tp201
Rp202
asS'S000003046'
p203
(lp204
g3
(g7
S'\x00\x00@A'
p205
tp206
Rp207
asS'S000003043'
p208
(lp209
g3
(g7
S'\x00\x00@A'
p210
tp211
Rp212
asS'S000006036'
p213
(lp214
g3
(g7
S'\x00\x00@A'
p215
tp216
Rp217
asS'S000003517'
p218
(lp219
g3
(g7
S'\x00\x00@A'
p220
tp221
Rp222
asS'S000003289'
p223
(lp224
g3
(g7
S'\x00\x00@A'
p225
tp226
Rp227
ag3
(g7
S'\x00\x00@A'
p228
tp229
Rp230
asS'S000003287'
p231
(lp232
g3
(g7
S'\x00\x00@A'
p233
tp234
Rp235
ag3
(g7
S'\x00\x00@A'
p236
tp237
Rp238
ag3
(g7
S'\x00\x00@A'
p239
tp240
Rp241
ag3
(g7
S'\x00\x00@A'
p242
tp243
Rp244
asS'S000005857'
p245
(lp246
g3
(g7
S'\x00\x00@A'
p247
tp248
Rp249
asS'S000005859'
p250
(lp251
g3
(g7
S'\x00\x00@A'
p252
tp253
Rp254
asS'S000005858'
p255
(lp256
g3
(g7
S'\x00\x00@A'
p257
tp258
Rp259
asS'S000001827'
p260
(lp261
g3
(g7
S'\x00\x00@A'
p262
tp263
Rp264
asS'S000000413'
p265
(lp266
g3
(g7
S'\x00\x00@A'
p267
tp268
Rp269
asS'S000000415'
p270
(lp271
g3
(g7
S'\x00\x00@A'
p272
tp273
Rp274
asS'S000006109'
p275
(lp276
g3
(g7
S'\x00\x00@A'
p277
tp278
Rp279
ag3
(g7
S'\x00\x00@A'
p280
tp281
Rp282
asS'S000006104'
p283
(lp284
g3
(g7
S'\x00\x00@A'
p285
tp286
Rp287
asS'S000003465'
p288
(lp289
g3
(g7
S'\x00\x00@A'
p290
tp291
Rp292
asS'S000003466'
p293
(lp294
g3
(g7
S'\x00\x00@A'
p295
tp296
Rp297
asS'S000006107'
p298
(lp299
g3
(g7
S'\x00\x00@A'
p300
tp301
Rp302
asS'S000006100'
p303
(lp304
g3
(g7
S'\x00\x00@A'
p305
tp306
Rp307
asS'S000006103'
p308
(lp309
g3
(g7
S'\x00\x00@A'
p310
tp311
Rp312
asS'S000003198'
p313
(lp314
g3
(g7
S'\x00\x00@A'
p315
tp316
Rp317
asS'S000003194'
p318
(lp319
g3
(g7
S'\x00\x00@A'
p320
tp321
Rp322
asS'S000000491'
p323
(lp324
g3
(g7
S'\x00\x00@A'
p325
tp326
Rp327
asS'S000003190'
p328
(lp329
g3
(g7
S'\x00\x00@A'
p330
tp331
Rp332
asS'S000007618'
p333
(lp334
g3
(g7
S'\x00\x00@A'
p335
tp336
Rp337
asS'S000000569'
p338
(lp339
g3
(g7
S'\x00\x00@A'
p340
tp341
Rp342
asS'S000006741'
p343
(lp344
g3
(g7
S'\x00\x00@A'
p345
tp346
Rp347
ag3
(g7
S'\x00\x00@A'
p348
tp349
Rp350
asS'S000006749'
p351
(lp352
g3
(g7
S'\x00\x00@A'
p353
tp354
Rp355
asS'S000000963'
p356
(lp357
g3
(g7
S'\x00\x00@A'
p358
tp359
Rp360
ag3
(g7
S'\x00\x00@A'
p361
tp362
Rp363
asS'S000000969'
p364
(lp365
g3
(g7
S'\x00\x00@A'
p366
tp367
Rp368
asS'S000000740'
p369
(lp370
g3
(g7
S'\x00\x00@A'
p371
tp372
Rp373
asS'S000000743'
p374
(lp375
g3
(g7
S'\x00\x00@A'
p376
tp377
Rp378
asS'S000000747'
p379
(lp380
g3
(g7
S'\x00\x00@A'
p381
tp382
Rp383
asS'S000000983'
p384
(lp385
g3
(g7
S'\x00\x00@A'
p386
tp387
Rp388
asS'S000000980'
p389
(lp390
g3
(g7
S'\x00\x00@A'
p391
tp392
Rp393
asS'S000000984'
p394
(lp395
g3
(g7
S'\x00\x00@A'
p396
tp397
Rp398
asS'S000002838'
p399
(lp400
g3
(g7
S'\x00\x00@A'
p401
tp402
Rp403
ag3
(g7
S'\x00\x00@A'
p404
tp405
Rp406
ag3
(g7
S'\x00\x00@A'
p407
tp408
Rp409
ag3
(g7
S'\x00\x00@A'
p410
tp411
Rp412
asS'S000002839'
p413
(lp414
g3
(g7
S'\x00\x00@A'
p415
tp416
Rp417
asS'S000004675'
p418
(lp419
g3
(g7
S'\x00\x00@A'
p420
tp421
Rp422
ag3
(g7
S'\x00\x00@A'
p423
tp424
Rp425
asS'S000000014'
p426
(lp427
g3
(g7
S'\x00\x00@A'
p428
tp429
Rp430
asS'S000006760'
p431
(lp432
g3
(g7
S'\x00\x00@A'
p433
tp434
Rp435
ag3
(g7
S'\x00\x00@A'
p436
tp437
Rp438
ag3
(g7
S'\x00\x00@A'
p439
tp440
Rp441
asS'S000000180'
p442
(lp443
g3
(g7
S'\x00\x00@A'
p444
tp445
Rp446
asS'S000004203'
p447
(lp448
g3
(g7
S'\x00\x00@A'
p449
tp450
Rp451
asS'S000028645'
p452
(lp453
g3
(g7
S'\x00\x00@A'
p454
tp455
Rp456
asS'S000002901'
p457
(lp458
g3
(g7
S'\x00\x00@A'
p459
tp460
Rp461
asS'S000002902'
p462
(lp463
g3
(g7
S'\x00\x00@A'
p464
tp465
Rp466
asS'S000003603'
p467
(lp468
g3
(g7
S'\x00\x00@A'
p469
tp470
Rp471
asS'S000002904'
p472
(lp473
g3
(g7
S'\x00\x00@A'
p474
tp475
Rp476
asS'S000002905'
p477
(lp478
g3
(g7
S'\x00\x00@A'
p479
tp480
Rp481
asS'S000000342'
p482
(lp483
g3
(g7
S'\x00\x00@A'
p484
tp485
Rp486
ag3
(g7
S'\x00\x00@A'
p487
tp488
Rp489
asS'S000003235'
p490
(lp491
g3
(g7
S'\x00\x00@A'
p492
tp493
Rp494
asS'S000002950'
p495
(lp496
g3
(g7
S'\x00\x00@A'
p497
tp498
Rp499
asS'S000006314'
p500
(lp501
g3
(g7
S'\x00\x00@A'
p502
tp503
Rp504
asS'S000006311'
p505
(lp506
g3
(g7
S'\x00\x00@A'
p507
tp508
Rp509
asS'S000003413'
p510
(lp511
g3
(g7
S'\x00\x00@A'
p512
tp513
Rp514
asS'S000003982'
p515
(lp516
g3
(g7
S'\x00\x00@A'
p517
tp518
Rp519
asS'S000003981'
p520
(lp521
g3
(g7
S'\x00\x00@A'
p522
tp523
Rp524
asS'S000003980'
p525
(lp526
g3
(g7
S'\x00\x00@A'
p527
tp528
Rp529
asS'S000003986'
p530
(lp531
g3
(g7
S'\x00\x00@A'
p532
tp533
Rp534
asS'S000003985'
p535
(lp536
g3
(g7
S'\x00\x00@A'
p537
tp538
Rp539
ag3
(g7
S'\x00\x00@A'
p540
tp541
Rp542
asS'S000003984'
p543
(lp544
g3
(g7
S'\x00\x00@A'
p545
tp546
Rp547
ag3
(g7
S'\x00\x00@A'
p548
tp549
Rp550
asS'S000004084'
p551
(lp552
g3
(g7
S'\x00\x00@A'
p553
tp554
Rp555
ag3
(g7
S'\x00\x00@A'
p556
tp557
Rp558
asS'S000004082'
p559
(lp560
g3
(g7
S'\x00\x00@A'
p561
tp562
Rp563
ag3
(g7
S'\x00\x00@A'
p564
tp565
Rp566
ag3
(g7
S'\x00\x00@A'
p567
tp568
Rp569
asS'S000004080'
p570
(lp571
g3
(g7
S'\x00\x00@A'
p572
tp573
Rp574
asS'S000004089'
p575
(lp576
g3
(g7
S'\x00\x00@A'
p577
tp578
Rp579
asS'S000004088'
p580
(lp581
g3
(g7
S'\x00\x00@A'
p582
tp583
Rp584
asS'S000004243'
p585
(lp586
g3
(g7
S'\x00\x00@A'
p587
tp588
Rp589
asS'S000004714'
p590
(lp591
g3
(g7
S'\x00\x00@A'
p592
tp593
Rp594
asS'S000004244'
p595
(lp596
g3
(g7
S'\x00\x00@A'
p597
tp598
Rp599
asS'S000004711'
p600
(lp601
g3
(g7
S'\x00\x00@A'
p602
tp603
Rp604
asS'S000004246'
p605
(lp606
g3
(g7
S'\x00\x00@A'
p607
tp608
Rp609
asS'S000004248'
p610
(lp611
g3
(g7
S'\x00\x00@A'
p612
tp613
Rp614
asS'S000005597'
p615
(lp616
g3
(g7
S'\x00\x00@A'
p617
tp618
Rp619
asS'S000005594'
p620
(lp621
g3
(g7
S'\x00\x00@A'
p622
tp623
Rp624
asS'S000005595'
p625
(lp626
g3
(g7
S'\x00\x00@A'
p627
tp628
Rp629
ag3
(g7
S'\x00\x00@A'
p630
tp631
Rp632
asS'S000005593'
p633
(lp634
g3
(g7
S'\x00\x00@A'
p635
tp636
Rp637
asS'S000005043'
p638
(lp639
g3
(g7
S'\x00\x00@A'
p640
tp641
Rp642
asS'S000004061'
p643
(lp644
g3
(g7
S'\x00\x00@A'
p645
tp646
Rp647
asS'S000001761'
p648
(lp649
g3
(g7
S'\x00\x00@A'
p650
tp651
Rp652
asS'S000001402'
p653
(lp654
g3
(g7
S'\x00\x00@A'
p655
tp656
Rp657
asS'S000001403'
p658
(lp659
g3
(g7
S'\x00\x00@A'
p660
tp661
Rp662
asS'S000004885'
p663
(lp664
g3
(g7
S'\x00\x00@A'
p665
tp666
Rp667
asS'S000004437'
p668
(lp669
g3
(g7
S'\x00\x00@A'
p670
tp671
Rp672
asS'S000005444'
p673
(lp674
g3
(g7
S'\x00\x00@A'
p675
tp676
Rp677
asS'S000001154'
p678
(lp679
g3
(g7
S'\x00\x00@A'
p680
tp681
Rp682
asS'S000003878'
p683
(lp684
g3
(g7
S'\x00\x00@A'
p685
tp686
Rp687
asS'S000005448'
p688
(lp689
g3
(g7
S'\x00\x00@A'
p690
tp691
Rp692
ag3
(g7
S'\x00\x00@A'
p693
tp694
Rp695
asS'S000004927'
p696
(lp697
g3
(g7
S'\x00\x00@A'
p698
tp699
Rp700
asS'S000003873'
p701
(lp702
g3
(g7
S'\x00\x00@A'
p703
tp704
Rp705
asS'S000004408'
p706
(lp707
g3
(g7
S'\x00\x00@A'
p708
tp709
Rp710
ag3
(g7
S'\x00\x00@A'
p711
tp712
Rp713
asS'S000001160'
p714
(lp715
g3
(g7
S'\x00\x00@A'
p716
tp717
Rp718
asS'S000004407'
p719
(lp720
g3
(g7
S'\x00\x00@A'
p721
tp722
Rp723
asS'S000004438'
p724
(lp725
g3
(g7
S'\x00\x00@A'
p726
tp727
Rp728
asS'S000001581'
p729
(lp730
g3
(g7
S'\x00\x00@A'
p731
tp732
Rp733
asS'S000001583'
p734
(lp735
g3
(g7
S'\x00\x00@A'
p736
tp737
Rp738
asS'S000001159'
p739
(lp740
g3
(g7
S'\x00\x00@A'
p741
tp742
Rp743
asS'S000002129'
p744
(lp745
g3
(g7
S'\x00\x00@A'
p746
tp747
Rp748
asS'S000001589'
p749
(lp750
g3
(g7
S'\x00\x00@A'
p751
tp752
Rp753
asS'S000002127'
p754
(lp755
g3
(g7
S'\x00\x00@A'
p756
tp757
Rp758
asS'S000001610'
p759
(lp760
g3
(g7
S'\x00\x00@A'
p761
tp762
Rp763
asS'S000001612'
p764
(lp765
g3
(g7
S'\x00\x00@A'
p766
tp767
Rp768
asS'S000001614'
p769
(lp770
g3
(g7
S'\x00\x00@A'
p771
tp772
Rp773
asS'S000001616'
p774
(lp775
g3
(g7
S'\x00\x00@A'
p776
tp777
Rp778
asS'S000001691'
p779
(lp780
g3
(g7
S'\x00\x00@A'
p781
tp782
Rp783
asS'S000001298'
p784
(lp785
g3
(g7
S'\x00\x00@A'
p786
tp787
Rp788
asS'S000004669'
p789
(lp790
g3
(g7
S'\x00\x00@A'
p791
tp792
Rp793
asS'S000004668'
p794
(lp795
g3
(g7
S'\x00\x00@A'
p796
tp797
Rp798
asS'S000001296'
p799
(lp800
g3
(g7
S'\x00\x00@A'
p801
tp802
Rp803
asS'S000004663'
p804
(lp805
g3
(g7
S'\x00\x00@A'
p806
tp807
Rp808
asS'S000004661'
p809
(lp810
g3
(g7
S'\x00\x00@A'
p811
tp812
Rp813
asS'S000028632'
p814
(lp815
g3
(g7
S'\x00\x00@A'
p816
tp817
Rp818
asS'S000005139'
p819
(lp820
g3
(g7
S'\x00\x00@A'
p821
tp822
Rp823
asS'S000006243'
p824
(lp825
g3
(g7
S'\x00\x00@A'
p826
tp827
Rp828
asS'S000005135'
p829
(lp830
g3
(g7
S'\x00\x00@A'
p831
tp832
Rp833
asS'S000006241'
p834
(lp835
g3
(g7
S'\x00\x00@A'
p836
tp837
Rp838
asS'S000005137'
p839
(lp840
g3
(g7
S'\x00\x00@A'
p841
tp842
Rp843
asS'S000006247'
p844
(lp845
g3
(g7
S'\x00\x00@A'
p846
tp847
Rp848
asS'S000006246'
p849
(lp850
g3
(g7
S'\x00\x00@A'
p851
tp852
Rp853
asS'S000005132'
p854
(lp855
g3
(g7
S'\x00\x00@A'
p856
tp857
Rp858
asS'S000006244'
p859
(lp860
g3
(g7
S'\x00\x00@A'
p861
tp862
Rp863
asS'S000001158'
p864
(lp865
g3
(g7
S'\x00\x00@A'
p866
tp867
Rp868
ag3
(g7
S'\x00\x00@A'
p869
tp870
Rp871
asS'S000005910'
p872
(lp873
g3
(g7
S'\x00\x00@A'
p874
tp875
Rp876
asS'S000005911'
p877
(lp878
g3
(g7
S'\x00\x00@A'
p879
tp880
Rp881
asS'S000002236'
p882
(lp883
g3
(g7
S'\x00\x00@A'
p884
tp885
Rp886
asS'S000002234'
p887
(lp888
g3
(g7
S'\x00\x00@A'
p889
tp890
Rp891
asS'S000002239'
p892
(lp893
g3
(g7
S'\x00\x00@A'
p894
tp895
Rp896
ag3
(g7
S'\x00\x00@A'
p897
tp898
Rp899
asS'S000001907'
p900
(lp901
g3
(g7
S'\x00\x00@A'
p902
tp903
Rp904
asS'S000001901'
p905
(lp906
g3
(g7
S'\x00\x00@A'
p907
tp908
Rp909
asS'S000001903'
p910
(lp911
g3
(g7
S'\x00\x00@A'
p912
tp913
Rp914
asS'S000001909'
p915
(lp916
g3
(g7
S'\x00\x00@A'
p917
tp918
Rp919
asS'S000001908'
p920
(lp921
g3
(g7
S'\x00\x00@A'
p922
tp923
Rp924
asS'S000001407'
p925
(lp926
g3
(g7
S'\x00\x00@A'
p927
tp928
Rp929
asS'S000028520'
p930
(lp931
g3
(g7
S'\x00\x00@A'
p932
tp933
Rp934
ag3
(g7
S'\x00\x00@A'
p935
tp936
Rp937
asS'S000003724'
p938
(lp939
g3
(g7
S'\x00\x00@A'
p940
tp941
Rp942
asS'S000028524'
p943
(lp944
g3
(g7
S'\x00\x00@A'
p945
tp946
Rp947
ag3
(g7
S'\x00\x00@A'
p948
tp949
Rp950
ag3
(g7
S'\x00\x00@A'
p951
tp952
Rp953
asS'S000028525'
p954
(lp955
g3
(g7
S'\x00\x00@A'
p956
tp957
Rp958
asS'S000003059'
p959
(lp960
g3
(g7
S'\x00\x00@A'
p961
tp962
Rp963
asS'S000006029'
p964
(lp965
g3
(g7
S'\x00\x00@A'
p966
tp967
Rp968
asS'S000003508'
p969
(lp970
g3
(g7
S'\x00\x00@A'
p971
tp972
Rp973
ag3
(g7
S'\x00\x00@A'
p974
tp975
Rp976
asS'S000003506'
p977
(lp978
g3
(g7
S'\x00\x00@A'
p979
tp980
Rp981
asS'S000003505'
p982
(lp983
g3
(g7
S'\x00\x00@A'
p984
tp985
Rp986
asS'S000006024'
p987
(lp988
g3
(g7
S'\x00\x00@A'
p989
tp990
Rp991
asS'S000006022'
p992
(lp993
g3
(g7
S'\x00\x00@A'
p994
tp995
Rp996
asS'S000003053'
p997
(lp998
g3
(g7
S'\x00\x00@A'
p999
tp1000
Rp1001
asS'S000003500'
p1002
(lp1003
g3
(g7
S'\x00\x00@A'
p1004
tp1005
Rp1006
asS'S000003292'
p1007
(lp1008
g3
(g7
S'\x00\x00@A'
p1009
tp1010
Rp1011
asS'S000003290'
p1012
(lp1013
g3
(g7
S'\x00\x00@A'
p1014
tp1015
Rp1016
asS'S000001839'
p1017
(lp1018
g3
(g7
S'\x00\x00@A'
p1019
tp1020
Rp1021
asS'S000001834'
p1022
(lp1023
g3
(g7
S'\x00\x00@A'
p1024
tp1025
Rp1026
asS'S000005828'
p1027
(lp1028
g3
(g7
S'\x00\x00@A'
p1029
tp1030
Rp1031
ag3
(g7
S'\x00\x00@A'
p1032
tp1033
Rp1034
asS'S000005829'
p1035
(lp1036
g3
(g7
S'\x00\x00@A'
p1037
tp1038
Rp1039
ag3
(g7
S'\x00\x00@A'
p1040
tp1041
Rp1042
asS'S000000601'
p1043
(lp1044
g3
(g7
S'\x00\x00@A'
p1045
tp1046
Rp1047
asS'S000003610'
p1048
(lp1049
g3
(g7
S'\x00\x00@A'
p1050
tp1051
Rp1052
asS'S000003617'
p1053
(lp1054
g3
(g7
S'\x00\x00@A'
p1055
tp1056
Rp1057
asS'S000003616'
p1058
(lp1059
g3
(g7
S'\x00\x00@A'
p1060
tp1061
Rp1062
asS'S000000600'
p1063
(lp1064
g3
(g7
S'\x00\x00@A'
p1065
tp1066
Rp1067
asS'S000000407'
p1068
(lp1069
g3
(g7
S'\x00\x00@A'
p1070
tp1071
Rp1072
ag3
(g7
S'\x00\x00@A'
p1073
tp1074
Rp1075
asS'S000000403'
p1076
(lp1077
g3
(g7
S'\x00\x00@A'
p1078
tp1079
Rp1080
asS'S000003519'
p1081
(lp1082
g3
(g7
S'\x00\x00@A'
p1083
tp1084
Rp1085
asS'S000004820'
p1086
(lp1087
g3
(g7
S'\x00\x00@A'
p1088
tp1089
Rp1090
asS'S000003470'
p1091
(lp1092
g3
(g7
S'\x00\x00@A'
p1093
tp1094
Rp1095
asS'S000003477'
p1096
(lp1097
g3
(g7
S'\x00\x00@A'
p1098
tp1099
Rp1100
ag3
(g7
S'\x00\x00@A'
p1101
tp1102
Rp1103
asS'S000006114'
p1104
(lp1105
g3
(g7
S'\x00\x00@A'
p1106
tp1107
Rp1108
asS'S000003479'
p1109
(lp1110
g3
(g7
S'\x00\x00@A'
p1111
tp1112
Rp1113
asS'S000003478'
p1114
(lp1115
g3
(g7
S'\x00\x00@A'
p1116
tp1117
Rp1118
asS'S000003180'
p1119
(lp1120
g3
(g7
S'\x00\x00@A'
p1121
tp1122
Rp1123
ag3
(g7
S'\x00\x00@A'
p1124
tp1125
Rp1126
ag3
(g7
S'\x00\x00@A'
p1127
tp1128
Rp1129
asS'S000003184'
p1130
(lp1131
g3
(g7
S'\x00\x00@A'
p1132
tp1133
Rp1134
asS'S000003188'
p1135
(lp1136
g3
(g7
S'\x00\x00@A'
p1137
tp1138
Rp1139
asS'S000003510'
p1140
(lp1141
g3
(g7
S'\x00\x00@A'
p1142
tp1143
Rp1144
ag3
(g7
S'\x00\x00@A'
p1145
tp1146
Rp1147
asS'S000006756'
p1148
(lp1149
g3
(g7
S'\x00\x00@A'
p1150
tp1151
Rp1152
ag3
(g7
S'\x00\x00@A'
p1153
tp1154
Rp1155
asS'S000006400'
p1156
(lp1157
g3
(g7
S'\x00\x00@A'
p1158
tp1159
Rp1160
asS'S000006402'
p1161
(lp1162
g3
(g7
S'\x00\x00@A'
p1163
tp1164
Rp1165
asS'S000003124'
p1166
(lp1167
g3
(g7
S'\x00\x00@A'
p1168
tp1169
Rp1170
asS'S000002474'
p1171
(lp1172
g3
(g7
S'\x00\x00@A'
p1173
tp1174
Rp1175
asS'S000000757'
p1176
(lp1177
g3
(g7
S'\x00\x00@A'
p1178
tp1179
Rp1180
asS'S000000753'
p1181
(lp1182
g3
(g7
S'\x00\x00@A'
p1183
tp1184
Rp1185
asS'S000000999'
p1186
(lp1187
g3
(g7
S'\x00\x00@A'
p1188
tp1189
Rp1190
asS'S000002822'
p1191
(lp1192
g3
(g7
S'\x00\x00@A'
p1193
tp1194
Rp1195
asS'S000002826'
p1196
(lp1197
g3
(g7
S'\x00\x00@A'
p1198
tp1199
Rp1200
asS'S000000997'
p1201
(lp1202
g3
(g7
S'\x00\x00@A'
p1203
tp1204
Rp1205
asS'S000000996'
p1206
(lp1207
g3
(g7
S'\x00\x00@A'
p1208
tp1209
Rp1210
asS'S000002473'
p1211
(lp1212
g3
(g7
S'\x00\x00@A'
p1213
tp1214
Rp1215
asS'S000001306'
p1216
(lp1217
g3
(g7
S'\x00\x00@A'
p1218
tp1219
Rp1220
ag3
(g7
S'\x00\x00@A'
p1221
tp1222
Rp1223
asS'S000004153'
p1224
(lp1225
g3
(g7
S'\x00\x00@A'
p1226
tp1227
Rp1228
asS'S000004154'
p1229
(lp1230
g3
(g7
S'\x00\x00@A'
p1231
tp1232
Rp1233
asS'S000000195'
p1234
(lp1235
g3
(g7
S'\x00\x00@A'
p1236
tp1237
Rp1238
asS'S000004658'
p1239
(lp1240
g3
(g7
S'\x00\x00@A'
p1241
tp1242
Rp1243
asS'S000000198'
p1244
(lp1245
g3
(g7
S'\x00\x00@A'
p1246
tp1247
Rp1248
asS'S000005673'
p1249
(lp1250
g3
(g7
S'\x00\x00@A'
p1251
tp1252
Rp1253
asS'S000002919'
p1254
(lp1255
g3
(g7
S'\x00\x00@A'
p1256
tp1257
Rp1258
asS'S000002914'
p1259
(lp1260
g3
(g7
S'\x00\x00@A'
p1261
tp1262
Rp1263
asS'S000002913'
p1264
(lp1265
g3
(g7
S'\x00\x00@A'
p1266
tp1267
Rp1268
asS'S000005389'
p1269
(lp1270
g3
(g7
S'\x00\x00@A'
p1271
tp1272
Rp1273
asS'S000002910'
p1274
(lp1275
g3
(g7
S'\x00\x00@A'
p1276
tp1277
Rp1278
asS'S000001750'
p1279
(lp1280
g3
(g7
S'\x00\x00@A'
p1281
tp1282
Rp1283
asS'S000005584'
p1284
(lp1285
g3
(g7
S'\x00\x00@A'
p1286
tp1287
Rp1288
asS'S000001020'
p1289
(lp1290
g3
(g7
S'\x00\x00@A'
p1291
tp1292
Rp1293
ag3
(g7
S'\x00\x00@A'
p1294
tp1295
Rp1296
ag3
(g7
S'\x00\x00@A'
p1297
tp1298
Rp1299
asS'S000001021'
p1300
(lp1301
g3
(g7
S'\x00\x00@A'
p1302
tp1303
Rp1304
ag3
(g7
S'\x00\x00@A'
p1305
tp1306
Rp1307
asS'S000001754'
p1308
(lp1309
g3
(g7
S'\x00\x00@A'
p1310
tp1311
Rp1312
asS'S000001755'
p1313
(lp1314
g3
(g7
S'\x00\x00@A'
p1315
tp1316
Rp1317
ag3
(g7
S'\x00\x00@A'
p1318
tp1319
Rp1320
asS'S000005583'
p1321
(lp1322
g3
(g7
S'\x00\x00@A'
p1323
tp1324
Rp1325
asS'S000004054'
p1326
(lp1327
g3
(g7
S'\x00\x00@A'
p1328
tp1329
Rp1330
asS'S000001028'
p1331
(lp1332
g3
(g7
S'\x00\x00@A'
p1333
tp1334
Rp1335
asS'S000004509'
p1336
(lp1337
g3
(g7
S'\x00\x00@A'
p1338
tp1339
Rp1340
asS'S000004052'
p1341
(lp1342
g3
(g7
S'\x00\x00@A'
p1343
tp1344
Rp1345
ag3
(g7
S'\x00\x00@A'
p1346
tp1347
Rp1348
asS'S000004870'
p1349
(lp1350
g3
(g7
S'\x00\x00@A'
p1351
tp1352
Rp1353
asS'S000004874'
p1354
(lp1355
g3
(g7
S'\x00\x00@A'
p1356
tp1357
Rp1358
asS'S000004875'
p1359
(lp1360
g3
(g7
S'\x00\x00@A'
p1361
tp1362
Rp1363
asS'S000004878'
p1364
(lp1365
g3
(g7
S'\x00\x00@A'
p1366
tp1367
Rp1368
ag3
(g7
S'\x00\x00@A'
p1369
tp1370
Rp1371
asS'S000004879'
p1372
(lp1373
g3
(g7
S'\x00\x00@A'
p1374
tp1375
Rp1376
ag3
(g7
S'\x00\x00@A'
p1377
tp1378
Rp1379
asS'S000006327'
p1380
(lp1381
g3
(g7
S'\x00\x00@A'
p1382
tp1383
Rp1384
asS'S000004183'
p1385
(lp1386
g3
(g7
S'\x00\x00@A'
p1387
tp1388
Rp1389
asS'S000004472'
p1390
(lp1391
g3
(g7
S'\x00\x00@A'
p1392
tp1393
Rp1394
ag3
(g7
S'\x00\x00@A'
p1395
tp1396
Rp1397
asS'S000004470'
p1398
(lp1399
g3
(g7
S'\x00\x00@A'
p1400
tp1401
Rp1402
asS'S000001111'
p1403
(lp1404
g3
(g7
S'\x00\x00@A'
p1405
tp1406
Rp1407
asS'S000002138'
p1408
(lp1409
g3
(g7
S'\x00\x00@A'
p1410
tp1411
Rp1412
ag3
(g7
S'\x00\x00@A'
p1413
tp1414
Rp1415
asS'S000002134'
p1416
(lp1417
g3
(g7
S'\x00\x00@A'
p1418
tp1419
Rp1420
ag3
(g7
S'\x00\x00@A'
p1421
tp1422
Rp1423
asS'S000002133'
p1424
(lp1425
g3
(g7
S'\x00\x00@A'
p1426
tp1427
Rp1428
ag3
(g7
S'\x00\x00@A'
p1429
tp1430
Rp1431
ag3
(g7
S'\x00\x00@A'
p1432
tp1433
Rp1434
asS'S000001330'
p1435
(lp1436
g3
(g7
S'\x00\x00@A'
p1437
tp1438
Rp1439
asS'S000001338'
p1440
(lp1441
g3
(g7
S'\x00\x00@A'
p1442
tp1443
Rp1444
asS'S000004983'
p1445
(lp1446
g3
(g7
S'\x00\x00@A'
p1447
tp1448
Rp1449
asS'S000004980'
p1450
(lp1451
g3
(g7
S'\x00\x00@A'
p1452
tp1453
Rp1454
asS'S000005553'
p1455
(lp1456
g3
(g7
S'\x00\x00@A'
p1457
tp1458
Rp1459
asS'S000004989'
p1460
(lp1461
g3
(g7
S'\x00\x00@A'
p1462
tp1463
Rp1464
asS'S000004692'
p1465
(lp1466
g3
(g7
S'\x00\x00@A'
p1467
tp1468
Rp1469
asS'S000004690'
p1470
(lp1471
g3
(g7
S'\x00\x00@A'
p1472
tp1473
Rp1474
asS'S000004697'
p1475
(lp1476
g3
(g7
S'\x00\x00@A'
p1477
tp1478
Rp1479
asS'S000005051'
p1480
(lp1481
g3
(g7
S'\x00\x00@A'
p1482
tp1483
Rp1484
asS'S000028625'
p1485
(lp1486
g3
(g7
S'\x00\x00@A'
p1487
tp1488
Rp1489
asS'S000005121'
p1490
(lp1491
g3
(g7
S'\x00\x00@A'
p1492
tp1493
Rp1494
asS'S000005128'
p1495
(lp1496
g3
(g7
S'\x00\x00@A'
p1497
tp1498
Rp1499
asS'S000006232'
p1500
(lp1501
g3
(g7
S'\x00\x00@A'
p1502
tp1503
Rp1504
asS'S000006231'
p1505
(lp1506
g3
(g7
S'\x00\x00@A'
p1507
tp1508
Rp1509
ag3
(g7
S'\x00\x00@A'
p1510
tp1511
Rp1512
asS'S000002221'
p1513
(lp1514
g3
(g7
S'\x00\x00@A'
p1515
tp1516
Rp1517
asS'S000005900'
p1518
(lp1519
g3
(g7
S'\x00\x00@A'
p1520
tp1521
Rp1522
asS'S000005902'
p1523
(lp1524
g3
(g7
S'\x00\x00@A'
p1525
tp1526
Rp1527
asS'S000005905'
p1528
(lp1529
g3
(g7
S'\x00\x00@A'
p1530
tp1531
Rp1532
asS'S000002224'
p1533
(lp1534
g3
(g7
S'\x00\x00@A'
p1535
tp1536
Rp1537
asS'S000002227'
p1538
(lp1539
g3
(g7
S'\x00\x00@A'
p1540
tp1541
Rp1542
asS'S000002229'
p1543
(lp1544
g3
(g7
S'\x00\x00@A'
p1545
tp1546
Rp1547
asS'S000001243'
p1548
(lp1549
g3
(g7
S'\x00\x00@A'
p1550
tp1551
Rp1552
asS'S000001932'
p1553
(lp1554
g3
(g7
S'\x00\x00@A'
p1555
tp1556
Rp1557
asS'S000001241'
p1558
(lp1559
g3
(g7
S'\x00\x00@A'
p1560
tp1561
Rp1562
ag3
(g7
S'\x00\x00@A'
p1563
tp1564
Rp1565
asS'S000005558'
p1566
(lp1567
g3
(g7
S'\x00\x00@A'
p1568
tp1569
Rp1570
asS'S000001010'
p1571
(lp1572
g3
(g7
S'\x00\x00@A'
p1573
tp1574
Rp1575
asS'S000028532'
p1576
(lp1577
g3
(g7
S'\x00\x00@A'
p1578
tp1579
Rp1580
asS'S000005639'
p1581
(lp1582
g3
(g7
S'\x00\x00@A'
p1583
tp1584
Rp1585
ag3
(g7
S'\x00\x00@A'
p1586
tp1587
Rp1588
asS'S000005636'
p1589
(lp1590
g3
(g7
S'\x00\x00@A'
p1591
tp1592
Rp1593
asS'S000005634'
p1594
(lp1595
g3
(g7
S'\x00\x00@A'
p1596
tp1597
Rp1598
asS'S000005633'
p1599
(lp1600
g3
(g7
S'\x00\x00@A'
p1601
tp1602
Rp1603
asS'S000003469'
p1604
(lp1605
g3
(g7
S'\x00\x00@A'
p1606
tp1607
Rp1608
asS'S000006581'
p1609
(lp1610
g3
(g7
S'\x00\x00@A'
p1611
tp1612
Rp1613
ag3
(g7
S'\x00\x00@A'
p1614
tp1615
Rp1616
asS'S000006583'
p1617
(lp1618
g3
(g7
S'\x00\x00@A'
p1619
tp1620
Rp1621
asS'S000006585'
p1622
(lp1623
g3
(g7
S'\x00\x00@A'
p1624
tp1625
Rp1626
ag3
(g7
S'\x00\x00@A'
p1627
tp1628
Rp1629
asS'S000003066'
p1630
(lp1631
g3
(g7
S'\x00\x00@A'
p1632
tp1633
Rp1634
asS'S000005672'
p1635
(lp1636
g3
(g7
S'\x00\x00@A'
p1637
tp1638
Rp1639
ag3
(g7
S'\x00\x00@A'
p1640
tp1641
Rp1642
asS'S000003069'
p1643
(lp1644
g3
(g7
S'\x00\x00@A'
p1645
tp1646
Rp1647
asS'S000005578'
p1648
(lp1649
g3
(g7
S'\x00\x00@A'
p1650
tp1651
Rp1652
asS'S000006340'
p1653
(lp1654
g3
(g7
S'\x00\x00@A'
p1655
tp1656
Rp1657
asS'S000006344'
p1658
(lp1659
g3
(g7
S'\x00\x00@A'
p1660
tp1661
Rp1662
asS'S000006348'
p1663
(lp1664
g3
(g7
S'\x00\x00@A'
p1665
tp1666
Rp1667
asS'S000006349'
p1668
(lp1669
g3
(g7
S'\x00\x00@A'
p1670
tp1671
Rp1672
asS'S000005834'
p1673
(lp1674
g3
(g7
S'\x00\x00@A'
p1675
tp1676
Rp1677
asS'S000005837'
p1678
(lp1679
g3
(g7
S'\x00\x00@A'
p1680
tp1681
Rp1682
asS'S000003467'
p1683
(lp1684
g3
(g7
S'\x00\x00@A'
p1685
tp1686
Rp1687
asS'S000005833'
p1688
(lp1689
g3
(g7
S'\x00\x00@A'
p1690
tp1691
Rp1692
asS'S000005832'
p1693
(lp1694
g3
(g7
S'\x00\x00@A'
p1695
tp1696
Rp1697
asS'S000001800'
p1698
(lp1699
g3
(g7
S'\x00\x00@A'
p1700
tp1701
Rp1702
asS'S000001801'
p1703
(lp1704
g3
(g7
S'\x00\x00@A'
p1705
tp1706
Rp1707
ag3
(g7
S'\x00\x00@A'
p1708
tp1709
Rp1710
asS'S000005772'
p1711
(lp1712
g3
(g7
S'\x00\x00@A'
p1713
tp1714
Rp1715
asS'S000003666'
p1716
(lp1717
g3
(g7
S'\x00\x00@A'
p1718
tp1719
Rp1720
asS'S000003665'
p1721
(lp1722
g3
(g7
S'\x00\x00@A'
p1723
tp1724
Rp1725
asS'S000005954'
p1726
(lp1727
g3
(g7
S'\x00\x00@A'
p1728
tp1729
Rp1730
ag3
(g7
S'\x00\x00@A'
p1731
tp1732
Rp1733
asS'S000003660'
p1734
(lp1735
g3
(g7
S'\x00\x00@A'
p1736
tp1737
Rp1738
asS'S000003061'
p1739
(lp1740
g3
(g7
S'\x00\x00@A'
p1741
tp1742
Rp1743
ag3
(g7
S'\x00\x00@A'
p1744
tp1745
Rp1746
asS'S000006166'
p1747
(lp1748
g3
(g7
S'\x00\x00@A'
p1749
tp1750
Rp1751
asS'S000006695'
p1752
(lp1753
g3
(g7
S'\x00\x00@A'
p1754
tp1755
Rp1756
asS'S000003404'
p1757
(lp1758
g3
(g7
S'\x00\x00@A'
p1759
tp1760
Rp1761
asS'S000001577'
p1762
(lp1763
g3
(g7
S'\x00\x00@A'
p1764
tp1765
Rp1766
asS'S000006168'
p1767
(lp1768
g3
(g7
S'\x00\x00@A'
p1769
tp1770
Rp1771
asS'S000004979'
p1772
(lp1773
g3
(g7
S'\x00\x00@A'
p1774
tp1775
Rp1776
asS'S000000502'
p1777
(lp1778
g3
(g7
S'\x00\x00@A'
p1779
tp1780
Rp1781
asS'S000000503'
p1782
(lp1783
g3
(g7
S'\x00\x00@A'
p1784
tp1785
Rp1786
asS'S000006768'
p1787
(lp1788
g3
(g7
S'\x00\x00@A'
p1789
tp1790
Rp1791
asS'S000003318'
p1792
(lp1793
g3
(g7
S'\x00\x00@A'
p1794
tp1795
Rp1796
asS'S000003319'
p1797
(lp1798
g3
(g7
S'\x00\x00@A'
p1799
tp1800
Rp1801
ag3
(g7
S'\x00\x00@A'
p1802
tp1803
Rp1804
ag3
(g7
S'\x00\x00@A'
p1805
tp1806
Rp1807
ag3
(g7
S'\x00\x00@A'
p1808
tp1809
Rp1810
asS'S000003312'
p1811
(lp1812
g3
(g7
S'\x00\x00@A'
p1813
tp1814
Rp1815
ag3
(g7
S'\x00\x00@A'
p1816
tp1817
Rp1818
asS'S000000107'
p1819
(lp1820
g3
(g7
S'\x00\x00@A'
p1821
tp1822
Rp1823
asS'S000003310'
p1824
(lp1825
g3
(g7
S'\x00\x00@A'
p1826
tp1827
Rp1828
ag3
(g7
S'\x00\x00@A'
p1829
tp1830
Rp1831
asS'S000006765'
p1832
(lp1833
g3
(g7
S'\x00\x00@A'
p1834
tp1835
Rp1836
asS'S000006569'
p1837
(lp1838
g3
(g7
S'\x00\x00@A'
p1839
tp1840
Rp1841
asS'S000003213'
p1842
(lp1843
g3
(g7
S'\x00\x00@A'
p1844
tp1845
Rp1846
asS'S000006563'
p1847
(lp1848
g3
(g7
S'\x00\x00@A'
p1849
tp1850
Rp1851
ag3
(g7
S'\x00\x00@A'
p1852
tp1853
Rp1854
asS'S000000216'
p1855
(lp1856
g3
(g7
S'\x00\x00@A'
p1857
tp1858
Rp1859
ag3
(g7
S'\x00\x00@A'
p1860
tp1861
Rp1862
asS'S000000217'
p1863
(lp1864
g3
(g7
S'\x00\x00@A'
p1865
tp1866
Rp1867
ag3
(g7
S'\x00\x00@A'
p1868
tp1869
Rp1870
asS'S000000215'
p1871
(lp1872
g3
(g7
S'\x00\x00@A'
p1873
tp1874
Rp1875
asS'S000002850'
p1876
(lp1877
g3
(g7
S'\x00\x00@A'
p1878
tp1879
Rp1880
asS'S000000698'
p1881
(lp1882
g3
(g7
S'\x00\x00@A'
p1883
tp1884
Rp1885
asS'S000000699'
p1886
(lp1887
g3
(g7
S'\x00\x00@A'
p1888
tp1889
Rp1890
asS'S000000695'
p1891
(lp1892
g3
(g7
S'\x00\x00@A'
p1893
tp1894
Rp1895
asS'S000002597'
p1896
(lp1897
g3
(g7
S'\x00\x00@A'
p1898
tp1899
Rp1900
ag3
(g7
S'\x00\x00@A'
p1901
tp1902
Rp1903
ag3
(g7
S'\x00\x00@A'
p1904
tp1905
Rp1906
ag3
(g7
S'\x00\x00@A'
p1907
tp1908
Rp1909
asS'S000000324'
p1910
(lp1911
g3
(g7
S'\x00\x00@A'
p1912
tp1913
Rp1914
asS'S000000325'
p1915
(lp1916
g3
(g7
S'\x00\x00@A'
p1917
tp1918
Rp1919
asS'S000000323'
p1920
(lp1921
g3
(g7
S'\x00\x00@A'
p1922
tp1923
Rp1924
asS'S000000329'
p1925
(lp1926
g3
(g7
S'\x00\x00@A'
p1927
tp1928
Rp1929
ag3
(g7
S'\x00\x00@A'
p1930
tp1931
Rp1932
asS'S000006068'
p1933
(lp1934
g3
(g7
S'\x00\x00@A'
p1935
tp1936
Rp1937
asS'S000000039'
p1938
(lp1939
g3
(g7
S'\x00\x00@A'
p1940
tp1941
Rp1942
ag3
(g7
S'\x00\x00@A'
p1943
tp1944
Rp1945
asS'S000000033'
p1946
(lp1947
g3
(g7
S'\x00\x00@A'
p1948
tp1949
Rp1950
asS'S000000031'
p1951
(lp1952
g3
(g7
S'\x00\x00@A'
p1953
tp1954
Rp1955
ag3
(g7
S'\x00\x00@A'
p1956
tp1957
Rp1958
asS'S000001747'
p1959
(lp1960
g3
(g7
S'\x00\x00@A'
p1961
tp1962
Rp1963
asS'S000004510'
p1964
(lp1965
g3
(g7
S'\x00\x00@A'
p1966
tp1967
Rp1968
asS'S000001745'
p1969
(lp1970
g3
(g7
S'\x00\x00@A'
p1971
tp1972
Rp1973
ag3
(g7
S'\x00\x00@A'
p1974
tp1975
Rp1976
asS'S000004260'
p1977
(lp1978
g3
(g7
S'\x00\x00@A'
p1979
tp1980
Rp1981
ag3
(g7
S'\x00\x00@A'
p1982
tp1983
Rp1984
asS'S000004047'
p1985
(lp1986
g3
(g7
S'\x00\x00@A'
p1987
tp1988
Rp1989
asS'S000001039'
p1990
(lp1991
g3
(g7
S'\x00\x00@A'
p1992
tp1993
Rp1994
asS'S000004049'
p1995
(lp1996
g3
(g7
S'\x00\x00@A'
p1997
tp1998
Rp1999
asS'S000004048'
p2000
(lp2001
g3
(g7
S'\x00\x00@A'
p2002
tp2003
Rp2004
asS'S000001748'
p2005
(lp2006
g3
(g7
S'\x00\x00@A'
p2007
tp2008
Rp2009
asS'S000004866'
p2010
(lp2011
g3
(g7
S'\x00\x00@A'
p2012
tp2013
Rp2014
asS'S000004868'
p2015
(lp2016
g3
(g7
S'\x00\x00@A'
p2017
tp2018
Rp2019
asS'S000003891'
p2020
(lp2021
g3
(g7
S'\x00\x00@A'
p2022
tp2023
Rp2024
asS'S000003890'
p2025
(lp2026
g3
(g7
S'\x00\x00@A'
p2027
tp2028
Rp2029
asS'S000003893'
p2030
(lp2031
g3
(g7
S'\x00\x00@A'
p2032
tp2033
Rp2034
ag3
(g7
S'\x00\x00@A'
p2035
tp2036
Rp2037
ag3
(g7
S'\x00\x00@A'
p2038
tp2039
Rp2040
asS'S000003892'
p2041
(lp2042
g3
(g7
S'\x00\x00@A'
p2043
tp2044
Rp2045
asS'S000004199'
p2046
(lp2047
g3
(g7
S'\x00\x00@A'
p2048
tp2049
Rp2050
asS'S000004197'
p2051
(lp2052
g3
(g7
S'\x00\x00@A'
p2053
tp2054
Rp2055
asS'S000004469'
p2056
(lp2057
g3
(g7
S'\x00\x00@A'
p2058
tp2059
Rp2060
asS'S000004468'
p2061
(lp2062
g3
(g7
S'\x00\x00@A'
p2063
tp2064
Rp2065
asS'S000001106'
p2066
(lp2067
g3
(g7
S'\x00\x00@A'
p2068
tp2069
Rp2070
asS'S000004463'
p2071
(lp2072
g3
(g7
S'\x00\x00@A'
p2073
tp2074
Rp2075
asS'S000004462'
p2076
(lp2077
g3
(g7
S'\x00\x00@A'
p2078
tp2079
Rp2080
asS'S000002100'
p2081
(lp2082
g3
(g7
S'\x00\x00@A'
p2083
tp2084
Rp2085
asS'S000005330'
p2086
(lp2087
g3
(g7
S'\x00\x00@A'
p2088
tp2089
Rp2090
asS'S000006370'
p2091
(lp2092
g3
(g7
S'\x00\x00@A'
p2093
tp2094
Rp2095
asS'S000002456'
p2096
(lp2097
g3
(g7
S'\x00\x00@A'
p2098
tp2099
Rp2100
asS'S000005334'
p2101
(lp2102
g3
(g7
S'\x00\x00@A'
p2103
tp2104
Rp2105
asS'S000005547'
p2106
(lp2107
g3
(g7
S'\x00\x00@A'
p2108
tp2109
Rp2110
asS'S000002458'
p2111
(lp2112
g3
(g7
S'\x00\x00@A'
p2113
tp2114
Rp2115
asS'S000001326'
p2116
(lp2117
g3
(g7
S'\x00\x00@A'
p2118
tp2119
Rp2120
asS'S000006375'
p2121
(lp2122
g3
(g7
S'\x00\x00@A'
p2123
tp2124
Rp2125
asS'S000028709'
p2126
(lp2127
g3
(g7
S'\x00\x00@A'
p2128
tp2129
Rp2130
asS'S000001328'
p2131
(lp2132
g3
(g7
S'\x00\x00@A'
p2133
tp2134
Rp2135
asS'S000004995'
p2136
(lp2137
g3
(g7
S'\x00\x00@A'
p2138
tp2139
Rp2140
asS'S000002302'
p2141
(lp2142
g3
(g7
S'\x00\x00@A'
p2143
tp2144
Rp2145
asS'S000004997'
p2146
(lp2147
g3
(g7
S'\x00\x00@A'
p2148
tp2149
Rp2150
ag3
(g7
S'\x00\x00@A'
p2151
tp2152
Rp2153
asS'S000004993'
p2154
(lp2155
g3
(g7
S'\x00\x00@A'
p2156
tp2157
Rp2158
asS'S000002303'
p2159
(lp2160
g3
(g7
S'\x00\x00@A'
p2161
tp2162
Rp2163
asS'S000004682'
p2164
(lp2165
g3
(g7
S'\x00\x00@A'
p2166
tp2167
Rp2168
ag3
(g7
S'\x00\x00@A'
p2169
tp2170
Rp2171
asS'S000004686'
p2172
(lp2173
g3
(g7
S'\x00\x00@A'
p2174
tp2175
Rp2176
asS'S000001639'
p2177
(lp2178
g3
(g7
S'\x00\x00@A'
p2179
tp2180
Rp2181
asS'S000004688'
p2182
(lp2183
g3
(g7
S'\x00\x00@A'
p2184
tp2185
Rp2186
asS'S000005025'
p2187
(lp2188
g3
(g7
S'\x00\x00@A'
p2189
tp2190
Rp2191
ag3
(g7
S'\x00\x00@A'
p2192
tp2193
Rp2194
asS'S000005020'
p2195
(lp2196
g3
(g7
S'\x00\x00@A'
p2197
tp2198
Rp2199
asS'S000005021'
p2200
(lp2201
g3
(g7
S'\x00\x00@A'
p2202
tp2203
Rp2204
asS'S000005156'
p2205
(lp2206
g3
(g7
S'\x00\x00@A'
p2207
tp2208
Rp2209
asS'S000005157'
p2210
(lp2211
g3
(g7
S'\x00\x00@A'
p2212
tp2213
Rp2214
asS'S000005152'
p2215
(lp2216
g3
(g7
S'\x00\x00@A'
p2217
tp2218
Rp2219
asS'S000001030'
p2220
(lp2221
g3
(g7
S'\x00\x00@A'
p2222
tp2223
Rp2224
ag3
(g7
S'\x00\x00@A'
p2225
tp2226
Rp2227
ag3
(g7
S'\x00\x00@A'
p2228
tp2229
Rp2230
asS'S000001033'
p2231
(lp2232
g3
(g7
S'\x00\x00@A'
p2233
tp2234
Rp2235
asS'S000005158'
p2236
(lp2237
g3
(g7
S'\x00\x00@A'
p2238
tp2239
Rp2240
ag3
(g7
S'\x00\x00@A'
p2241
tp2242
Rp2243
asS'S000001258'
p2244
(lp2245
g3
(g7
S'\x00\x00@A'
p2246
tp2247
Rp2248
asS'S000002216'
p2249
(lp2250
g3
(g7
S'\x00\x00@A'
p2251
tp2252
Rp2253
ag3
(g7
S'\x00\x00@A'
p2254
tp2255
Rp2256
asS'S000002217'
p2257
(lp2258
g3
(g7
S'\x00\x00@A'
p2259
tp2260
Rp2261
ag3
(g7
S'\x00\x00@A'
p2262
tp2263
Rp2264
ag3
(g7
S'\x00\x00@A'
p2265
tp2266
Rp2267
asS'S000005930'
p2268
(lp2269
g3
(g7
S'\x00\x00@A'
p2270
tp2271
Rp2272
asS'S000005931'
p2273
(lp2274
g3
(g7
S'\x00\x00@A'
p2275
tp2276
Rp2277
asS'S000005933'
p2278
(lp2279
g3
(g7
S'\x00\x00@A'
p2280
tp2281
Rp2282
asS'S000001251'
p2283
(lp2284
g3
(g7
S'\x00\x00@A'
p2285
tp2286
Rp2287
asS'S000001250'
p2288
(lp2289
g3
(g7
S'\x00\x00@A'
p2290
tp2291
Rp2292
asS'S000001923'
p2293
(lp2294
g3
(g7
S'\x00\x00@A'
p2295
tp2296
Rp2297
ag3
(g7
S'\x00\x00@A'
p2298
tp2299
Rp2300
asS'S000002219'
p2301
(lp2302
g3
(g7
S'\x00\x00@A'
p2303
tp2304
Rp2305
asS'S000002698'
p2306
(lp2307
g3
(g7
S'\x00\x00@A'
p2308
tp2309
Rp2310
asS'S000004904'
p2311
(lp2312
g3
(g7
S'\x00\x00@A'
p2313
tp2314
Rp2315
asS'S000003077'
p2316
(lp2317
g3
(g7
S'\x00\x00@A'
p2318
tp2319
Rp2320
asS'S000003076'
p2321
(lp2322
g3
(g7
S'\x00\x00@A'
p2323
tp2324
Rp2325
asS'S000002958'
p2326
(lp2327
g3
(g7
S'\x00\x00@A'
p2328
tp2329
Rp2330
asS'S000006599'
p2331
(lp2332
g3
(g7
S'\x00\x00@A'
p2333
tp2334
Rp2335
asS'S000003271'
p2336
(lp2337
g3
(g7
S'\x00\x00@A'
p2338
tp2339
Rp2340
ag3
(g7
S'\x00\x00@A'
p2341
tp2342
Rp2343
asS'S000006350'
p2344
(lp2345
g3
(g7
S'\x00\x00@A'
p2346
tp2347
Rp2348
asS'S000002679'
p2349
(lp2350
g3
(g7
S'\x00\x00@A'
p2351
tp2352
Rp2353
asS'S000006357'
p2354
(lp2355
g3
(g7
S'\x00\x00@A'
p2356
tp2357
Rp2358
asS'S000006356'
p2359
(lp2360
g3
(g7
S'\x00\x00@A'
p2361
tp2362
Rp2363
asS'S000006358'
p2364
(lp2365
g3
(g7
S'\x00\x00@A'
p2366
tp2367
Rp2368
asS'S000002676'
p2369
(lp2370
g3
(g7
S'\x00\x00@A'
p2371
tp2372
Rp2373
asS'S000002677'
p2374
(lp2375
g3
(g7
S'\x00\x00@A'
p2376
tp2377
Rp2378
asS'S000001812'
p2379
(lp2380
g3
(g7
S'\x00\x00@A'
p2381
tp2382
Rp2383
asS'S000001817'
p2384
(lp2385
g3
(g7
S'\x00\x00@A'
p2386
tp2387
Rp2388
asS'S000005423'
p2389
(lp2390
g3
(g7
S'\x00\x00@A'
p2391
tp2392
Rp2393
asS'S000003674'
p2394
(lp2395
g3
(g7
S'\x00\x00@A'
p2396
tp2397
Rp2398
asS'S000003676'
p2399
(lp2400
g3
(g7
S'\x00\x00@A'
p2401
tp2402
Rp2403
ag3
(g7
S'\x00\x00@A'
p2404
tp2405
Rp2406
asS'S000006680'
p2407
(lp2408
g3
(g7
S'\x00\x00@A'
p2409
tp2410
Rp2411
asS'S000006686'
p2412
(lp2413
g3
(g7
S'\x00\x00@A'
p2414
tp2415
Rp2416
asS'S000006684'
p2417
(lp2418
g3
(g7
S'\x00\x00@A'
p2419
tp2420
Rp2421
ag3
(g7
S'\x00\x00@A'
p2422
tp2423
Rp2424
asS'S000006175'
p2425
(lp2426
g3
(g7
S'\x00\x00@A'
p2427
tp2428
Rp2429
asS'S000006171'
p2430
(lp2431
g3
(g7
S'\x00\x00@A'
p2432
tp2433
Rp2434
ag3
(g7
S'\x00\x00@A'
p2435
tp2436
Rp2437
asS'S000006173'
p2438
(lp2439
g3
(g7
S'\x00\x00@A'
p2440
tp2441
Rp2442
ag3
(g7
S'\x00\x00@A'
p2443
tp2444
Rp2445
asS'S000003412'
p2446
(lp2447
g3
(g7
S'\x00\x00@A'
p2448
tp2449
Rp2450
asS'S000000517'
p2451
(lp2452
g3
(g7
S'\x00\x00@A'
p2453
tp2454
Rp2455
asS'S000000510'
p2456
(lp2457
g3
(g7
S'\x00\x00@A'
p2458
tp2459
Rp2460
asS'S000003301'
p2461
(lp2462
g3
(g7
S'\x00\x00@A'
p2463
tp2464
Rp2465
asS'S000006776'
p2466
(lp2467
g3
(g7
S'\x00\x00@A'
p2468
tp2469
Rp2470
ag3
(g7
S'\x00\x00@A'
p2471
tp2472
Rp2473
asS'S000006772'
p2474
(lp2475
g3
(g7
S'\x00\x00@A'
p2476
tp2477
Rp2478
asS'S000006578'
p2479
(lp2480
g3
(g7
S'\x00\x00@A'
p2481
tp2482
Rp2483
asS'S000006570'
p2484
(lp2485
g3
(g7
S'\x00\x00@A'
p2486
tp2487
Rp2488
asS'S000006573'
p2489
(lp2490
g3
(g7
S'\x00\x00@A'
p2491
tp2492
Rp2493
ag3
(g7
S'\x00\x00@A'
p2494
tp2495
Rp2496
asS'S000006577'
p2497
(lp2498
g3
(g7
S'\x00\x00@A'
p2499
tp2500
Rp2501
ag3
(g7
S'\x00\x00@A'
p2502
tp2503
Rp2504
asS'S000005177'
p2505
(lp2506
g3
(g7
S'\x00\x00@A'
p2507
tp2508
Rp2509
asS'S000000201'
p2510
(lp2511
g3
(g7
S'\x00\x00@A'
p2512
tp2513
Rp2514
asS'S000007228'
p2515
(lp2516
g3
(g7
S'\x00\x00@A'
p2517
tp2518
Rp2519
asS'S000000205'
p2520
(lp2521
g3
(g7
S'\x00\x00@A'
p2522
tp2523
Rp2524
asS'S000000207'
p2525
(lp2526
g3
(g7
S'\x00\x00@A'
p2527
tp2528
Rp2529
asS'S000002847'
p2530
(lp2531
g3
(g7
S'\x00\x00@A'
p2532
tp2533
Rp2534
asS'S000002841'
p2535
(lp2536
g3
(g7
S'\x00\x00@A'
p2537
tp2538
Rp2539
ag3
(g7
S'\x00\x00@A'
p2540
tp2541
Rp2542
ag3
(g7
S'\x00\x00@A'
p2543
tp2544
Rp2545
ag3
(g7
S'\x00\x00@A'
p2546
tp2547
Rp2548
asS'S000001709'
p2549
(lp2550
g3
(g7
S'\x00\x00@A'
p2551
tp2552
Rp2553
asS'S000000685'
p2554
(lp2555
g3
(g7
S'\x00\x00@A'
p2556
tp2557
Rp2558
ag3
(g7
S'\x00\x00@A'
p2559
tp2560
Rp2561
asS'S000000681'
p2562
(lp2563
g3
(g7
S'\x00\x00@A'
p2564
tp2565
Rp2566
asS'S000001108'
p2567
(lp2568
g3
(g7
S'\x00\x00@A'
p2569
tp2570
Rp2571
asS'S000006154'
p2572
(lp2573
g3
(g7
S'\x00\x00@A'
p2574
tp2575
Rp2576
asS'S000003430'
p2577
(lp2578
g3
(g7
S'\x00\x00@A'
p2579
tp2580
Rp2581
asS'S000000336'
p2582
(lp2583
g3
(g7
S'\x00\x00@A'
p2584
tp2585
Rp2586
asS'S000000330'
p2587
(lp2588
g3
(g7
S'\x00\x00@A'
p2589
tp2590
Rp2591
asS'S000003025'
p2592
(lp2593
g3
(g7
S'\x00\x00@A'
p2594
tp2595
Rp2596
asS'S000000338'
p2597
(lp2598
g3
(g7
S'\x00\x00@A'
p2599
tp2600
Rp2601
asS'S000006015'
p2602
(lp2603
g3
(g7
S'\x00\x00@A'
p2604
tp2605
Rp2606
asS'S000003532'
p2607
(lp2608
g3
(g7
S'\x00\x00@A'
p2609
tp2610
Rp2611
ag3
(g7
S'\x00\x00@A'
p2612
tp2613
Rp2614
asS'S000002452'
p2615
(lp2616
g3
(g7
S'\x00\x00@A'
p2617
tp2618
Rp2619
asS'S000002450'
p2620
(lp2621
g3
(g7
S'\x00\x00@A'
p2622
tp2623
Rp2624
asS'S000001638'
p2625
(lp2626
g3
(g7
S'\x00\x00@A'
p2627
tp2628
Rp2629
asS'S000004638'
p2630
(lp2631
g3
(g7
S'\x00\x00@A'
p2632
tp2633
Rp2634
asS'S000000029'
p2635
(lp2636
g3
(g7
S'\x00\x00@A'
p2637
tp2638
Rp2639
ag3
(g7
S'\x00\x00@A'
p2640
tp2641
Rp2642
asS'S000000028'
p2643
(lp2644
g3
(g7
S'\x00\x00@A'
p2645
tp2646
Rp2647
asS'S000004218'
p2648
(lp2649
g3
(g7
S'\x00\x00@A'
p2650
tp2651
Rp2652
asS'S000000021'
p2653
(lp2654
g3
(g7
S'\x00\x00@A'
p2655
tp2656
Rp2657
asS'S000000023'
p2658
(lp2659
g3
(g7
S'\x00\x00@A'
p2660
tp2661
Rp2662
asS'S000006019'
p2663
(lp2664
g3
(g7
S'\x00\x00@A'
p2665
tp2666
Rp2667
asS'S000004524'
p2668
(lp2669
g3
(g7
S'\x00\x00@A'
p2670
tp2671
Rp2672
asS'S000006386'
p2673
(lp2674
g3
(g7
S'\x00\x00@A'
p2675
tp2676
Rp2677
ag3
(g7
S'\x00\x00@A'
p2678
tp2679
Rp2680
asS'S000004526'
p2681
(lp2682
g3
(g7
S'\x00\x00@A'
p2683
tp2684
Rp2685
asS'S000004033'
p2686
(lp2687
g3
(g7
S'\x00\x00@A'
p2688
tp2689
Rp2690
asS'S000004523'
p2691
(lp2692
g3
(g7
S'\x00\x00@A'
p2693
tp2694
Rp2695
asS'S000001009'
p2696
(lp2697
g3
(g7
S'\x00\x00@A'
p2698
tp2699
Rp2700
asS'S000004854'
p2701
(lp2702
g3
(g7
S'\x00\x00@A'
p2703
tp2704
Rp2705
asS'S000004859'
p2706
(lp2707
g3
(g7
S'\x00\x00@A'
p2708
tp2709
Rp2710
asS'S000004451'
p2711
(lp2712
g3
(g7
S'\x00\x00@A'
p2713
tp2714
Rp2715
asS'S000001132'
p2716
(lp2717
g3
(g7
S'\x00\x00@A'
p2718
tp2719
Rp2720
asS'S000001134'
p2721
(lp2722
g3
(g7
S'\x00\x00@A'
p2723
tp2724
Rp2725
asS'S000004455'
p2726
(lp2727
g3
(g7
S'\x00\x00@A'
p2728
tp2729
Rp2730
asS'S000004457'
p2731
(lp2732
g3
(g7
S'\x00\x00@A'
p2733
tp2734
Rp2735
asS'S000004458'
p2736
(lp2737
g3
(g7
S'\x00\x00@A'
p2738
tp2739
Rp2740
asS'S000001139'
p2741
(lp2742
g3
(g7
S'\x00\x00@A'
p2743
tp2744
Rp2745
ag3
(g7
S'\x00\x00@A'
p2746
tp2747
Rp2748
asS'S000004328'
p2749
(lp2750
g3
(g7
S'\x00\x00@A'
p2751
tp2752
Rp2753
asS'S000001320'
p2754
(lp2755
g3
(g7
S'\x00\x00@A'
p2756
tp2757
Rp2758
ag3
(g7
S'\x00\x00@A'
p2759
tp2760
Rp2761
asS'S000005493'
p2762
(lp2763
g3
(g7
S'\x00\x00@A'
p2764
tp2765
Rp2766
asS'S000002440'
p2767
(lp2768
g3
(g7
S'\x00\x00@A'
p2769
tp2770
Rp2771
asS'S000004148'
p2772
(lp2773
g3
(g7
S'\x00\x00@A'
p2774
tp2775
Rp2776
asS'S000004149'
p2777
(lp2778
g3
(g7
S'\x00\x00@A'
p2779
tp2780
Rp2781
asS'S000005324'
p2782
(lp2783
g3
(g7
S'\x00\x00@A'
p2784
tp2785
Rp2786
asS'S000005329'
p2787
(lp2788
g3
(g7
S'\x00\x00@A'
p2789
tp2790
Rp2791
asS'S000005328'
p2792
(lp2793
g3
(g7
S'\x00\x00@A'
p2794
tp2795
Rp2796
ag3
(g7
S'\x00\x00@A'
p2797
tp2798
Rp2799
asS'S000005499'
p2800
(lp2801
g3
(g7
S'\x00\x00@A'
p2802
tp2803
Rp2804
ag3
(g7
S'\x00\x00@A'
p2805
tp2806
Rp2807
asS'S000001313'
p2808
(lp2809
g3
(g7
S'\x00\x00@A'
p2810
tp2811
Rp2812
asS'S000004146'
p2813
(lp2814
g3
(g7
S'\x00\x00@A'
p2815
tp2816
Rp2817
asS'S000004147'
p2818
(lp2819
g3
(g7
S'\x00\x00@A'
p2820
tp2821
Rp2822
asS'S000004145'
p2823
(lp2824
g3
(g7
S'\x00\x00@A'
p2825
tp2826
Rp2827
asS'S000001738'
p2828
(lp2829
g3
(g7
S'\x00\x00@A'
p2830
tp2831
Rp2832
asS'S000028422'
p2833
(lp2834
g3
(g7
S'\x00\x00@A'
p2835
tp2836
Rp2837
asS'S000005038'
p2838
(lp2839
g3
(g7
S'\x00\x00@A'
p2840
tp2841
Rp2842
asS'S000003937'
p2843
(lp2844
g3
(g7
S'\x00\x00@A'
p2845
tp2846
Rp2847
asS'S000005145'
p2848
(lp2849
g3
(g7
S'\x00\x00@A'
p2850
tp2851
Rp2852
ag3
(g7
S'\x00\x00@A'
p2853
tp2854
Rp2855
asS'S000002209'
p2856
(lp2857
g3
(g7
S'\x00\x00@A'
p2858
tp2859
Rp2860
asS'S000005928'
p2861
(lp2862
g3
(g7
S'\x00\x00@A'
p2863
tp2864
Rp2865
asS'S000004994'
p2866
(lp2867
g3
(g7
S'\x00\x00@A'
p2868
tp2869
Rp2870
asS'S000006218'
p2871
(lp2872
g3
(g7
S'\x00\x00@A'
p2873
tp2874
Rp2875
ag3
(g7
S'\x00\x00@A'
p2876
tp2877
Rp2878
asS'S000006219'
p2879
(lp2880
g3
(g7
S'\x00\x00@A'
p2881
tp2882
Rp2883
asS'S000005926'
p2884
(lp2885
g3
(g7
S'\x00\x00@A'
p2886
tp2887
Rp2888
asS'S000001269'
p2889
(lp2890
g3
(g7
S'\x00\x00@A'
p2891
tp2892
Rp2893
asS'S000002381'
p2894
(lp2895
g3
(g7
S'\x00\x00@A'
p2896
tp2897
Rp2898
asS'S000001794'
p2899
(lp2900
g3
(g7
S'\x00\x00@A'
p2901
tp2902
Rp2903
asS'S000028437'
p2904
(lp2905
g3
(g7
S'\x00\x00@A'
p2906
tp2907
Rp2908
asS'S000001792'
p2909
(lp2910
g3
(g7
S'\x00\x00@A'
p2911
tp2912
Rp2913
asS'S000028514'
p2914
(lp2915
g3
(g7
S'\x00\x00@A'
p2916
tp2917
Rp2918
asS'S000002681'
p2919
(lp2920
g3
(g7
S'\x00\x00@A'
p2921
tp2922
Rp2923
asS'S000002680'
p2924
(lp2925
g3
(g7
S'\x00\x00@A'
p2926
tp2927
Rp2928
asS'S000004014'
p2929
(lp2930
g3
(g7
S'\x00\x00@A'
p2931
tp2932
Rp2933
asS'S000007339'
p2934
(lp2935
g3
(g7
S'\x00\x00@A'
p2936
tp2937
Rp2938
asS'S000002669'
p2939
(lp2940
g3
(g7
S'\x00\x00@A'
p2941
tp2942
Rp2943
asS'S000003245'
p2944
(lp2945
g3
(g7
S'\x00\x00@A'
p2946
tp2947
Rp2948
asS'S000003246'
p2949
(lp2950
g3
(g7
S'\x00\x00@A'
p2951
tp2952
Rp2953
asS'S000003247'
p2954
(lp2955
g3
(g7
S'\x00\x00@A'
p2956
tp2957
Rp2958
asS'S000003792'
p2959
(lp2960
g3
(g7
S'\x00\x00@A'
p2961
tp2962
Rp2963
asS'S000003241'
p2964
(lp2965
g3
(g7
S'\x00\x00@A'
p2966
tp2967
Rp2968
asS'S000005819'
p2969
(lp2970
g3
(g7
S'\x00\x00@A'
p2971
tp2972
Rp2973
asS'S000005818'
p2974
(lp2975
g3
(g7
S'\x00\x00@A'
p2976
tp2977
Rp2978
asS'S000002661'
p2979
(lp2980
g3
(g7
S'\x00\x00@A'
p2981
tp2982
Rp2983
asS'S000002662'
p2984
(lp2985
g3
(g7
S'\x00\x00@A'
p2986
tp2987
Rp2988
asS'S000003248'
p2989
(lp2990
g3
(g7
S'\x00\x00@A'
p2991
tp2992
Rp2993
ag3
(g7
S'\x00\x00@A'
p2994
tp2995
Rp2996
asS'S000002664'
p2997
(lp2998
g3
(g7
S'\x00\x00@A'
p2999
tp3000
Rp3001
asS'S000002667'
p3002
(lp3003
g3
(g7
S'\x00\x00@A'
p3004
tp3005
Rp3006
asS'S000001867'
p3007
(lp3008
g3
(g7
S'\x00\x00@A'
p3009
tp3010
Rp3011
ag3
(g7
S'\x00\x00@A'
p3012
tp3013
Rp3014
asS'S000001865'
p3015
(lp3016
g3
(g7
S'\x00\x00@A'
p3017
tp3018
Rp3019
asS'S000001862'
p3020
(lp3021
g3
(g7
S'\x00\x00@A'
p3022
tp3023
Rp3024
ag3
(g7
S'\x00\x00@A'
p3025
tp3026
Rp3027
ag3
(g7
S'\x00\x00@A'
p3028
tp3029
Rp3030
asS'S000001863'
p3031
(lp3032
g3
(g7
S'\x00\x00@A'
p3033
tp3034
Rp3035
ag3
(g7
S'\x00\x00@A'
p3036
tp3037
Rp3038
asS'S000005430'
p3039
(lp3040
g3
(g7
S'\x00\x00@A'
p3041
tp3042
Rp3043
asS'S000001868'
p3044
(lp3045
g3
(g7
S'\x00\x00@A'
p3046
tp3047
Rp3048
ag3
(g7
S'\x00\x00@A'
p3049
tp3050
Rp3051
asS'S000003642'
p3052
(lp3053
g3
(g7
S'\x00\x00@A'
p3054
tp3055
Rp3056
asS'S000003643'
p3057
(lp3058
g3
(g7
S'\x00\x00@A'
p3059
tp3060
Rp3061
asS'S000003645'
p3062
(lp3063
g3
(g7
S'\x00\x00@A'
p3064
tp3065
Rp3066
asS'S000003646'
p3067
(lp3068
g3
(g7
S'\x00\x00@A'
p3069
tp3070
Rp3071
asS'S000006148'
p3072
(lp3073
g3
(g7
S'\x00\x00@A'
p3074
tp3075
Rp3076
asS'S000003429'
p3077
(lp3078
g3
(g7
S'\x00\x00@A'
p3079
tp3080
Rp3081
asS'S000000435'
p3082
(lp3083
g3
(g7
S'\x00\x00@A'
p3084
tp3085
Rp3086
asS'S000003420'
p3087
(lp3088
g3
(g7
S'\x00\x00@A'
p3089
tp3090
Rp3091
asS'S000006142'
p3092
(lp3093
g3
(g7
S'\x00\x00@A'
p3094
tp3095
Rp3096
asS'S000003423'
p3097
(lp3098
g3
(g7
S'\x00\x00@A'
p3099
tp3100
Rp3101
asS'S000006144'
p3102
(lp3103
g3
(g7
S'\x00\x00@A'
p3104
tp3105
Rp3106
asS'S000006145'
p3107
(lp3108
g3
(g7
S'\x00\x00@A'
p3109
tp3110
Rp3111
asS'S000006147'
p3112
(lp3113
g3
(g7
S'\x00\x00@A'
p3114
tp3115
Rp3116
ag3
(g7
S'\x00\x00@A'
p3117
tp3118
Rp3119
asS'S000003827'
p3120
(lp3121
g3
(g7
S'\x00\x00@A'
p3122
tp3123
Rp3124
asS'S000000345'
p3125
(lp3126
g3
(g7
S'\x00\x00@A'
p3127
tp3128
Rp3129
ag3
(g7
S'\x00\x00@A'
p3130
tp3131
Rp3132
asS'S000003823'
p3133
(lp3134
g3
(g7
S'\x00\x00@A'
p3135
tp3136
Rp3137
ag3
(g7
S'\x00\x00@A'
p3138
tp3139
Rp3140
asS'S000000346'
p3141
(lp3142
g3
(g7
S'\x00\x00@A'
p3143
tp3144
Rp3145
asS'S000000832'
p3146
(lp3147
g3
(g7
S'\x00\x00@A'
p3148
tp3149
Rp3150
asS'S000000521'
p3151
(lp3152
g3
(g7
S'\x00\x00@A'
p3153
tp3154
Rp3155
asS'S000000522'
p3156
(lp3157
g3
(g7
S'\x00\x00@A'
p3158
tp3159
Rp3160
asS'S000000523'
p3161
(lp3162
g3
(g7
S'\x00\x00@A'
p3163
tp3164
Rp3165
asS'S000000837'
p3166
(lp3167
g3
(g7
S'\x00\x00@A'
p3168
tp3169
Rp3170
ag3
(g7
S'\x00\x00@A'
p3171
tp3172
Rp3173
asS'S000000835'
p3174
(lp3175
g3
(g7
S'\x00\x00@A'
p3176
tp3177
Rp3178
ag3
(g7
S'\x00\x00@A'
p3179
tp3180
Rp3181
asS'S000000528'
p3182
(lp3183
g3
(g7
S'\x00\x00@A'
p3184
tp3185
Rp3186
asS'S000000529'
p3187
(lp3188
g3
(g7
S'\x00\x00@A'
p3189
tp3190
Rp3191
ag3
(g7
S'\x00\x00@A'
p3192
tp3193
Rp3194
asS'S000006783'
p3195
(lp3196
g3
(g7
S'\x00\x00@A'
p3197
tp3198
Rp3199
asS'S000006780'
p3200
(lp3201
g3
(g7
S'\x00\x00@A'
p3202
tp3203
Rp3204
asS'S000003339'
p3205
(lp3206
g3
(g7
S'\x00\x00@A'
p3207
tp3208
Rp3209
asS'S000003443'
p3210
(lp3211
g3
(g7
S'\x00\x00@A'
p3212
tp3213
Rp3214
asS'S000003334'
p3215
(lp3216
g3
(g7
S'\x00\x00@A'
p3217
tp3218
Rp3219
asS'S000003335'
p3220
(lp3221
g3
(g7
S'\x00\x00@A'
p3222
tp3223
Rp3224
asS'S000003336'
p3225
(lp3226
g3
(g7
S'\x00\x00@A'
p3227
tp3228
Rp3229
asS'S000006549'
p3230
(lp3231
g3
(g7
S'\x00\x00@A'
p3232
tp3233
Rp3234
asS'S000006544'
p3235
(lp3236
g3
(g7
S'\x00\x00@A'
p3237
tp3238
Rp3239
ag3
(g7
S'\x00\x00@A'
p3240
tp3241
Rp3242
asS'S000006545'
p3243
(lp3244
g3
(g7
S'\x00\x00@A'
p3245
tp3246
Rp3247
ag3
(g7
S'\x00\x00@A'
p3248
tp3249
Rp3250
asS'S000006124'
p3251
(lp3252
g3
(g7
S'\x00\x00@A'
p3253
tp3254
Rp3255
asS'S000003559'
p3256
(lp3257
g3
(g7
S'\x00\x00@A'
p3258
tp3259
Rp3260
asS'S000000783'
p3261
(lp3262
g3
(g7
S'\x00\x00@A'
p3263
tp3264
Rp3265
asS'S000003778'
p3266
(lp3267
g3
(g7
S'\x00\x00@A'
p3268
tp3269
Rp3270
ag3
(g7
S'\x00\x00@A'
p3271
tp3272
Rp3273
asS'S000000788'
p3274
(lp3275
g3
(g7
S'\x00\x00@A'
p3276
tp3277
Rp3278
asS'S000000789'
p3279
(lp3280
g3
(g7
S'\x00\x00@A'
p3281
tp3282
Rp3283
asS'S000007239'
p3284
(lp3285
g3
(g7
S'\x00\x00@A'
p3286
tp3287
Rp3288
ag3
(g7
S'\x00\x00@A'
p3289
tp3290
Rp3291
asS'S000007238'
p3292
(lp3293
g3
(g7
S'\x00\x00@A'
p3294
tp3295
Rp3296
ag3
(g7
S'\x00\x00@A'
p3297
tp3298
Rp3299
ag3
(g7
S'\x00\x00@A'
p3300
tp3301
Rp3302
asS'S000007549'
p3303
(lp3304
g3
(g7
S'\x00\x00@A'
p3305
tp3306
Rp3307
asS'S000007548'
p3308
(lp3309
g3
(g7
S'\x00\x00@A'
p3310
tp3311
Rp3312
asS'S000007547'
p3313
(lp3314
g3
(g7
S'\x00\x00@A'
p3315
tp3316
Rp3317
asS'S000007232'
p3318
(lp3319
g3
(g7
S'\x00\x00@A'
p3320
tp3321
Rp3322
asS'S000007237'
p3323
(lp3324
g3
(g7
S'\x00\x00@A'
p3325
tp3326
Rp3327
asS'S000001557'
p3328
(lp3329
g3
(g7
S'\x00\x00@A'
p3330
tp3331
Rp3332
asS'S000002213'
p3333
(lp3334
g3
(g7
S'\x00\x00@A'
p3335
tp3336
Rp3337
ag3
(g7
S'\x00\x00@A'
p3338
tp3339
Rp3340
asS'S000001926'
p3341
(lp3342
g3
(g7
S'\x00\x00@A'
p3343
tp3344
Rp3345
asS'S000000653'
p3346
(lp3347
g3
(g7
S'\x00\x00@A'
p3348
tp3349
Rp3350
asS'S000000656'
p3351
(lp3352
g3
(g7
S'\x00\x00@A'
p3353
tp3354
Rp3355
asS'S000000657'
p3356
(lp3357
g3
(g7
S'\x00\x00@A'
p3358
tp3359
Rp3360
asS'S000000655'
p3361
(lp3362
g3
(g7
S'\x00\x00@A'
p3363
tp3364
Rp3365
asS'S000002218'
p3366
(lp3367
g3
(g7
S'\x00\x00@A'
p3368
tp3369
Rp3370
asS'S000001922'
p3371
(lp3372
g3
(g7
S'\x00\x00@A'
p3373
tp3374
Rp3375
ag3
(g7
S'\x00\x00@A'
p3376
tp3377
Rp3378
asS'S000000019'
p3379
(lp3380
g3
(g7
S'\x00\x00@A'
p3381
tp3382
Rp3383
ag3
(g7
S'\x00\x00@A'
p3384
tp3385
Rp3386
asS'S000004205'
p3387
(lp3388
g3
(g7
S'\x00\x00@A'
p3389
tp3390
Rp3391
asS'S000004204'
p3392
(lp3393
g3
(g7
S'\x00\x00@A'
p3394
tp3395
Rp3396
asS'S000004207'
p3397
(lp3398
g3
(g7
S'\x00\x00@A'
p3399
tp3400
Rp3401
asS'S000000017'
p3402
(lp3403
g3
(g7
S'\x00\x00@A'
p3404
tp3405
Rp3406
ag3
(g7
S'\x00\x00@A'
p3407
tp3408
Rp3409
ag3
(g7
S'\x00\x00@A'
p3410
tp3411
Rp3412
asS'S000000011'
p3413
(lp3414
g3
(g7
S'\x00\x00@A'
p3415
tp3416
Rp3417
asS'S000000012'
p3418
(lp3419
g3
(g7
S'\x00\x00@A'
p3420
tp3421
Rp3422
ag3
(g7
S'\x00\x00@A'
p3423
tp3424
Rp3425
asS'S000000013'
p3426
(lp3427
g3
(g7
S'\x00\x00@A'
p3428
tp3429
Rp3430
asS'S000002899'
p3431
(lp3432
g3
(g7
S'\x00\x00@A'
p3433
tp3434
Rp3435
asS'S000002891'
p3436
(lp3437
g3
(g7
S'\x00\x00@A'
p3438
tp3439
Rp3440
asS'S000002896'
p3441
(lp3442
g3
(g7
S'\x00\x00@A'
p3443
tp3444
Rp3445
asS'S000002894'
p3446
(lp3447
g3
(g7
S'\x00\x00@A'
p3448
tp3449
Rp3450
asS'S000002895'
p3451
(lp3452
g3
(g7
S'\x00\x00@A'
p3453
tp3454
Rp3455
ag3
(g7
S'\x00\x00@A'
p3456
tp3457
Rp3458
asS'S000004025'
p3459
(lp3460
g3
(g7
S'\x00\x00@A'
p3461
tp3462
Rp3463
asS'S000004024'
p3464
(lp3465
g3
(g7
S'\x00\x00@A'
p3466
tp3467
Rp3468
ag3
(g7
S'\x00\x00@A'
p3469
tp3470
Rp3471
asS'S000004849'
p3472
(lp3473
g3
(g7
S'\x00\x00@A'
p3474
tp3475
Rp3476
asS'S000004026'
p3477
(lp3478
g3
(g7
S'\x00\x00@A'
p3479
tp3480
Rp3481
asS'S000004023'
p3482
(lp3483
g3
(g7
S'\x00\x00@A'
p3484
tp3485
Rp3486
asS'S000004029'
p3487
(lp3488
g3
(g7
S'\x00\x00@A'
p3489
tp3490
Rp3491
ag3
(g7
S'\x00\x00@A'
p3492
tp3493
Rp3494
asS'S000004028'
p3495
(lp3496
g3
(g7
S'\x00\x00@A'
p3497
tp3498
Rp3499
ag3
(g7
S'\x00\x00@A'
p3500
tp3501
Rp3502
asS'S000001127'
p3503
(lp3504
g3
(g7
S'\x00\x00@A'
p3505
tp3506
Rp3507
ag3
(g7
S'\x00\x00@A'
p3508
tp3509
Rp3510
asS'S000002518'
p3511
(lp3512
g3
(g7
S'\x00\x00@A'
p3513
tp3514
Rp3515
asS'S000001123'
p3516
(lp3517
g3
(g7
S'\x00\x00@A'
p3518
tp3519
Rp3520
asS'S000001122'
p3521
(lp3522
g3
(g7
S'\x00\x00@A'
p3523
tp3524
Rp3525
asS'S000004441'
p3526
(lp3527
g3
(g7
S'\x00\x00@A'
p3528
tp3529
Rp3530
asS'S000001120'
p3531
(lp3532
g3
(g7
S'\x00\x00@A'
p3533
tp3534
Rp3535
asS'S000004449'
p3536
(lp3537
g3
(g7
S'\x00\x00@A'
p3538
tp3539
Rp3540
asS'S000004448'
p3541
(lp3542
g3
(g7
S'\x00\x00@A'
p3543
tp3544
Rp3545
asS'S000004159'
p3546
(lp3547
g3
(g7
S'\x00\x00@A'
p3548
tp3549
Rp3550
ag3
(g7
S'\x00\x00@A'
p3551
tp3552
Rp3553
asS'S000002475'
p3554
(lp3555
g3
(g7
S'\x00\x00@A'
p3556
tp3557
Rp3558
asS'S000005311'
p3559
(lp3560
g3
(g7
S'\x00\x00@A'
p3561
tp3562
Rp3563
asS'S000001309'
p3564
(lp3565
g3
(g7
S'\x00\x00@A'
p3566
tp3567
Rp3568
asS'S000001308'
p3569
(lp3570
g3
(g7
S'\x00\x00@A'
p3571
tp3572
Rp3573
asS'S000004151'
p3574
(lp3575
g3
(g7
S'\x00\x00@A'
p3576
tp3577
Rp3578
asS'S000004150'
p3579
(lp3580
g3
(g7
S'\x00\x00@A'
p3581
tp3582
Rp3583
asS'S000001657'
p3584
(lp3585
g3
(g7
S'\x00\x00@A'
p3586
tp3587
Rp3588
asS'S000001302'
p3589
(lp3590
g3
(g7
S'\x00\x00@A'
p3591
tp3592
Rp3593
asS'S000001301'
p3594
(lp3595
g3
(g7
S'\x00\x00@A'
p3596
tp3597
Rp3598
ag3
(g7
S'\x00\x00@A'
p3599
tp3600
Rp3601
asS'S000005794'
p3602
(lp3603
g3
(g7
S'\x00\x00@A'
p3604
tp3605
Rp3606
ag3
(g7
S'\x00\x00@A'
p3607
tp3608
Rp3609
asS'S000005795'
p3610
(lp3611
g3
(g7
S'\x00\x00@A'
p3612
tp3613
Rp3614
asS'S000005000'
p3615
(lp3616
g3
(g7
S'\x00\x00@A'
p3617
tp3618
Rp3619
ag3
(g7
S'\x00\x00@A'
p3620
tp3621
Rp3622
asS'S000005001'
p3623
(lp3624
g3
(g7
S'\x00\x00@A'
p3625
tp3626
Rp3627
asS'S000005550'
p3628
(lp3629
g3
(g7
S'\x00\x00@A'
p3630
tp3631
Rp3632
asS'S000005551'
p3633
(lp3634
g3
(g7
S'\x00\x00@A'
p3635
tp3636
Rp3637
asS'S000000110'
p3638
(lp3639
g3
(g7
S'\x00\x00@A'
p3640
tp3641
Rp3642
ag3
(g7
S'\x00\x00@A'
p3643
tp3644
Rp3645
asS'S000001013'
p3646
(lp3647
g3
(g7
S'\x00\x00@A'
p3648
tp3649
Rp3650
asS'S000004532'
p3651
(lp3652
g3
(g7
S'\x00\x00@A'
p3653
tp3654
Rp3655
asS'S000001011'
p3656
(lp3657
g3
(g7
S'\x00\x00@A'
p3658
tp3659
Rp3660
asS'S000004530'
p3661
(lp3662
g3
(g7
S'\x00\x00@A'
p3663
tp3664
Rp3665
asS'S000001016'
p3666
(lp3667
g3
(g7
S'\x00\x00@A'
p3668
tp3669
Rp3670
asS'S000001752'
p3671
(lp3672
g3
(g7
S'\x00\x00@A'
p3673
tp3674
Rp3675
asS'S000006597'
p3676
(lp3677
g3
(g7
S'\x00\x00@A'
p3678
tp3679
Rp3680
asS'S000002276'
p3681
(lp3682
g3
(g7
S'\x00\x00@A'
p3683
tp3684
Rp3685
asS'S000005773'
p3686
(lp3687
g3
(g7
S'\x00\x00@A'
p3688
tp3689
Rp3690
ag3
(g7
S'\x00\x00@A'
p3691
tp3692
Rp3693
asS'S000002274'
p3694
(lp3695
g3
(g7
S'\x00\x00@A'
p3696
tp3697
Rp3698
asS'S000002272'
p3699
(lp3700
g3
(g7
S'\x00\x00@A'
p3701
tp3702
Rp3703
asS'S000002273'
p3704
(lp3705
g3
(g7
S'\x00\x00@A'
p3706
tp3707
Rp3708
asS'S000005774'
p3709
(lp3710
g3
(g7
S'\x00\x00@A'
p3711
tp3712
Rp3713
asS'S000005951'
p3714
(lp3715
g3
(g7
S'\x00\x00@A'
p3716
tp3717
Rp3718
ag3
(g7
S'\x00\x00@A'
p3719
tp3720
Rp3721
asS'S000001272'
p3722
(lp3723
g3
(g7
S'\x00\x00@A'
p3724
tp3725
Rp3726
asS'S000000117'
p3727
(lp3728
g3
(g7
S'\x00\x00@A'
p3729
tp3730
Rp3731
asS'S000001786'
p3732
(lp3733
g3
(g7
S'\x00\x00@A'
p3734
tp3735
Rp3736
ag3
(g7
S'\x00\x00@A'
p3737
tp3738
Rp3739
asS'S000001785'
p3740
(lp3741
g3
(g7
S'\x00\x00@A'
p3742
tp3743
Rp3744
ag3
(g7
S'\x00\x00@A'
p3745
tp3746
Rp3747
asS'S000028567'
p3748
(lp3749
g3
(g7
S'\x00\x00@A'
p3750
tp3751
Rp3752
ag3
(g7
S'\x00\x00@A'
p3753
tp3754
Rp3755
asS'S000004712'
p3756
(lp3757
g3
(g7
S'\x00\x00@A'
p3758
tp3759
Rp3760
asS'S000006372'
p3761
(lp3762
g3
(g7
S'\x00\x00@A'
p3763
tp3764
Rp3765
asS'S000003251'
p3766
(lp3767
g3
(g7
S'\x00\x00@A'
p3768
tp3769
Rp3770
ag3
(g7
S'\x00\x00@A'
p3771
tp3772
Rp3773
asS'S000003250'
p3774
(lp3775
g3
(g7
S'\x00\x00@A'
p3776
tp3777
Rp3778
asS'S000003256'
p3779
(lp3780
g3
(g7
S'\x00\x00@A'
p3781
tp3782
Rp3783
asS'S000003255'
p3784
(lp3785
g3
(g7
S'\x00\x00@A'
p3786
tp3787
Rp3788
asS'S000003254'
p3789
(lp3790
g3
(g7
S'\x00\x00@A'
p3791
tp3792
Rp3793
asS'S000003785'
p3794
(lp3795
g3
(g7
S'\x00\x00@A'
p3796
tp3797
Rp3798
asS'S000003784'
p3799
(lp3800
g3
(g7
S'\x00\x00@A'
p3801
tp3802
Rp3803
asS'S000003781'
p3804
(lp3805
g3
(g7
S'\x00\x00@A'
p3806
tp3807
Rp3808
ag3
(g7
S'\x00\x00@A'
p3809
tp3810
Rp3811
asS'S000002659'
p3812
(lp3813
g3
(g7
S'\x00\x00@A'
p3814
tp3815
Rp3816
asS'S000003783'
p3817
(lp3818
g3
(g7
S'\x00\x00@A'
p3819
tp3820
Rp3821
asS'S000003782'
p3822
(lp3823
g3
(g7
S'\x00\x00@A'
p3824
tp3825
Rp3826
asS'S000002657'
p3827
(lp3828
g3
(g7
S'\x00\x00@A'
p3829
tp3830
Rp3831
asS'S000001874'
p3832
(lp3833
g3
(g7
S'\x00\x00@A'
p3834
tp3835
Rp3836
asS'S000001877'
p3837
(lp3838
g3
(g7
S'\x00\x00@A'
p3839
tp3840
Rp3841
ag3
(g7
S'\x00\x00@A'
p3842
tp3843
Rp3844
asS'S000001873'
p3845
(lp3846
g3
(g7
S'\x00\x00@A'
p3847
tp3848
Rp3849
asS'S000001872'
p3850
(lp3851
g3
(g7
S'\x00\x00@A'
p3852
tp3853
Rp3854
asS'S000001878'
p3855
(lp3856
g3
(g7
S'\x00\x00@A'
p3857
tp3858
Rp3859
asS'S000003656'
p3860
(lp3861
g3
(g7
S'\x00\x00@A'
p3862
tp3863
Rp3864
asS'S000002789'
p3865
(lp3866
g3
(g7
S'\x00\x00@A'
p3867
tp3868
Rp3869
asS'S000002786'
p3870
(lp3871
g3
(g7
S'\x00\x00@A'
p3872
tp3873
Rp3874
asS'S000002787'
p3875
(lp3876
g3
(g7
S'\x00\x00@A'
p3877
tp3878
Rp3879
asS'S000005174'
p3880
(lp3881
g3
(g7
S'\x00\x00@A'
p3882
tp3883
Rp3884
asS'S000003658'
p3885
(lp3886
g3
(g7
S'\x00\x00@A'
p3887
tp3888
Rp3889
ag3
(g7
S'\x00\x00@A'
p3890
tp3891
Rp3892
asS'S000003083'
p3893
(lp3894
g3
(g7
S'\x00\x00@A'
p3895
tp3896
Rp3897
ag3
(g7
S'\x00\x00@A'
p3898
tp3899
Rp3900
asS'S000003436'
p3901
(lp3902
g3
(g7
S'\x00\x00@A'
p3903
tp3904
Rp3905
asS'S000003434'
p3906
(lp3907
g3
(g7
S'\x00\x00@A'
p3908
tp3909
Rp3910
asS'S000006151'
p3911
(lp3912
g3
(g7
S'\x00\x00@A'
p3913
tp3914
Rp3915
asS'S000006150'
p3916
(lp3917
g3
(g7
S'\x00\x00@A'
p3918
tp3919
Rp3920
ag3
(g7
S'\x00\x00@A'
p3921
tp3922
Rp3923
asS'S000005712'
p3924
(lp3925
g3
(g7
S'\x00\x00@A'
p3926
tp3927
Rp3928
asS'S000005041'
p3929
(lp3930
g3
(g7
S'\x00\x00@A'
p3931
tp3932
Rp3933
asS'S000000820'
p3934
(lp3935
g3
(g7
S'\x00\x00@A'
p3936
tp3937
Rp3938
asS'S000000823'
p3939
(lp3940
g3
(g7
S'\x00\x00@A'
p3941
tp3942
Rp3943
asS'S000000534'
p3944
(lp3945
g3
(g7
S'\x00\x00@A'
p3946
tp3947
Rp3948
ag3
(g7
S'\x00\x00@A'
p3949
tp3950
Rp3951
asS'S000000533'
p3952
(lp3953
g3
(g7
S'\x00\x00@A'
p3954
tp3955
Rp3956
asS'S000000824'
p3957
(lp3958
g3
(g7
S'\x00\x00@A'
p3959
tp3960
Rp3961
asS'S000000827'
p3962
(lp3963
g3
(g7
S'\x00\x00@A'
p3964
tp3965
Rp3966
asS'S000000530'
p3967
(lp3968
g3
(g7
S'\x00\x00@A'
p3969
tp3970
Rp3971
ag3
(g7
S'\x00\x00@A'
p3972
tp3973
Rp3974
asS'S000007336'
p3975
(lp3976
g3
(g7
S'\x00\x00@A'
p3977
tp3978
Rp3979
asS'S000001760'
p3980
(lp3981
g3
(g7
S'\x00\x00@A'
p3982
tp3983
Rp3984
asS'S000003323'
p3985
(lp3986
g3
(g7
S'\x00\x00@A'
p3987
tp3988
Rp3989
ag3
(g7
S'\x00\x00@A'
p3990
tp3991
Rp3992
ag3
(g7
S'\x00\x00@A'
p3993
tp3994
Rp3995
asS'S000003322'
p3996
(lp3997
g3
(g7
S'\x00\x00@A'
p3998
tp3999
Rp4000
asS'S000003320'
p4001
(lp4002
g3
(g7
S'\x00\x00@A'
p4003
tp4004
Rp4005
ag3
(g7
S'\x00\x00@A'
p4006
tp4007
Rp4008
asS'S000003326'
p4009
(lp4010
g3
(g7
S'\x00\x00@A'
p4011
tp4012
Rp4013
asS'S000006552'
p4014
(lp4015
g3
(g7
S'\x00\x00@A'
p4016
tp4017
Rp4018
asS'S000006556'
p4019
(lp4020
g3
(g7
S'\x00\x00@A'
p4021
tp4022
Rp4023
asS'S000004967'
p4024
(lp4025
g3
(g7
S'\x00\x00@A'
p4026
tp4027
Rp4028
asS'S000001443'
p4029
(lp4030
g3
(g7
S'\x00\x00@A'
p4031
tp4032
Rp4033
asS'S000000224'
p4034
(lp4035
g3
(g7
S'\x00\x00@A'
p4036
tp4037
Rp4038
asS'S000002863'
p4039
(lp4040
g3
(g7
S'\x00\x00@A'
p4041
tp4042
Rp4043
asS'S000002861'
p4044
(lp4045
g3
(g7
S'\x00\x00@A'
p4046
tp4047
Rp4048
asS'S000002860'
p4049
(lp4050
g3
(g7
S'\x00\x00@A'
p4051
tp4052
Rp4053
ag3
(g7
S'\x00\x00@A'
p4054
tp4055
Rp4056
asS'S000002868'
p4057
(lp4058
g3
(g7
S'\x00\x00@A'
p4059
tp4060
Rp4061
asS'S000006374'
p4062
(lp4063
g3
(g7
S'\x00\x00@A'
p4064
tp4065
Rp4066
asS'S000004969'
p4067
(lp4068
g3
(g7
S'\x00\x00@A'
p4069
tp4070
Rp4071
asS'S000000641'
p4072
(lp4073
g3
(g7
S'\x00\x00@A'
p4074
tp4075
Rp4076
asS'S000000640'
p4077
(lp4078
g3
(g7
S'\x00\x00@A'
p4079
tp4080
Rp4081
ag3
(g7
S'\x00\x00@A'
p4082
tp4083
Rp4084
asS'S000000643'
p4085
(lp4086
g3
(g7
S'\x00\x00@A'
p4087
tp4088
Rp4089
ag3
(g7
S'\x00\x00@A'
p4090
tp4091
Rp4092
asS'S000000311'
p4093
(lp4094
g3
(g7
S'\x00\x00@A'
p4095
tp4096
Rp4097
ag3
(g7
S'\x00\x00@A'
p4098
tp4099
Rp4100
ag3
(g7
S'\x00\x00@A'
p4101
tp4102
Rp4103
asS'S000005447'
p4104
(lp4105
g3
(g7
S'\x00\x00@A'
p4106
tp4107
Rp4108
asS'S000003877'
p4109
(lp4110
g3
(g7
S'\x00\x00@A'
p4111
tp4112
Rp4113
asS'S000000798'
p4114
(lp4115
g3
(g7
S'\x00\x00@A'
p4116
tp4117
Rp4118
asS'S000000793'
p4119
(lp4120
g3
(g7
S'\x00\x00@A'
p4121
tp4122
Rp4123
asS'S000000791'
p4124
(lp4125
g3
(g7
S'\x00\x00@A'
p4126
tp4127
Rp4128
asS'S000000797'
p4129
(lp4130
g3
(g7
S'\x00\x00@A'
p4131
tp4132
Rp4133
ag3
(g7
S'\x00\x00@A'
p4134
tp4135
Rp4136
asS'S000000794'
p4137
(lp4138
g3
(g7
S'\x00\x00@A'
p4139
tp4140
Rp4141
asS'S000000002'
p4142
(lp4143
g3
(g7
S'\x00\x00@A'
p4144
tp4145
Rp4146
asS'S000004234'
p4147
(lp4148
g3
(g7
S'\x00\x00@A'
p4149
tp4150
Rp4151
asS'S000000006'
p4152
(lp4153
g3
(g7
S'\x00\x00@A'
p4154
tp4155
Rp4156
ag3
(g7
S'\x00\x00@A'
p4157
tp4158
Rp4159
asS'S000004236'
p4160
(lp4161
g3
(g7
S'\x00\x00@A'
p4162
tp4163
Rp4164
asS'S000000009'
p4165
(lp4166
g3
(g7
S'\x00\x00@A'
p4167
tp4168
Rp4169
asS'S000000008'
p4170
(lp4171
g3
(g7
S'\x00\x00@A'
p4172
tp4173
Rp4174
ag3
(g7
S'\x00\x00@A'
p4175
tp4176
Rp4177
asS'S000002889'
p4178
(lp4179
g3
(g7
S'\x00\x00@A'
p4180
tp4181
Rp4182
asS'S000000647'
p4183
(lp4184
g3
(g7
S'\x00\x00@A'
p4185
tp4186
Rp4187
asS'S000002886'
p4188
(lp4189
g3
(g7
S'\x00\x00@A'
p4190
tp4191
Rp4192
asS'S000002813'
p4193
(lp4194
g3
(g7
S'\x00\x00@A'
p4195
tp4196
Rp4197
ag3
(g7
S'\x00\x00@A'
p4198
tp4199
Rp4200
asS'S000004781'
p4201
(lp4202
g3
(g7
S'\x00\x00@A'
p4203
tp4204
Rp4205
asS'S000004782'
p4206
(lp4207
g3
(g7
S'\x00\x00@A'
p4208
tp4209
Rp4210
ag3
(g7
S'\x00\x00@A'
p4211
tp4212
Rp4213
asS'S000004784'
p4214
(lp4215
g3
(g7
S'\x00\x00@A'
p4216
tp4217
Rp4218
ag3
(g7
S'\x00\x00@A'
p4219
tp4220
Rp4221
asS'S000004785'
p4222
(lp4223
g3
(g7
S'\x00\x00@A'
p4224
tp4225
Rp4226
ag3
(g7
S'\x00\x00@A'
p4227
tp4228
Rp4229
asS'S000004787'
p4230
(lp4231
g3
(g7
S'\x00\x00@A'
p4232
tp4233
Rp4234
asS'S000001167'
p4235
(lp4236
g3
(g7
S'\x00\x00@A'
p4237
tp4238
Rp4239
asS'S000003921'
p4240
(lp4241
g3
(g7
S'\x00\x00@A'
p4242
tp4243
Rp4244
asS'S000004308'
p4245
(lp4246
g3
(g7
S'\x00\x00@A'
p4247
tp4248
Rp4249
asS'S000004309'
p4250
(lp4251
g3
(g7
S'\x00\x00@A'
p4252
tp4253
Rp4254
ag3
(g7
S'\x00\x00@A'
p4255
tp4256
Rp4257
asS'S000003007'
p4258
(lp4259
g3
(g7
S'\x00\x00@A'
p4260
tp4261
Rp4262
asS'S000004169'
p4263
(lp4264
g3
(g7
S'\x00\x00@A'
p4265
tp4266
Rp4267
ag3
(g7
S'\x00\x00@A'
p4268
tp4269
Rp4270
asS'S000001668'
p4271
(lp4272
g3
(g7
S'\x00\x00@A'
p4273
tp4274
Rp4275
asS'S000001669'
p4276
(lp4277
g3
(g7
S'\x00\x00@A'
p4278
tp4279
Rp4280
asS'S000004160'
p4281
(lp4282
g3
(g7
S'\x00\x00@A'
p4283
tp4284
Rp4285
asS'S000004161'
p4286
(lp4287
g3
(g7
S'\x00\x00@A'
p4288
tp4289
Rp4290
asS'S000004162'
p4291
(lp4292
g3
(g7
S'\x00\x00@A'
p4293
tp4294
Rp4295
asS'S000001462'
p4296
(lp4297
g3
(g7
S'\x00\x00@A'
p4298
tp4299
Rp4300
asS'S000001460'
p4301
(lp4302
g3
(g7
S'\x00\x00@A'
p4303
tp4304
Rp4305
asS'S000004619'
p4306
(lp4307
g3
(g7
S'\x00\x00@A'
p4308
tp4309
Rp4310
asS'S000004946'
p4311
(lp4312
g3
(g7
S'\x00\x00@A'
p4313
tp4314
Rp4315
asS'S000004947'
p4316
(lp4317
g3
(g7
S'\x00\x00@A'
p4318
tp4319
Rp4320
asS'S000004494'
p4321
(lp4322
g3
(g7
S'\x00\x00@A'
p4323
tp4324
Rp4325
ag3
(g7
S'\x00\x00@A'
p4326
tp4327
Rp4328
asS'S000004490'
p4329
(lp4330
g3
(g7
S'\x00\x00@A'
p4331
tp4332
Rp4333
asS'S000005962'
p4334
(lp4335
g3
(g7
S'\x00\x00@A'
p4336
tp4337
Rp4338
asS'S000005787'
p4339
(lp4340
g3
(g7
S'\x00\x00@A'
p4341
tp4342
Rp4343
asS'S000005786'
p4344
(lp4345
g3
(g7
S'\x00\x00@A'
p4346
tp4347
Rp4348
asS'S000005785'
p4349
(lp4350
g3
(g7
S'\x00\x00@A'
p4351
tp4352
Rp4353
asS'S000002241'
p4354
(lp4355
g3
(g7
S'\x00\x00@A'
p4356
tp4357
Rp4358
asS'S000002539'
p4359
(lp4360
g3
(g7
S'\x00\x00@A'
p4361
tp4362
Rp4363
asS'S000005014'
p4364
(lp4365
g3
(g7
S'\x00\x00@A'
p4366
tp4367
Rp4368
ag3
(g7
S'\x00\x00@A'
p4369
tp4370
Rp4371
asS'S000005545'
p4372
(lp4373
g3
(g7
S'\x00\x00@A'
p4374
tp4375
Rp4376
asS'S000003919'
p4377
(lp4378
g3
(g7
S'\x00\x00@A'
p4379
tp4380
Rp4381
asS'S000001068'
p4382
(lp4383
g3
(g7
S'\x00\x00@A'
p4384
tp4385
Rp4386
ag3
(g7
S'\x00\x00@A'
p4387
tp4388
Rp4389
ag3
(g7
S'\x00\x00@A'
p4390
tp4391
Rp4392
asS'S000005218'
p4393
(lp4394
g3
(g7
S'\x00\x00@A'
p4395
tp4396
Rp4397
ag3
(g7
S'\x00\x00@A'
p4398
tp4399
Rp4400
asS'S000001066'
p4401
(lp4402
g3
(g7
S'\x00\x00@A'
p4403
tp4404
Rp4405
asS'S000003916'
p4406
(lp4407
g3
(g7
S'\x00\x00@A'
p4408
tp4409
Rp4410
asS'S000004545'
p4411
(lp4412
g3
(g7
S'\x00\x00@A'
p4413
tp4414
Rp4415
ag3
(g7
S'\x00\x00@A'
p4416
tp4417
Rp4418
asS'S000004542'
p4419
(lp4420
g3
(g7
S'\x00\x00@A'
p4421
tp4422
Rp4423
asS'S000004015'
p4424
(lp4425
g3
(g7
S'\x00\x00@A'
p4426
tp4427
Rp4428
asS'S000003912'
p4429
(lp4430
g3
(g7
S'\x00\x00@A'
p4431
tp4432
Rp4433
asS'S000005018'
p4434
(lp4435
g3
(g7
S'\x00\x00@A'
p4436
tp4437
Rp4438
asS'S000004611'
p4439
(lp4440
g3
(g7
S'\x00\x00@A'
p4441
tp4442
Rp4443
asS'S000005949'
p4444
(lp4445
g3
(g7
S'\x00\x00@A'
p4446
tp4447
Rp4448
asS'S000002268'
p4449
(lp4450
g3
(g7
S'\x00\x00@A'
p4451
tp4452
Rp4453
asS'S000002265'
p4454
(lp4455
g3
(g7
S'\x00\x00@A'
p4456
tp4457
Rp4458
asS'S000005944'
p4459
(lp4460
g3
(g7
S'\x00\x00@A'
p4461
tp4462
Rp4463
asS'S000002267'
p4464
(lp4465
g3
(g7
S'\x00\x00@A'
p4466
tp4467
Rp4468
asS'S000005765'
p4469
(lp4470
g3
(g7
S'\x00\x00@A'
p4471
tp4472
Rp4473
asS'S000005940'
p4474
(lp4475
g3
(g7
S'\x00\x00@A'
p4476
tp4477
Rp4478
asS'S000005767'
p4479
(lp4480
g3
(g7
S'\x00\x00@A'
p4481
tp4482
Rp4483
ag3
(g7
S'\x00\x00@A'
p4484
tp4485
Rp4486
asS'S000001200'
p4487
(lp4488
g3
(g7
S'\x00\x00@A'
p4489
tp4490
Rp4491
asS'S000028574'
p4492
(lp4493
g3
(g7
S'\x00\x00@A'
p4494
tp4495
Rp4496
asS'S000028573'
p4497
(lp4498
g3
(g7
S'\x00\x00@A'
p4499
tp4500
Rp4501
asS'S000002463'
p4502
(lp4503
g3
(g7
S'\x00\x00@A'
p4504
tp4505
Rp4506
asS'S000002460'
p4507
(lp4508
g3
(g7
S'\x00\x00@A'
p4509
tp4510
Rp4511
asS'S000002467'
p4512
(lp4513
g3
(g7
S'\x00\x00@A'
p4514
tp4515
Rp4516
asS'S000002466'
p4517
(lp4518
g3
(g7
S'\x00\x00@A'
p4519
tp4520
Rp4521
asS'S000005304'
p4522
(lp4523
g3
(g7
S'\x00\x00@A'
p4524
tp4525
Rp4526
asS'S000028710'
p4527
(lp4528
g3
(g7
S'\x00\x00@A'
p4529
tp4530
Rp4531
asS'S000006306'
p4532
(lp4533
g3
(g7
S'\x00\x00@A'
p4534
tp4535
Rp4536
asS'S000006300'
p4537
(lp4538
g3
(g7
S'\x00\x00@A'
p4539
tp4540
Rp4541
asS'S000001518'
p4542
(lp4543
g3
(g7
S'\x00\x00@A'
p4544
tp4545
Rp4546
asS'S000002640'
p4547
(lp4548
g3
(g7
S'\x00\x00@A'
p4549
tp4550
Rp4551
asS'S000002647'
p4552
(lp4553
g3
(g7
S'\x00\x00@A'
p4554
tp4555
Rp4556
asS'S000002314'
p4557
(lp4558
g3
(g7
S'\x00\x00@A'
p4559
tp4560
Rp4561
asS'S000002316'
p4562
(lp4563
g3
(g7
S'\x00\x00@A'
p4564
tp4565
Rp4566
asS'S000002319'
p4567
(lp4568
g3
(g7
S'\x00\x00@A'
p4569
tp4570
Rp4571
asS'S000002318'
p4572
(lp4573
g3
(g7
S'\x00\x00@A'
p4574
tp4575
Rp4576
ag3
(g7
S'\x00\x00@A'
p4577
tp4578
Rp4579
asS'S000001842'
p4580
(lp4581
g3
(g7
S'\x00\x00@A'
p4582
tp4583
Rp4584
asS'S000001514'
p4585
(lp4586
g3
(g7
S'\x00\x00@A'
p4587
tp4588
Rp4589
asS'S000001688'
p4590
(lp4591
g3
(g7
S'\x00\x00@A'
p4592
tp4593
Rp4594
asS'S000001681'
p4595
(lp4596
g3
(g7
S'\x00\x00@A'
p4597
tp4598
Rp4599
ag3
(g7
S'\x00\x00@A'
p4600
tp4601
Rp4602
asS'S000001687'
p4603
(lp4604
g3
(g7
S'\x00\x00@A'
p4605
tp4606
Rp4607
asS'S000005168'
p4608
(lp4609
g3
(g7
S'\x00\x00@A'
p4610
tp4611
Rp4612
asS'S000003442'
p4613
(lp4614
g3
(g7
S'\x00\x00@A'
p4615
tp4616
Rp4617
asS'S000002794'
p4618
(lp4619
g3
(g7
S'\x00\x00@A'
p4620
tp4621
Rp4622
asS'S000005165'
p4623
(lp4624
g3
(g7
S'\x00\x00@A'
p4625
tp4626
Rp4627
asS'S000005164'
p4628
(lp4629
g3
(g7
S'\x00\x00@A'
p4630
tp4631
Rp4632
asS'S000005162'
p4633
(lp4634
g3
(g7
S'\x00\x00@A'
p4635
tp4636
Rp4637
asS'S000005160'
p4638
(lp4639
g3
(g7
S'\x00\x00@A'
p4640
tp4641
Rp4642
asS'S000003133'
p4643
(lp4644
g3
(g7
S'\x00\x00@A'
p4645
tp4646
Rp4647
asS'S000003130'
p4648
(lp4649
g3
(g7
S'\x00\x00@A'
p4650
tp4651
Rp4652
asS'S000003134'
p4653
(lp4654
g3
(g7
S'\x00\x00@A'
p4655
tp4656
Rp4657
ag3
(g7
S'\x00\x00@A'
p4658
tp4659
Rp4660
asS'S000003135'
p4661
(lp4662
g3
(g7
S'\x00\x00@A'
p4663
tp4664
Rp4665
ag3
(g7
S'\x00\x00@A'
p4666
tp4667
Rp4668
asS'S000003138'
p4669
(lp4670
g3
(g7
S'\x00\x00@A'
p4671
tp4672
Rp4673
asS'S000000169'
p4674
(lp4675
g3
(g7
S'\x00\x00@A'
p4676
tp4677
Rp4678
asS'S000006098'
p4679
(lp4680
g3
(g7
S'\x00\x00@A'
p4681
tp4682
Rp4683
ag3
(g7
S'\x00\x00@A'
p4684
tp4685
Rp4686
asS'S000006097'
p4687
(lp4688
g3
(g7
S'\x00\x00@A'
p4689
tp4690
Rp4691
asS'S000000817'
p4692
(lp4693
g3
(g7
S'\x00\x00@A'
p4694
tp4695
Rp4696
asS'S000000810'
p4697
(lp4698
g3
(g7
S'\x00\x00@A'
p4699
tp4700
Rp4701
ag3
(g7
S'\x00\x00@A'
p4702
tp4703
Rp4704
asS'S000000818'
p4705
(lp4706
g3
(g7
S'\x00\x00@A'
p4707
tp4708
Rp4709
asS'S000003356'
p4710
(lp4711
g3
(g7
S'\x00\x00@A'
p4712
tp4713
Rp4714
asS'S000004747'
p4715
(lp4716
g3
(g7
S'\x00\x00@A'
p4717
tp4718
Rp4719
asS'S000003353'
p4720
(lp4721
g3
(g7
S'\x00\x00@A'
p4722
tp4723
Rp4724
asS'S000003359'
p4725
(lp4726
g3
(g7
S'\x00\x00@A'
p4727
tp4728
Rp4729
asS'S000006524'
p4730
(lp4731
g3
(g7
S'\x00\x00@A'
p4732
tp4733
Rp4734
asS'S000006520'
p4735
(lp4736
g3
(g7
S'\x00\x00@A'
p4737
tp4738
Rp4739
ag3
(g7
S'\x00\x00@A'
p4740
tp4741
Rp4742
asS'S000006521'
p4743
(lp4744
g3
(g7
S'\x00\x00@A'
p4745
tp4746
Rp4747
ag3
(g7
S'\x00\x00@A'
p4748
tp4749
Rp4750
asS'S000004231'
p4751
(lp4752
g3
(g7
S'\x00\x00@A'
p4753
tp4754
Rp4755
asS'S000000253'
p4756
(lp4757
g3
(g7
S'\x00\x00@A'
p4758
tp4759
Rp4760
asS'S000000498'
p4761
(lp4762
g3
(g7
S'\x00\x00@A'
p4763
tp4764
Rp4765
asS'S000000007'
p4766
(lp4767
g3
(g7
S'\x00\x00@A'
p4768
tp4769
Rp4770
asS'S000000492'
p4771
(lp4772
g3
(g7
S'\x00\x00@A'
p4773
tp4774
Rp4775
asS'S000000493'
p4776
(lp4777
g3
(g7
S'\x00\x00@A'
p4778
tp4779
Rp4780
asS'S000000494'
p4781
(lp4782
g3
(g7
S'\x00\x00@A'
p4783
tp4784
Rp4785
asS'S000000497'
p4786
(lp4787
g3
(g7
S'\x00\x00@A'
p4788
tp4789
Rp4790
asS'S000006630'
p4791
(lp4792
g3
(g7
S'\x00\x00@A'
p4793
tp4794
Rp4795
asS'S000006634'
p4796
(lp4797
g3
(g7
S'\x00\x00@A'
p4798
tp4799
Rp4800
ag3
(g7
S'\x00\x00@A'
p4801
tp4802
Rp4803
asS'S000003203'
p4804
(lp4805
g3
(g7
S'\x00\x00@A'
p4806
tp4807
Rp4808
asS'S000000679'
p4809
(lp4810
g3
(g7
S'\x00\x00@A'
p4811
tp4812
Rp4813
asS'S000000677'
p4814
(lp4815
g3
(g7
S'\x00\x00@A'
p4816
tp4817
Rp4818
asS'S000000671'
p4819
(lp4820
g3
(g7
S'\x00\x00@A'
p4821
tp4822
Rp4823
ag3
(g7
S'\x00\x00@A'
p4824
tp4825
Rp4826
asS'S000000673'
p4827
(lp4828
g3
(g7
S'\x00\x00@A'
p4829
tp4830
Rp4831
asS'S000003207'
p4832
(lp4833
g3
(g7
S'\x00\x00@A'
p4834
tp4835
Rp4836
ag3
(g7
S'\x00\x00@A'
p4837
tp4838
Rp4839
asS'S000028586'
p4840
(lp4841
g3
(g7
S'\x00\x00@A'
p4842
tp4843
Rp4844
asS'S000004227'
p4845
(lp4846
g3
(g7
S'\x00\x00@A'
p4847
tp4848
Rp4849
asS'S000000072'
p4850
(lp4851
g3
(g7
S'\x00\x00@A'
p4852
tp4853
Rp4854
asS'S000004221'
p4855
(lp4856
g3
(g7
S'\x00\x00@A'
p4857
tp4858
Rp4859
ag3
(g7
S'\x00\x00@A'
p4860
tp4861
Rp4862
asS'S000002230'
p4863
(lp4864
g3
(g7
S'\x00\x00@A'
p4865
tp4866
Rp4867
asS'S000003093'
p4868
(lp4869
g3
(g7
S'\x00\x00@A'
p4870
tp4871
Rp4872
ag3
(g7
S'\x00\x00@A'
p4873
tp4874
Rp4875
ag3
(g7
S'\x00\x00@A'
p4876
tp4877
Rp4878
asS'S000005347'
p4879
(lp4880
g3
(g7
S'\x00\x00@A'
p4881
tp4882
Rp4883
asS'S000004936'
p4884
(lp4885
g3
(g7
S'\x00\x00@A'
p4886
tp4887
Rp4888
asS'S000004797'
p4889
(lp4890
g3
(g7
S'\x00\x00@A'
p4891
tp4892
Rp4893
asS'S000004796'
p4894
(lp4895
g3
(g7
S'\x00\x00@A'
p4896
tp4897
Rp4898
asS'S000004795'
p4899
(lp4900
g3
(g7
S'\x00\x00@A'
p4901
tp4902
Rp4903
asS'S000004826'
p4904
(lp4905
g3
(g7
S'\x00\x00@A'
p4906
tp4907
Rp4908
asS'S000004821'
p4909
(lp4910
g3
(g7
S'\x00\x00@A'
p4911
tp4912
Rp4913
asS'S000001143'
p4914
(lp4915
g3
(g7
S'\x00\x00@A'
p4916
tp4917
Rp4918
asS'S000004420'
p4919
(lp4920
g3
(g7
S'\x00\x00@A'
p4921
tp4922
Rp4923
ag3
(g7
S'\x00\x00@A'
p4924
tp4925
Rp4926
ag3
(g7
S'\x00\x00@A'
p4927
tp4928
Rp4929
asS'S000004790'
p4930
(lp4931
g3
(g7
S'\x00\x00@A'
p4932
tp4933
Rp4934
asS'S000001414'
p4935
(lp4936
g3
(g7
S'\x00\x00@A'
p4937
tp4938
Rp4939
asS'S000001413'
p4940
(lp4941
g3
(g7
S'\x00\x00@A'
p4942
tp4943
Rp4944
asS'S000001144'
p4945
(lp4946
g3
(g7
S'\x00\x00@A'
p4947
tp4948
Rp4949
asS'S000004319'
p4950
(lp4951
g3
(g7
S'\x00\x00@A'
p4952
tp4953
Rp4954
asS'S000000109'
p4955
(lp4956
g3
(g7
S'\x00\x00@A'
p4957
tp4958
Rp4959
ag3
(g7
S'\x00\x00@A'
p4960
tp4961
Rp4962
asS'S000001147'
p4963
(lp4964
g3
(g7
S'\x00\x00@A'
p4965
tp4966
Rp4967
asS'S000004313'
p4968
(lp4969
g3
(g7
S'\x00\x00@A'
p4970
tp4971
Rp4972
ag3
(g7
S'\x00\x00@A'
p4973
tp4974
Rp4975
asS'S000004310'
p4976
(lp4977
g3
(g7
S'\x00\x00@A'
p4978
tp4979
Rp4980
asS'S000004316'
p4981
(lp4982
g3
(g7
S'\x00\x00@A'
p4983
tp4984
Rp4985
ag3
(g7
S'\x00\x00@A'
p4986
tp4987
Rp4988
asS'S000004428'
p4989
(lp4990
g3
(g7
S'\x00\x00@A'
p4991
tp4992
Rp4993
asS'S000004172'
p4994
(lp4995
g3
(g7
S'\x00\x00@A'
p4996
tp4997
Rp4998
ag3
(g7
S'\x00\x00@A'
p4999
tp5000
Rp5001
asS'S000004170'
p5002
(lp5003
g3
(g7
S'\x00\x00@A'
p5004
tp5005
Rp5006
asS'S000004176'
p5007
(lp5008
g3
(g7
S'\x00\x00@A'
p5009
tp5010
Rp5011
asS'S000001671'
p5012
(lp5013
g3
(g7
S'\x00\x00@A'
p5014
tp5015
Rp5016
asS'S000004833'
p5017
(lp5018
g3
(g7
S'\x00\x00@A'
p5019
tp5020
Rp5021
asS'S000001470'
p5022
(lp5023
g3
(g7
S'\x00\x00@A'
p5024
tp5025
Rp5026
ag3
(g7
S'\x00\x00@A'
p5027
tp5028
Rp5029
asS'S000004953'
p5030
(lp5031
g3
(g7
S'\x00\x00@A'
p5032
tp5033
Rp5034
asS'S000001472'
p5035
(lp5036
g3
(g7
S'\x00\x00@A'
p5037
tp5038
Rp5039
asS'S000004487'
p5040
(lp5041
g3
(g7
S'\x00\x00@A'
p5042
tp5043
Rp5044
ag3
(g7
S'\x00\x00@A'
p5045
tp5046
Rp5047
asS'S000004954'
p5048
(lp5049
g3
(g7
S'\x00\x00@A'
p5050
tp5051
Rp5052
asS'S000004956'
p5053
(lp5054
g3
(g7
S'\x00\x00@A'
p5055
tp5056
Rp5057
asS'S000004959'
p5058
(lp5059
g3
(g7
S'\x00\x00@A'
p5060
tp5061
Rp5062
asS'S000004489'
p5063
(lp5064
g3
(g7
S'\x00\x00@A'
p5065
tp5066
Rp5067
asS'S000005575'
p5068
(lp5069
g3
(g7
S'\x00\x00@A'
p5070
tp5071
Rp5072
asS'S000003906'
p5073
(lp5074
g3
(g7
S'\x00\x00@A'
p5075
tp5076
Rp5077
asS'S000003905'
p5078
(lp5079
g3
(g7
S'\x00\x00@A'
p5080
tp5081
Rp5082
asS'S000003904'
p5083
(lp5084
g3
(g7
S'\x00\x00@A'
p5085
tp5086
Rp5087
asS'S000004007'
p5088
(lp5089
g3
(g7
S'\x00\x00@A'
p5090
tp5091
Rp5092
ag3
(g7
S'\x00\x00@A'
p5093
tp5094
Rp5095
asS'S000004006'
p5096
(lp5097
g3
(g7
S'\x00\x00@A'
p5098
tp5099
Rp5100
ag3
(g7
S'\x00\x00@A'
p5101
tp5102
Rp5103
asS'S000004005'
p5104
(lp5105
g3
(g7
S'\x00\x00@A'
p5106
tp5107
Rp5108
asS'S000003908'
p5109
(lp5110
g3
(g7
S'\x00\x00@A'
p5111
tp5112
Rp5113
asS'S000004003'
p5114
(lp5115
g3
(g7
S'\x00\x00@A'
p5116
tp5117
Rp5118
asS'S000005579'
p5119
(lp5120
g3
(g7
S'\x00\x00@A'
p5121
tp5122
Rp5123
asS'S000004553'
p5124
(lp5125
g3
(g7
S'\x00\x00@A'
p5126
tp5127
Rp5128
asS'S000001072'
p5129
(lp5130
g3
(g7
S'\x00\x00@A'
p5131
tp5132
Rp5133
asS'S000002522'
p5134
(lp5135
g3
(g7
S'\x00\x00@A'
p5136
tp5137
Rp5138
asS'S000002252'
p5139
(lp5140
g3
(g7
S'\x00\x00@A'
p5141
tp5142
Rp5143
asS'S000005201'
p5144
(lp5145
g3
(g7
S'\x00\x00@A'
p5146
tp5147
Rp5148
asS'S000002526'
p5149
(lp5150
g3
(g7
S'\x00\x00@A'
p5151
tp5152
Rp5153
asS'S000002527'
p5154
(lp5155
g3
(g7
S'\x00\x00@A'
p5156
tp5157
Rp5158
ag3
(g7
S'\x00\x00@A'
p5159
tp5160
Rp5161
ag3
(g7
S'\x00\x00@A'
p5162
tp5163
Rp5164
asS'S000005976'
p5165
(lp5166
g3
(g7
S'\x00\x00@A'
p5167
tp5168
Rp5169
ag3
(g7
S'\x00\x00@A'
p5170
tp5171
Rp5172
asS'S000002258'
p5173
(lp5174
g3
(g7
S'\x00\x00@A'
p5175
tp5176
Rp5177
asS'S000002528'
p5178
(lp5179
g3
(g7
S'\x00\x00@A'
p5180
tp5181
Rp5182
asS'S000002529'
p5183
(lp5184
g3
(g7
S'\x00\x00@A'
p5185
tp5186
Rp5187
ag3
(g7
S'\x00\x00@A'
p5188
tp5189
Rp5190
asS'S000005751'
p5191
(lp5192
g3
(g7
S'\x00\x00@A'
p5193
tp5194
Rp5195
asS'S000001210'
p5196
(lp5197
g3
(g7
S'\x00\x00@A'
p5198
tp5199
Rp5200
asS'S000001212'
p5201
(lp5202
g3
(g7
S'\x00\x00@A'
p5203
tp5204
Rp5205
asS'S000001218'
p5206
(lp5207
g3
(g7
S'\x00\x00@A'
p5208
tp5209
Rp5210
asS'S000003725'
p5211
(lp5212
g3
(g7
S'\x00\x00@A'
p5213
tp5214
Rp5215
asS'S000005681'
p5216
(lp5217
g3
(g7
S'\x00\x00@A'
p5218
tp5219
Rp5220
ag3
(g7
S'\x00\x00@A'
p5221
tp5222
Rp5223
ag3
(g7
S'\x00\x00@A'
p5224
tp5225
Rp5226
ag3
(g7
S'\x00\x00@A'
p5227
tp5228
Rp5229
asS'S000005379'
p5230
(lp5231
g3
(g7
S'\x00\x00@A'
p5232
tp5233
Rp5234
asS'S000006319'
p5235
(lp5236
g3
(g7
S'\x00\x00@A'
p5237
tp5238
Rp5239
ag3
(g7
S'\x00\x00@A'
p5240
tp5241
Rp5242
asS'S000006318'
p5243
(lp5244
g3
(g7
S'\x00\x00@A'
p5245
tp5246
Rp5247
asS'S000006315'
p5248
(lp5249
g3
(g7
S'\x00\x00@A'
p5250
tp5251
Rp5252
asS'S000003234'
p5253
(lp5254
g3
(g7
S'\x00\x00@A'
p5255
tp5256
Rp5257
asS'S000006317'
p5258
(lp5259
g3
(g7
S'\x00\x00@A'
p5260
tp5261
Rp5262
asS'S000006316'
p5263
(lp5264
g3
(g7
S'\x00\x00@A'
p5265
tp5266
Rp5267
ag3
(g7
S'\x00\x00@A'
p5268
tp5269
Rp5270
asS'S000003231'
p5271
(lp5272
g3
(g7
S'\x00\x00@A'
p5273
tp5274
Rp5275
asS'S000006310'
p5276
(lp5277
g3
(g7
S'\x00\x00@A'
p5278
tp5279
Rp5280
asS'S000006312'
p5281
(lp5282
g3
(g7
S'\x00\x00@A'
p5283
tp5284
Rp5285
asS'S000002321'
p5286
(lp5287
g3
(g7
S'\x00\x00@A'
p5288
tp5289
Rp5290
asS'S000001856'
p5291
(lp5292
g3
(g7
S'\x00\x00@A'
p5293
tp5294
Rp5295
asS'S000001855'
p5296
(lp5297
g3
(g7
S'\x00\x00@A'
p5298
tp5299
Rp5300
asS'S000001502'
p5301
(lp5302
g3
(g7
S'\x00\x00@A'
p5303
tp5304
Rp5305
asS'S000001505'
p5306
(lp5307
g3
(g7
S'\x00\x00@A'
p5308
tp5309
Rp5310
asS'S000001504'
p5311
(lp5312
g3
(g7
S'\x00\x00@A'
p5313
tp5314
Rp5315
asS'S000002639'
p5316
(lp5317
g3
(g7
S'\x00\x00@A'
p5318
tp5319
Rp5320
ag3
(g7
S'\x00\x00@A'
p5321
tp5322
Rp5323
asS'S000001698'
p5324
(lp5325
g3
(g7
S'\x00\x00@A'
p5326
tp5327
Rp5328
asS'S000029705'
p5329
(lp5330
g3
(g7
S'\x00\x00@A'
p5331
tp5332
Rp5333
asS'S000001692'
p5334
(lp5335
g3
(g7
S'\x00\x00@A'
p5336
tp5337
Rp5338
asS'S000001695'
p5339
(lp5340
g3
(g7
S'\x00\x00@A'
p5341
tp5342
Rp5343
ag3
(g7
S'\x00\x00@A'
p5344
tp5345
Rp5346
ag3
(g7
S'\x00\x00@A'
p5347
tp5348
Rp5349
ag3
(g7
S'\x00\x00@A'
p5350
tp5351
Rp5352
asS'S000001696'
p5353
(lp5354
g3
(g7
S'\x00\x00@A'
p5355
tp5356
Rp5357
ag3
(g7
S'\x00\x00@A'
p5358
tp5359
Rp5360
asS'S000005193'
p5361
(lp5362
g3
(g7
S'\x00\x00@A'
p5363
tp5364
Rp5365
asS'S000005196'
p5366
(lp5367
g3
(g7
S'\x00\x00@A'
p5368
tp5369
Rp5370
asS'S000005197'
p5371
(lp5372
g3
(g7
S'\x00\x00@A'
p5373
tp5374
Rp5375
asS'S000002849'
p5376
(lp5377
g3
(g7
S'\x00\x00@A'
p5378
tp5379
Rp5380
asS'S000005198'
p5381
(lp5382
g3
(g7
S'\x00\x00@A'
p5383
tp5384
Rp5385
asS'S000005199'
p5386
(lp5387
g3
(g7
S'\x00\x00@A'
p5388
tp5389
Rp5390
asS'S000028812'
p5391
(lp5392
g3
(g7
S'\x00\x00@A'
p5393
tp5394
Rp5395
asS'S000003692'
p5396
(lp5397
g3
(g7
S'\x00\x00@A'
p5398
tp5399
Rp5400
asS'S000003122'
p5401
(lp5402
g3
(g7
S'\x00\x00@A'
p5403
tp5404
Rp5405
ag3
(g7
S'\x00\x00@A'
p5406
tp5407
Rp5408
asS'S000003696'
p5409
(lp5410
g3
(g7
S'\x00\x00@A'
p5411
tp5412
Rp5413
asS'S000003127'
p5414
(lp5415
g3
(g7
S'\x00\x00@A'
p5416
tp5417
Rp5418
asS'S000006409'
p5419
(lp5420
g3
(g7
S'\x00\x00@A'
p5421
tp5422
Rp5423
asS'S000002743'
p5424
(lp5425
g3
(g7
S'\x00\x00@A'
p5426
tp5427
Rp5428
asS'S000002740'
p5429
(lp5430
g3
(g7
S'\x00\x00@A'
p5431
tp5432
Rp5433
asS'S000002744'
p5434
(lp5435
g3
(g7
S'\x00\x00@A'
p5436
tp5437
Rp5438
ag3
(g7
S'\x00\x00@A'
p5439
tp5440
Rp5441
asS'S000002745'
p5442
(lp5443
g3
(g7
S'\x00\x00@A'
p5444
tp5445
Rp5446
asS'S000005999'
p5447
(lp5448
g3
(g7
S'\x00\x00@A'
p5449
tp5450
Rp5451
ag3
(g7
S'\x00\x00@A'
p5452
tp5453
Rp5454
asS'S000006028'
p5455
(lp5456
g3
(g7
S'\x00\x00@A'
p5457
tp5458
Rp5459
asS'S000005996'
p5460
(lp5461
g3
(g7
S'\x00\x00@A'
p5462
tp5463
Rp5464
asS'S000006088'
p5465
(lp5466
g3
(g7
S'\x00\x00@A'
p5467
tp5468
Rp5469
asS'S000006026'
p5470
(lp5471
g3
(g7
S'\x00\x00@A'
p5472
tp5473
Rp5474
asS'S000006085'
p5475
(lp5476
g3
(g7
S'\x00\x00@A'
p5477
tp5478
Rp5479
asS'S000006084'
p5480
(lp5481
g3
(g7
S'\x00\x00@A'
p5482
tp5483
Rp5484
asS'S000006087'
p5485
(lp5486
g3
(g7
S'\x00\x00@A'
p5487
tp5488
Rp5489
asS'S000028725'
p5490
(lp5491
g3
(g7
S'\x00\x00@A'
p5492
tp5493
Rp5494
ag3
(g7
S'\x00\x00@A'
p5495
tp5496
Rp5497
asS'S000003050'
p5498
(lp5499
g3
(g7
S'\x00\x00@A'
p5500
tp5501
Rp5502
asS'S000003345'
p5503
(lp5504
g3
(g7
S'\x00\x00@A'
p5505
tp5506
Rp5507
asS'S000003344'
p5508
(lp5509
g3
(g7
S'\x00\x00@A'
p5510
tp5511
Rp5512
asS'S000003347'
p5513
(lp5514
g3
(g7
S'\x00\x00@A'
p5515
tp5516
Rp5517
asS'S000003346'
p5518
(lp5519
g3
(g7
S'\x00\x00@A'
p5520
tp5521
Rp5522
asS'S000003341'
p5523
(lp5524
g3
(g7
S'\x00\x00@A'
p5525
tp5526
Rp5527
asS'S000003349'
p5528
(lp5529
g3
(g7
S'\x00\x00@A'
p5530
tp5531
Rp5532
asS'S000003348'
p5533
(lp5534
g3
(g7
S'\x00\x00@A'
p5535
tp5536
Rp5537
asS'S000002759'
p5538
(lp5539
g3
(g7
S'\x00\x00@A'
p5540
tp5541
Rp5542
asS'S000002758'
p5543
(lp5544
g3
(g7
S'\x00\x00@A'
p5545
tp5546
Rp5547
asS'S000003111'
p5548
(lp5549
g3
(g7
S'\x00\x00@A'
p5550
tp5551
Rp5552
asS'S000004645'
p5553
(lp5554
g3
(g7
S'\x00\x00@A'
p5555
tp5556
Rp5557
asS'S000000248'
p5558
(lp5559
g3
(g7
S'\x00\x00@A'
p5560
tp5561
Rp5562
asS'S000004644'
p5563
(lp5564
g3
(g7
S'\x00\x00@A'
p5565
tp5566
Rp5567
asS'S000000247'
p5568
(lp5569
g3
(g7
S'\x00\x00@A'
p5570
tp5571
Rp5572
asS'S000000246'
p5573
(lp5574
g3
(g7
S'\x00\x00@A'
p5575
tp5576
Rp5577
asS'S000000240'
p5578
(lp5579
g3
(g7
S'\x00\x00@A'
p5580
tp5581
Rp5582
asS'S000000243'
p5583
(lp5584
g3
(g7
S'\x00\x00@A'
p5585
tp5586
Rp5587
asS'S000000242'
p5588
(lp5589
g3
(g7
S'\x00\x00@A'
p5590
tp5591
Rp5592
asS'S000007595'
p5593
(lp5594
g3
(g7
S'\x00\x00@A'
p5595
tp5596
Rp5597
asS'S000007590'
p5598
(lp5599
g3
(g7
S'\x00\x00@A'
p5600
tp5601
Rp5602
asS'S000000489'
p5603
(lp5604
g3
(g7
S'\x00\x00@A'
p5605
tp5606
Rp5607
asS'S000000488'
p5608
(lp5609
g3
(g7
S'\x00\x00@A'
p5610
tp5611
Rp5612
asS'S000000487'
p5613
(lp5614
g3
(g7
S'\x00\x00@A'
p5615
tp5616
Rp5617
asS'S000000486'
p5618
(lp5619
g3
(g7
S'\x00\x00@A'
p5620
tp5621
Rp5622
asS'S000000485'
p5623
(lp5624
g3
(g7
S'\x00\x00@A'
p5625
tp5626
Rp5627
asS'S000007599'
p5628
(lp5629
g3
(g7
S'\x00\x00@A'
p5630
tp5631
Rp5632
ag3
(g7
S'\x00\x00@A'
p5633
tp5634
Rp5635
asS'S000005064'
p5636
(lp5637
g3
(g7
S'\x00\x00@A'
p5638
tp5639
Rp5640
asS'S000006620'
p5641
(lp5642
g3
(g7
S'\x00\x00@A'
p5643
tp5644
Rp5645
asS'S000006623'
p5646
(lp5647
g3
(g7
S'\x00\x00@A'
p5648
tp5649
Rp5650
asS'S000006622'
p5651
(lp5652
g3
(g7
S'\x00\x00@A'
p5653
tp5654
Rp5655
asS'S000006625'
p5656
(lp5657
g3
(g7
S'\x00\x00@A'
p5658
tp5659
Rp5660
asS'S000006627'
p5661
(lp5662
g3
(g7
S'\x00\x00@A'
p5663
tp5664
Rp5665
asS'S000003119'
p5666
(lp5667
g3
(g7
S'\x00\x00@A'
p5668
tp5669
Rp5670
ag3
(g7
S'\x00\x00@A'
p5671
tp5672
Rp5673
asS'S000000806'
p5674
(lp5675
g3
(g7
S'\x00\x00@A'
p5676
tp5677
Rp5678
asS'S000001700'
p5679
(lp5680
g3
(g7
S'\x00\x00@A'
p5681
tp5682
Rp5683
asS'S000000661'
p5684
(lp5685
g3
(g7
S'\x00\x00@A'
p5686
tp5687
Rp5688
asS'S000000660'
p5689
(lp5690
g3
(g7
S'\x00\x00@A'
p5691
tp5692
Rp5693
asS'S000000665'
p5694
(lp5695
g3
(g7
S'\x00\x00@A'
p5696
tp5697
Rp5698
asS'S000000668'
p5699
(lp5700
g3
(g7
S'\x00\x00@A'
p5701
tp5702
Rp5703
ag3
(g7
S'\x00\x00@A'
p5704
tp5705
Rp5706
asS'S000004499'
p5707
(lp5708
g3
(g7
S'\x00\x00@A'
p5709
tp5710
Rp5711
asS'S000000065'
p5712
(lp5713
g3
(g7
S'\x00\x00@A'
p5714
tp5715
Rp5716
ag3
(g7
S'\x00\x00@A'
p5717
tp5718
Rp5719
asS'S000000061'
p5720
(lp5721
g3
(g7
S'\x00\x00@A'
p5722
tp5723
Rp5724
asS'S000000062'
p5725
(lp5726
g3
(g7
S'\x00\x00@A'
p5727
tp5728
Rp5729
asS'S000000069'
p5730
(lp5731
g3
(g7
S'\x00\x00@A'
p5732
tp5733
Rp5734
asS'S000004812'
p5735
(lp5736
g3
(g7
S'\x00\x00@A'
p5737
tp5738
Rp5739
asS'S000004818'
p5740
(lp5741
g3
(g7
S'\x00\x00@A'
p5742
tp5743
Rp5744
asS'S000004819'
p5745
(lp5746
g3
(g7
S'\x00\x00@A'
p5747
tp5748
Rp5749
asS'S000003599'
p5750
(lp5751
g3
(g7
S'\x00\x00@A'
p5752
tp5753
Rp5754
asS'S000000119'
p5755
(lp5756
g3
(g7
S'\x00\x00@A'
p5757
tp5758
Rp5759
asS'S000004367'
p5760
(lp5761
g3
(g7
S'\x00\x00@A'
p5762
tp5763
Rp5764
asS'S000004365'
p5765
(lp5766
g3
(g7
S'\x00\x00@A'
p5767
tp5768
Rp5769
asS'S000004360'
p5770
(lp5771
g3
(g7
S'\x00\x00@A'
p5772
tp5773
Rp5774
asS'S000000116'
p5775
(lp5776
g3
(g7
S'\x00\x00@A'
p5777
tp5778
Rp5779
asS'S000004108'
p5780
(lp5781
g3
(g7
S'\x00\x00@A'
p5782
tp5783
Rp5784
asS'S000004964'
p5785
(lp5786
g3
(g7
S'\x00\x00@A'
p5787
tp5788
Rp5789
asS'S000001197'
p5790
(lp5791
g3
(g7
S'\x00\x00@A'
p5792
tp5793
Rp5794
asS'S000004966'
p5795
(lp5796
g3
(g7
S'\x00\x00@A'
p5797
tp5798
Rp5799
asS'S000001447'
p5800
(lp5801
g3
(g7
S'\x00\x00@A'
p5802
tp5803
Rp5804
ag3
(g7
S'\x00\x00@A'
p5805
tp5806
Rp5807
asS'S000004960'
p5808
(lp5809
g3
(g7
S'\x00\x00@A'
p5810
tp5811
Rp5812
asS'S000001441'
p5813
(lp5814
g3
(g7
S'\x00\x00@A'
p5815
tp5816
Rp5817
asS'S000004963'
p5818
(lp5819
g3
(g7
S'\x00\x00@A'
p5820
tp5821
Rp5822
asS'S000001449'
p5823
(lp5824
g3
(g7
S'\x00\x00@A'
p5825
tp5826
Rp5827
ag3
(g7
S'\x00\x00@A'
p5828
tp5829
Rp5830
asS'S000005817'
p5831
(lp5832
g3
(g7
S'\x00\x00@A'
p5833
tp5834
Rp5835
asS'S000005563'
p5836
(lp5837
g3
(g7
S'\x00\x00@A'
p5838
tp5839
Rp5840
asS'S000005561'
p5841
(lp5842
g3
(g7
S'\x00\x00@A'
p5843
tp5844
Rp5845
asS'S000005565'
p5846
(lp5847
g3
(g7
S'\x00\x00@A'
p5848
tp5849
Rp5850
asS'S000003976'
p5851
(lp5852
g3
(g7
S'\x00\x00@A'
p5853
tp5854
Rp5855
asS'S000004567'
p5856
(lp5857
g3
(g7
S'\x00\x00@A'
p5858
tp5859
Rp5860
asS'S000001383'
p5861
(lp5862
g3
(g7
S'\x00\x00@A'
p5863
tp5864
Rp5865
asS'S000005743'
p5866
(lp5867
g3
(g7
S'\x00\x00@A'
p5868
tp5869
Rp5870
asS'S000005966'
p5871
(lp5872
g3
(g7
S'\x00\x00@A'
p5873
tp5874
Rp5875
asS'S000002245'
p5876
(lp5877
g3
(g7
S'\x00\x00@A'
p5878
tp5879
Rp5880
asS'S000002532'
p5881
(lp5882
g3
(g7
S'\x00\x00@A'
p5883
tp5884
Rp5885
asS'S000002535'
p5886
(lp5887
g3
(g7
S'\x00\x00@A'
p5888
tp5889
Rp5890
asS'S000005746'
p5891
(lp5892
g3
(g7
S'\x00\x00@A'
p5893
tp5894
Rp5895
asS'S000005217'
p5896
(lp5897
g3
(g7
S'\x00\x00@A'
p5898
tp5899
Rp5900
ag3
(g7
S'\x00\x00@A'
p5901
tp5902
Rp5903
asS'S000002240'
p5904
(lp5905
g3
(g7
S'\x00\x00@A'
p5906
tp5907
Rp5908
ag3
(g7
S'\x00\x00@A'
p5909
tp5910
Rp5911
asS'S000004612'
p5912
(lp5913
g3
(g7
S'\x00\x00@A'
p5914
tp5915
Rp5916
asS'S000001221'
p5917
(lp5918
g3
(g7
S'\x00\x00@A'
p5919
tp5920
Rp5921
asS'S000004549'
p5922
(lp5923
g3
(g7
S'\x00\x00@A'
p5924
tp5925
Rp5926
asS'S000001225'
p5927
(lp5928
g3
(g7
S'\x00\x00@A'
p5929
tp5930
Rp5931
asS'S000005968'
p5932
(lp5933
g3
(g7
S'\x00\x00@A'
p5934
tp5935
Rp5936
asS'S000005549'
p5937
(lp5938
g3
(g7
S'\x00\x00@A'
p5939
tp5940
Rp5941
asS'S000004588'
p5942
(lp5943
g3
(g7
S'\x00\x00@A'
p5944
tp5945
Rp5946
asS'S000004582'
p5947
(lp5948
g3
(g7
S'\x00\x00@A'
p5949
tp5950
Rp5951
ag3
(g7
S'\x00\x00@A'
p5952
tp5953
Rp5954
asS'S000004583'
p5955
(lp5956
g3
(g7
S'\x00\x00@A'
p5957
tp5958
Rp5959
asS'S000004580'
p5960
(lp5961
g3
(g7
S'\x00\x00@A'
p5962
tp5963
Rp5964
ag3
(g7
S'\x00\x00@A'
p5965
tp5966
Rp5967
asS'S000004586'
p5968
(lp5969
g3
(g7
S'\x00\x00@A'
p5970
tp5971
Rp5972
ag3
(g7
S'\x00\x00@A'
p5973
tp5974
Rp5975
asS'S000004584'
p5976
(lp5977
g3
(g7
S'\x00\x00@A'
p5978
tp5979
Rp5980
asS'S000028557'
p5981
(lp5982
g3
(g7
S'\x00\x00@A'
p5983
tp5984
Rp5985
ag3
(g7
S'\x00\x00@A'
p5986
tp5987
Rp5988
asS'S000028553'
p5989
(lp5990
g3
(g7
S'\x00\x00@A'
p5991
tp5992
Rp5993
asS'S000005698'
p5994
(lp5995
g3
(g7
S'\x00\x00@A'
p5996
tp5997
Rp5998
asS'S000028550'
p5999
(lp6000
g3
(g7
S'\x00\x00@A'
p6001
tp6002
Rp6003
asS'S000001062'
p6004
(lp6005
g3
(g7
S'\x00\x00@A'
p6006
tp6007
Rp6008
asS'S000001059'
p6009
(lp6010
g3
(g7
S'\x00\x00@A'
p6011
tp6012
Rp6013
ag3
(g7
S'\x00\x00@A'
p6014
tp6015
Rp6016
asS'S000028558'
p6017
(lp6018
g3
(g7
S'\x00\x00@A'
p6019
tp6020
Rp6021
asS'S000005369'
p6022
(lp6023
g3
(g7
S'\x00\x00@A'
p6024
tp6025
Rp6026
asS'S000005368'
p6027
(lp6028
g3
(g7
S'\x00\x00@A'
p6029
tp6030
Rp6031
asS'S000002404'
p6032
(lp6033
g3
(g7
S'\x00\x00@A'
p6034
tp6035
Rp6036
asS'S000005367'
p6037
(lp6038
g3
(g7
S'\x00\x00@A'
p6039
tp6040
Rp6041
ag3
(g7
S'\x00\x00@A'
p6042
tp6043
Rp6044
asS'S000002406'
p6045
(lp6046
g3
(g7
S'\x00\x00@A'
p6047
tp6048
Rp6049
asS'S000006322'
p6050
(lp6051
g3
(g7
S'\x00\x00@A'
p6052
tp6053
Rp6054
asS'S000003751'
p6055
(lp6056
g3
(g7
S'\x00\x00@A'
p6057
tp6058
Rp6059
asS'S000006324'
p6060
(lp6061
g3
(g7
S'\x00\x00@A'
p6062
tp6063
Rp6064
ag3
(g7
S'\x00\x00@A'
p6065
tp6066
Rp6067
asS'S000003205'
p6068
(lp6069
g3
(g7
S'\x00\x00@A'
p6070
tp6071
Rp6072
ag3
(g7
S'\x00\x00@A'
p6073
tp6074
Rp6075
asS'S000003206'
p6076
(lp6077
g3
(g7
S'\x00\x00@A'
p6078
tp6079
Rp6080
asS'S000003755'
p6081
(lp6082
g3
(g7
S'\x00\x00@A'
p6083
tp6084
Rp6085
asS'S000006328'
p6086
(lp6087
g3
(g7
S'\x00\x00@A'
p6088
tp6089
Rp6090
asS'S000006329'
p6091
(lp6092
g3
(g7
S'\x00\x00@A'
p6093
tp6094
Rp6095
asS'S000003758'
p6096
(lp6097
g3
(g7
S'\x00\x00@A'
p6098
tp6099
Rp6100
asS'S000002336'
p6101
(lp6102
g3
(g7
S'\x00\x00@A'
p6103
tp6104
Rp6105
asS'S000002335'
p6106
(lp6107
g3
(g7
S'\x00\x00@A'
p6108
tp6109
Rp6110
ag3
(g7
S'\x00\x00@A'
p6111
tp6112
Rp6113
asS'S000002624'
p6114
(lp6115
g3
(g7
S'\x00\x00@A'
p6116
tp6117
Rp6118
asS'S000002620'
p6119
(lp6120
g3
(g7
S'\x00\x00@A'
p6121
tp6122
Rp6123
asS'S000002623'
p6124
(lp6125
g3
(g7
S'\x00\x00@A'
p6126
tp6127
Rp6128
ag3
(g7
S'\x00\x00@A'
p6129
tp6130
Rp6131
asS'S000002622'
p6132
(lp6133
g3
(g7
S'\x00\x00@A'
p6134
tp6135
Rp6136
asS'S000006057'
p6137
(lp6138
g3
(g7
S'\x00\x00@A'
p6139
tp6140
Rp6141
ag3
(g7
S'\x00\x00@A'
p6142
tp6143
Rp6144
asS'S000005181'
p6145
(lp6146
g3
(g7
S'\x00\x00@A'
p6147
tp6148
Rp6149
asS'S000005185'
p6150
(lp6151
g3
(g7
S'\x00\x00@A'
p6152
tp6153
Rp6154
asS'S000002264'
p6155
(lp6156
g3
(g7
S'\x00\x00@A'
p6157
tp6158
Rp6159
asS'S000006184'
p6160
(lp6161
g3
(g7
S'\x00\x00@A'
p6162
tp6163
Rp6164
asS'S000006187'
p6165
(lp6166
g3
(g7
S'\x00\x00@A'
p6167
tp6168
Rp6169
asS'S000006182'
p6170
(lp6171
g3
(g7
S'\x00\x00@A'
p6172
tp6173
Rp6174
asS'S000006183'
p6175
(lp6176
g3
(g7
S'\x00\x00@A'
p6177
tp6178
Rp6179
asS'S000005941'
p6180
(lp6181
g3
(g7
S'\x00\x00@A'
p6182
tp6183
Rp6184
asS'S000006434'
p6185
(lp6186
g3
(g7
S'\x00\x00@A'
p6187
tp6188
Rp6189
asS'S000003115'
p6190
(lp6191
g3
(g7
S'\x00\x00@A'
p6192
tp6193
Rp6194
asS'S000005943'
p6195
(lp6196
g3
(g7
S'\x00\x00@A'
p6197
tp6198
Rp6199
asS'S000003112'
p6200
(lp6201
g3
(g7
S'\x00\x00@A'
p6202
tp6203
Rp6204
asS'S000028806'
p6205
(lp6206
g3
(g7
S'\x00\x00@A'
p6207
tp6208
Rp6209
ag3
(g7
S'\x00\x00@A'
p6210
tp6211
Rp6212
asS'S000028808'
p6213
(lp6214
g3
(g7
S'\x00\x00@A'
p6215
tp6216
Rp6217
asS'S000006439'
p6218
(lp6219
g3
(g7
S'\x00\x00@A'
p6220
tp6221
Rp6222
asS'S000003591'
p6223
(lp6224
g3
(g7
S'\x00\x00@A'
p6225
tp6226
Rp6227
asS'S000003594'
p6228
(lp6229
g3
(g7
S'\x00\x00@A'
p6230
tp6231
Rp6232
ag3
(g7
S'\x00\x00@A'
p6233
tp6234
Rp6235
asS'S000003596'
p6236
(lp6237
g3
(g7
S'\x00\x00@A'
p6238
tp6239
Rp6240
asS'S000003598'
p6241
(lp6242
g3
(g7
S'\x00\x00@A'
p6243
tp6244
Rp6245
asS'S000028736'
p6246
(lp6247
g3
(g7
S'\x00\x00@A'
p6248
tp6249
Rp6250
asS'S000002141'
p6251
(lp6252
g3
(g7
S'\x00\x00@A'
p6253
tp6254
Rp6255
asS'S000003371'
p6256
(lp6257
g3
(g7
S'\x00\x00@A'
p6258
tp6259
Rp6260
asS'S000003372'
p6261
(lp6262
g3
(g7
S'\x00\x00@A'
p6263
tp6264
Rp6265
asS'S000003373'
p6266
(lp6267
g3
(g7
S'\x00\x00@A'
p6268
tp6269
Rp6270
asS'S000003374'
p6271
(lp6272
g3
(g7
S'\x00\x00@A'
p6273
tp6274
Rp6275
ag3
(g7
S'\x00\x00@A'
p6276
tp6277
Rp6278
asS'S000004551'
p6279
(lp6280
g3
(g7
S'\x00\x00@A'
p6281
tp6282
Rp6283
asS'S000006058'
p6284
(lp6285
g3
(g7
S'\x00\x00@A'
p6286
tp6287
Rp6288
asS'S000003579'
p6289
(lp6290
g3
(g7
S'\x00\x00@A'
p6291
tp6292
Rp6293
asS'S000003570'
p6294
(lp6295
g3
(g7
S'\x00\x00@A'
p6296
tp6297
Rp6298
asS'S000006056'
p6299
(lp6300
g3
(g7
S'\x00\x00@A'
p6301
tp6302
Rp6303
asS'S000003577'
p6304
(lp6305
g3
(g7
S'\x00\x00@A'
p6306
tp6307
Rp6308
asS'S000003574'
p6309
(lp6310
g3
(g7
S'\x00\x00@A'
p6311
tp6312
Rp6313
asS'S000003575'
p6314
(lp6315
g3
(g7
S'\x00\x00@A'
p6316
tp6317
Rp6318
asS'S000002306'
p6319
(lp6320
g3
(g7
S'\x00\x00@A'
p6321
tp6322
Rp6323
asS'S000000902'
p6324
(lp6325
g3
(g7
S'\x00\x00@A'
p6326
tp6327
Rp6328
asS'S000000903'
p6329
(lp6330
g3
(g7
S'\x00\x00@A'
p6331
tp6332
Rp6333
asS'S000007588'
p6334
(lp6335
g3
(g7
S'\x00\x00@A'
p6336
tp6337
Rp6338
ag3
(g7
S'\x00\x00@A'
p6339
tp6340
Rp6341
asS'S000000904'
p6342
(lp6343
g3
(g7
S'\x00\x00@A'
p6344
tp6345
Rp6346
asS'S000007586'
p6347
(lp6348
g3
(g7
S'\x00\x00@A'
p6349
tp6350
Rp6351
asS'S000000472'
p6352
(lp6353
g3
(g7
S'\x00\x00@A'
p6354
tp6355
Rp6356
asS'S000000470'
p6357
(lp6358
g3
(g7
S'\x00\x00@A'
p6359
tp6360
Rp6361
asS'S000000476'
p6362
(lp6363
g3
(g7
S'\x00\x00@A'
p6364
tp6365
Rp6366
asS'S000000478'
p6367
(lp6368
g3
(g7
S'\x00\x00@A'
p6369
tp6370
Rp6371
asS'S000000479'
p6372
(lp6373
g3
(g7
S'\x00\x00@A'
p6374
tp6375
Rp6376
asS'S000006610'
p6377
(lp6378
g3
(g7
S'\x00\x00@A'
p6379
tp6380
Rp6381
asS'S000006613'
p6382
(lp6383
g3
(g7
S'\x00\x00@A'
p6384
tp6385
Rp6386
ag3
(g7
S'\x00\x00@A'
p6387
tp6388
Rp6389
asS'S000000877'
p6390
(lp6391
g3
(g7
S'\x00\x00@A'
p6392
tp6393
Rp6394
asS'S000000871'
p6395
(lp6396
g3
(g7
S'\x00\x00@A'
p6397
tp6398
Rp6399
asS'S000000617'
p6400
(lp6401
g3
(g7
S'\x00\x00@A'
p6402
tp6403
Rp6404
asS'S000000901'
p6405
(lp6406
g3
(g7
S'\x00\x00@A'
p6407
tp6408
Rp6409
asS'S000002985'
p6410
(lp6411
g3
(g7
S'\x00\x00@A'
p6412
tp6413
Rp6414
asS'S000000610'
p6415
(lp6416
g3
(g7
S'\x00\x00@A'
p6417
tp6418
Rp6419
ag3
(g7
S'\x00\x00@A'
p6420
tp6421
Rp6422
asS'S000002987'
p6423
(lp6424
g3
(g7
S'\x00\x00@A'
p6425
tp6426
Rp6427
asS'S000007472'
p6428
(lp6429
g3
(g7
S'\x00\x00@A'
p6430
tp6431
Rp6432
asS'S000000144'
p6433
(lp6434
g3
(g7
S'\x00\x00@A'
p6435
tp6436
Rp6437
asS'S000000059'
p6438
(lp6439
g3
(g7
S'\x00\x00@A'
p6440
tp6441
Rp6442
asS'S000000728'
p6443
(lp6444
g3
(g7
S'\x00\x00@A'
p6445
tp6446
Rp6447
asS'S000004354'
p6448
(lp6449
g3
(g7
S'\x00\x00@A'
p6450
tp6451
Rp6452
asS'S000000051'
p6453
(lp6454
g3
(g7
S'\x00\x00@A'
p6455
tp6456
Rp6457
asS'S000000052'
p6458
(lp6459
g3
(g7
S'\x00\x00@A'
p6460
tp6461
Rp6462
asS'S000000299'
p6463
(lp6464
g3
(g7
S'\x00\x00@A'
p6465
tp6466
Rp6467
asS'S000000296'
p6468
(lp6469
g3
(g7
S'\x00\x00@A'
p6470
tp6471
Rp6472
asS'S000005306'
p6473
(lp6474
g3
(g7
S'\x00\x00@A'
p6475
tp6476
Rp6477
asS'S000004806'
p6478
(lp6479
g3
(g7
S'\x00\x00@A'
p6480
tp6481
Rp6482
asS'S000004805'
p6483
(lp6484
g3
(g7
S'\x00\x00@A'
p6485
tp6486
Rp6487
asS'S000004804'
p6488
(lp6489
g3
(g7
S'\x00\x00@A'
p6490
tp6491
Rp6492
asS'S000004801'
p6493
(lp6494
g3
(g7
S'\x00\x00@A'
p6495
tp6496
Rp6497
asS'S000004800'
p6498
(lp6499
g3
(g7
S'\x00\x00@A'
p6500
tp6501
Rp6502
asS'S000004808'
p6503
(lp6504
g3
(g7
S'\x00\x00@A'
p6505
tp6506
Rp6507
asS'S000000128'
p6508
(lp6509
g3
(g7
S'\x00\x00@A'
p6510
tp6511
Rp6512
asS'S000004375'
p6513
(lp6514
g3
(g7
S'\x00\x00@A'
p6515
tp6516
Rp6517
asS'S000004374'
p6518
(lp6519
g3
(g7
S'\x00\x00@A'
p6520
tp6521
Rp6522
asS'S000004377'
p6523
(lp6524
g3
(g7
S'\x00\x00@A'
p6525
tp6526
Rp6527
asS'S000004376'
p6528
(lp6529
g3
(g7
S'\x00\x00@A'
p6530
tp6531
Rp6532
asS'S000002968'
p6533
(lp6534
g3
(g7
S'\x00\x00@A'
p6535
tp6536
Rp6537
asS'S000002961'
p6538
(lp6539
g3
(g7
S'\x00\x00@A'
p6540
tp6541
Rp6542
ag3
(g7
S'\x00\x00@A'
p6543
tp6544
Rp6545
ag3
(g7
S'\x00\x00@A'
p6546
tp6547
Rp6548
asS'S000002965'
p6549
(lp6550
g3
(g7
S'\x00\x00@A'
p6551
tp6552
Rp6553
asS'S000004117'
p6554
(lp6555
g3
(g7
S'\x00\x00@A'
p6556
tp6557
Rp6558
asS'S000004978'
p6559
(lp6560
g3
(g7
S'\x00\x00@A'
p6561
tp6562
Rp6563
asS'S000004113'
p6564
(lp6565
g3
(g7
S'\x00\x00@A'
p6566
tp6567
Rp6568
asS'S000004112'
p6569
(lp6570
g3
(g7
S'\x00\x00@A'
p6571
tp6572
Rp6573
asS'S000001450'
p6574
(lp6575
g3
(g7
S'\x00\x00@A'
p6576
tp6577
Rp6578
asS'S000001457'
p6579
(lp6580
g3
(g7
S'\x00\x00@A'
p6581
tp6582
Rp6583
ag3
(g7
S'\x00\x00@A'
p6584
tp6585
Rp6586
asS'S000001456'
p6587
(lp6588
g3
(g7
S'\x00\x00@A'
p6589
tp6590
Rp6591
ag3
(g7
S'\x00\x00@A'
p6592
tp6593
Rp6594
asS'S000004975'
p6595
(lp6596
g3
(g7
S'\x00\x00@A'
p6597
tp6598
Rp6599
asS'S000001454'
p6600
(lp6601
g3
(g7
S'\x00\x00@A'
p6602
tp6603
Rp6604
asS'S000001186'
p6605
(lp6606
g3
(g7
S'\x00\x00@A'
p6607
tp6608
Rp6609
asS'S000005518'
p6610
(lp6611
g3
(g7
S'\x00\x00@A'
p6612
tp6613
Rp6614
asS'S000004577'
p6615
(lp6616
g3
(g7
S'\x00\x00@A'
p6617
tp6618
Rp6619
asS'S000004576'
p6620
(lp6621
g3
(g7
S'\x00\x00@A'
p6622
tp6623
Rp6624
asS'S000003961'
p6625
(lp6626
g3
(g7
S'\x00\x00@A'
p6627
tp6628
Rp6629
asS'S000003960'
p6630
(lp6631
g3
(g7
S'\x00\x00@A'
p6632
tp6633
Rp6634
asS'S000001051'
p6635
(lp6636
g3
(g7
S'\x00\x00@A'
p6637
tp6638
Rp6639
asS'S000004570'
p6640
(lp6641
g3
(g7
S'\x00\x00@A'
p6642
tp6643
Rp6644
ag3
(g7
S'\x00\x00@A'
p6645
tp6646
Rp6647
asS'S000004579'
p6648
(lp6649
g3
(g7
S'\x00\x00@A'
p6650
tp6651
Rp6652
asS'S000004578'
p6653
(lp6654
g3
(g7
S'\x00\x00@A'
p6655
tp6656
Rp6657
asS'S000002505'
p6658
(lp6659
g3
(g7
S'\x00\x00@A'
p6660
tp6661
Rp6662
asS'S000002501'
p6663
(lp6664
g3
(g7
S'\x00\x00@A'
p6665
tp6666
Rp6667
ag3
(g7
S'\x00\x00@A'
p6668
tp6669
Rp6670
ag3
(g7
S'\x00\x00@A'
p6671
tp6672
Rp6673
asS'S000005222'
p6674
(lp6675
g3
(g7
S'\x00\x00@A'
p6676
tp6677
Rp6678
asS'S000005223'
p6679
(lp6680
g3
(g7
S'\x00\x00@A'
p6681
tp6682
Rp6683
asS'S000001234'
p6684
(lp6685
g3
(g7
S'\x00\x00@A'
p6686
tp6687
Rp6688
asS'S000005229'
p6689
(lp6690
g3
(g7
S'\x00\x00@A'
p6691
tp6692
Rp6693
asS'S000004599'
p6694
(lp6695
g3
(g7
S'\x00\x00@A'
p6696
tp6697
Rp6698
ag3
(g7
S'\x00\x00@A'
p6699
tp6700
Rp6701
asS'S000001841'
p6702
(lp6703
g3
(g7
S'\x00\x00@A'
p6704
tp6705
Rp6706
asS'S000004591'
p6707
(lp6708
g3
(g7
S'\x00\x00@A'
p6709
tp6710
Rp6711
ag3
(g7
S'\x00\x00@A'
p6712
tp6713
Rp6714
asS'S000004595'
p6715
(lp6716
g3
(g7
S'\x00\x00@A'
p6717
tp6718
Rp6719
asS'S000002649'
p6720
(lp6721
g3
(g7
S'\x00\x00@A'
p6722
tp6723
Rp6724
asS'S000004596'
p6725
(lp6726
g3
(g7
S'\x00\x00@A'
p6727
tp6728
Rp6729
asS'S000005350'
p6730
(lp6731
g3
(g7
S'\x00\x00@A'
p6732
tp6733
Rp6734
asS'S000004915'
p6735
(lp6736
g3
(g7
S'\x00\x00@A'
p6737
tp6738
Rp6739
asS'S000005354'
p6740
(lp6741
g3
(g7
S'\x00\x00@A'
p6742
tp6743
Rp6744
asS'S000005355'
p6745
(lp6746
g3
(g7
S'\x00\x00@A'
p6747
tp6748
Rp6749
asS'S000005356'
p6750
(lp6751
g3
(g7
S'\x00\x00@A'
p6752
tp6753
Rp6754
asS'S000005425'
p6755
(lp6756
g3
(g7
S'\x00\x00@A'
p6757
tp6758
Rp6759
asS'S000002438'
p6760
(lp6761
g3
(g7
S'\x00\x00@A'
p6762
tp6763
Rp6764
asS'S000005428'
p6765
(lp6766
g3
(g7
S'\x00\x00@A'
p6767
tp6768
Rp6769
asS'S000003816'
p6770
(lp6771
g3
(g7
S'\x00\x00@A'
p6772
tp6773
Rp6774
asS'S000002618'
p6775
(lp6776
g3
(g7
S'\x00\x00@A'
p6777
tp6778
Rp6779
asS'S000003740'
p6780
(lp6781
g3
(g7
S'\x00\x00@A'
p6782
tp6783
Rp6784
ag3
(g7
S'\x00\x00@A'
p6785
tp6786
Rp6787
asS'S000006335'
p6788
(lp6789
g3
(g7
S'\x00\x00@A'
p6790
tp6791
Rp6792
asS'S000003742'
p6793
(lp6794
g3
(g7
S'\x00\x00@A'
p6795
tp6796
Rp6797
asS'S000006333'
p6798
(lp6799
g3
(g7
S'\x00\x00@A'
p6800
tp6801
Rp6802
ag3
(g7
S'\x00\x00@A'
p6803
tp6804
Rp6805
asS'S000002348'
p6806
(lp6807
g3
(g7
S'\x00\x00@A'
p6808
tp6809
Rp6810
asS'S000002349'
p6811
(lp6812
g3
(g7
S'\x00\x00@A'
p6813
tp6814
Rp6815
ag3
(g7
S'\x00\x00@A'
p6816
tp6817
Rp6818
asS'S000003748'
p6819
(lp6820
g3
(g7
S'\x00\x00@A'
p6821
tp6822
Rp6823
asS'S000005640'
p6824
(lp6825
g3
(g7
S'\x00\x00@A'
p6826
tp6827
Rp6828
ag3
(g7
S'\x00\x00@A'
p6829
tp6830
Rp6831
asS'S000028587'
p6832
(lp6833
g3
(g7
S'\x00\x00@A'
p6834
tp6835
Rp6836
ag3
(g7
S'\x00\x00@A'
p6837
tp6838
Rp6839
asS'S000028580'
p6840
(lp6841
g3
(g7
S'\x00\x00@A'
p6842
tp6843
Rp6844
asS'S000002340'
p6845
(lp6846
g3
(g7
S'\x00\x00@A'
p6847
tp6848
Rp6849
asS'S000002341'
p6850
(lp6851
g3
(g7
S'\x00\x00@A'
p6852
tp6853
Rp6854
ag3
(g7
S'\x00\x00@A'
p6855
tp6856
Rp6857
asS'S000002189'
p6858
(lp6859
g3
(g7
S'\x00\x00@A'
p6860
tp6861
Rp6862
ag3
(g7
S'\x00\x00@A'
p6863
tp6864
Rp6865
asS'S000001527'
p6866
(lp6867
g3
(g7
S'\x00\x00@A'
p6868
tp6869
Rp6870
ag3
(g7
S'\x00\x00@A'
p6871
tp6872
Rp6873
asS'S000001526'
p6874
(lp6875
g3
(g7
S'\x00\x00@A'
p6876
tp6877
Rp6878
asS'S000000737'
p6879
(lp6880
g3
(g7
S'\x00\x00@A'
p6881
tp6882
Rp6883
asS'S000002181'
p6884
(lp6885
g3
(g7
S'\x00\x00@A'
p6886
tp6887
Rp6888
ag3
(g7
S'\x00\x00@A'
p6889
tp6890
Rp6891
asS'S000029726'
p6892
(lp6893
g3
(g7
S'\x00\x00@A'
p6894
tp6895
Rp6896
asS'S000028835'
p6897
(lp6898
g3
(g7
S'\x00\x00@A'
p6899
tp6900
Rp6901
asS'S000028830'
p6902
(lp6903
g3
(g7
S'\x00\x00@A'
p6904
tp6905
Rp6906
asS'S000002765'
p6907
(lp6908
g3
(g7
S'\x00\x00@A'
p6909
tp6910
Rp6911
ag3
(g7
S'\x00\x00@A'
p6912
tp6913
Rp6914
asS'S000002766'
p6915
(lp6916
g3
(g7
S'\x00\x00@A'
p6917
tp6918
Rp6919
ag3
(g7
S'\x00\x00@A'
p6920
tp6921
Rp6922
asS'S000002295'
p6923
(lp6924
g3
(g7
S'\x00\x00@A'
p6925
tp6926
Rp6927
asS'S000002292'
p6928
(lp6929
g3
(g7
S'\x00\x00@A'
p6930
tp6931
Rp6932
asS'S000002293'
p6933
(lp6934
g3
(g7
S'\x00\x00@A'
p6935
tp6936
Rp6937
asS'S000003583'
p6938
(lp6939
g3
(g7
S'\x00\x00@A'
p6940
tp6941
Rp6942
asS'S000003580'
p6943
(lp6944
g3
(g7
S'\x00\x00@A'
p6945
tp6946
Rp6947
asS'S000003589'
p6948
(lp6949
g3
(g7
S'\x00\x00@A'
p6950
tp6951
Rp6952
asS'S000003366'
p6953
(lp6954
g3
(g7
S'\x00\x00@A'
p6955
tp6956
Rp6957
ag3
(g7
S'\x00\x00@A'
p6958
tp6959
Rp6960
asS'S000003364'
p6961
(lp6962
g3
(g7
S'\x00\x00@A'
p6963
tp6964
Rp6965
ag3
(g7
S'\x00\x00@A'
p6966
tp6967
Rp6968
asS'S000006048'
p6969
(lp6970
g3
(g7
S'\x00\x00@A'
p6971
tp6972
Rp6973
asS'S000002533'
p6974
(lp6975
g3
(g7
S'\x00\x00@A'
p6976
tp6977
Rp6978
ag3
(g7
S'\x00\x00@A'
p6979
tp6980
Rp6981
asS'S000003563'
p6982
(lp6983
g3
(g7
S'\x00\x00@A'
p6984
tp6985
Rp6986
ag3
(g7
S'\x00\x00@A'
p6987
tp6988
Rp6989
asS'S000003562'
p6990
(lp6991
g3
(g7
S'\x00\x00@A'
p6992
tp6993
Rp6994
asS'S000003566'
p6995
(lp6996
g3
(g7
S'\x00\x00@A'
p6997
tp6998
Rp6999
ag3
(g7
S'\x00\x00@A'
p7000
tp7001
Rp7002
asS'S000006192'
p7003
(lp7004
g3
(g7
S'\x00\x00@A'
p7005
tp7006
Rp7007
asS'S000006195'
p7008
(lp7009
g3
(g7
S'\x00\x00@A'
p7010
tp7011
Rp7012
asS'S000007248'
p7013
(lp7014
g3
(g7
S'\x00\x00@A'
p7015
tp7016
Rp7017
asS'S000000266'
p7018
(lp7019
g3
(g7
S'\x00\x00@A'
p7020
tp7021
Rp7022
asS'S000000264'
p7023
(lp7024
g3
(g7
S'\x00\x00@A'
p7025
tp7026
Rp7027
asS'S000000260'
p7028
(lp7029
g3
(g7
S'\x00\x00@A'
p7030
tp7031
Rp7032
asS'S000007244'
p7033
(lp7034
g3
(g7
S'\x00\x00@A'
p7035
tp7036
Rp7037
asS'S000007245'
p7038
(lp7039
g3
(g7
S'\x00\x00@A'
p7040
tp7041
Rp7042
asS'S000000269'
p7043
(lp7044
g3
(g7
S'\x00\x00@A'
p7045
tp7046
Rp7047
asS'S000000268'
p7048
(lp7049
g3
(g7
S'\x00\x00@A'
p7050
tp7051
Rp7052
ag3
(g7
S'\x00\x00@A'
p7053
tp7054
Rp7055
asS'S000000461'
p7056
(lp7057
g3
(g7
S'\x00\x00@A'
p7058
tp7059
Rp7060
ag3
(g7
S'\x00\x00@A'
p7061
tp7062
Rp7063
asS'S000000460'
p7064
(lp7065
g3
(g7
S'\x00\x00@A'
p7066
tp7067
Rp7068
ag3
(g7
S'\x00\x00@A'
p7069
tp7070
Rp7071
asS'S000000465'
p7072
(lp7073
g3
(g7
S'\x00\x00@A'
p7074
tp7075
Rp7076
asS'S000000464'
p7077
(lp7078
g3
(g7
S'\x00\x00@A'
p7079
tp7080
Rp7081
asS'S000000467'
p7082
(lp7083
g3
(g7
S'\x00\x00@A'
p7084
tp7085
Rp7086
ag3
(g7
S'\x00\x00@A'
p7087
tp7088
Rp7089
asS'S000006603'
p7090
(lp7091
g3
(g7
S'\x00\x00@A'
p7092
tp7093
Rp7094
asS'S000006605'
p7095
(lp7096
g3
(g7
S'\x00\x00@A'
p7097
tp7098
Rp7099
ag3
(g7
S'\x00\x00@A'
p7100
tp7101
Rp7102
asS'S000006604'
p7103
(lp7104
g3
(g7
S'\x00\x00@A'
p7105
tp7106
Rp7107
asS'S000006609'
p7108
(lp7109
g3
(g7
S'\x00\x00@A'
p7110
tp7111
Rp7112
asS'S000004452'
p7113
(lp7114
g3
(g7
S'\x00\x00@A'
p7115
tp7116
Rp7117
asS'S000002534'
p7118
(lp7119
g3
(g7
S'\x00\x00@A'
p7120
tp7121
Rp7122
asS'S000000994'
p7123
(lp7124
g3
(g7
S'\x00\x00@A'
p7125
tp7126
Rp7127
asS'S000004326'
p7128
(lp7129
g3
(g7
S'\x00\x00@A'
p7130
tp7131
Rp7132
asS'S000002824'
p7133
(lp7134
g3
(g7
S'\x00\x00@A'
p7135
tp7136
Rp7137
asS'S000000863'
p7138
(lp7139
g3
(g7
S'\x00\x00@A'
p7140
tp7141
Rp7142
asS'S000002994'
p7143
(lp7144
g3
(g7
S'\x00\x00@A'
p7145
tp7146
Rp7147
asS'S000002993'
p7148
(lp7149
g3
(g7
S'\x00\x00@A'
p7150
tp7151
Rp7152
asS'S000002992'
p7153
(lp7154
g3
(g7
S'\x00\x00@A'
p7155
tp7156
Rp7157
asS'S000002990'
p7158
(lp7159
g3
(g7
S'\x00\x00@A'
p7160
tp7161
Rp7162
asS'S000000598'
p7163
(lp7164
g3
(g7
S'\x00\x00@A'
p7165
tp7166
Rp7167
ag3
(g7
S'\x00\x00@A'
p7168
tp7169
Rp7170
asS'S000005491'
p7171
(lp7172
g3
(g7
S'\x00\x00@A'
p7173
tp7174
Rp7175
asS'S000000739'
p7176
(lp7177
g3
(g7
S'\x00\x00@A'
p7178
tp7179
Rp7180
asS'S000005322'
p7181
(lp7182
g3
(g7
S'\x00\x00@A'
p7183
tp7184
Rp7185
asS'S000000048'
p7186
(lp7187
g3
(g7
S'\x00\x00@A'
p7188
tp7189
Rp7190
asS'S000000045'
p7191
(lp7192
g3
(g7
S'\x00\x00@A'
p7193
tp7194
Rp7195
ag3
(g7
S'\x00\x00@A'
p7196
tp7197
Rp7198
asS'S000000044'
p7199
(lp7200
g3
(g7
S'\x00\x00@A'
p7201
tp7202
Rp7203
asS'S000000043'
p7204
(lp7205
g3
(g7
S'\x00\x00@A'
p7206
tp7207
Rp7208
asS'S000000041'
p7209
(lp7210
g3
(g7
S'\x00\x00@A'
p7211
tp7212
Rp7213
asS'S000005496'
p7214
(lp7215
g3
(g7
S'\x00\x00@A'
p7216
tp7217
Rp7218
ag3
(g7
S'\x00\x00@A'
p7219
tp7220
Rp7221
asS'S000000288'
p7222
(lp7223
g3
(g7
S'\x00\x00@A'
p7224
tp7225
Rp7226
asS'S000000284'
p7227
(lp7228
g3
(g7
S'\x00\x00@A'
p7229
tp7230
Rp7231
asS'S000001311'
p7232
(lp7233
g3
(g7
S'\x00\x00@A'
p7234
tp7235
Rp7236
asS'S000004140'
p7237
(lp7238
g3
(g7
S'\x00\x00@A'
p7239
tp7240
Rp7241
asS'S000004745'
p7242
(lp7243
g3
(g7
S'\x00\x00@A'
p7244
tp7245
Rp7246
asS'S000004294'
p7247
(lp7248
g3
(g7
S'\x00\x00@A'
p7249
tp7250
Rp7251
asS'S000004141'
p7252
(lp7253
g3
(g7
S'\x00\x00@A'
p7254
tp7255
Rp7256
asS'S000004291'
p7257
(lp7258
g3
(g7
S'\x00\x00@A'
p7259
tp7260
Rp7261
asS'S000004748'
p7262
(lp7263
g3
(g7
S'\x00\x00@A'
p7264
tp7265
Rp7266
asS'S000004749'
p7267
(lp7268
g3
(g7
S'\x00\x00@A'
p7269
tp7270
Rp7271
asS'S000004299'
p7272
(lp7273
g3
(g7
S'\x00\x00@A'
p7274
tp7275
Rp7276
asS'S000000133'
p7277
(lp7278
g3
(g7
S'\x00\x00@A'
p7279
tp7280
Rp7281
ag3
(g7
S'\x00\x00@A'
p7282
tp7283
Rp7284
asS'S000000130'
p7285
(lp7286
g3
(g7
S'\x00\x00@A'
p7287
tp7288
Rp7289
asS'S000000137'
p7290
(lp7291
g3
(g7
S'\x00\x00@A'
p7292
tp7293
Rp7294
asS'S000000136'
p7295
(lp7296
g3
(g7
S'\x00\x00@A'
p7297
tp7298
Rp7299
asS'S000000135'
p7300
(lp7301
g3
(g7
S'\x00\x00@A'
p7302
tp7303
Rp7304
asS'S000004349'
p7305
(lp7306
g3
(g7
S'\x00\x00@A'
p7307
tp7308
Rp7309
asS'S000000138'
p7310
(lp7311
g3
(g7
S'\x00\x00@A'
p7312
tp7313
Rp7314
asS'S000002979'
p7315
(lp7316
g3
(g7
S'\x00\x00@A'
p7317
tp7318
Rp7319
ag3
(g7
S'\x00\x00@A'
p7320
tp7321
Rp7322
asS'S000002975'
p7323
(lp7324
g3
(g7
S'\x00\x00@A'
p7325
tp7326
Rp7327
asS'S000002977'
p7328
(lp7329
g3
(g7
S'\x00\x00@A'
p7330
tp7331
Rp7332
asS'S000002976'
p7333
(lp7334
g3
(g7
S'\x00\x00@A'
p7335
tp7336
Rp7337
asS'S000004908'
p7338
(lp7339
g3
(g7
S'\x00\x00@A'
p7340
tp7341
Rp7342
asS'S000004906'
p7343
(lp7344
g3
(g7
S'\x00\x00@A'
p7345
tp7346
Rp7347
asS'S000001424'
p7348
(lp7349
g3
(g7
S'\x00\x00@A'
p7350
tp7351
Rp7352
asS'S000001421'
p7353
(lp7354
g3
(g7
S'\x00\x00@A'
p7355
tp7356
Rp7357
asS'S000005509'
p7358
(lp7359
g3
(g7
S'\x00\x00@A'
p7360
tp7361
Rp7362
asS'S000005508'
p7363
(lp7364
g3
(g7
S'\x00\x00@A'
p7365
tp7366
Rp7367
asS'S000005504'
p7368
(lp7369
g3
(g7
S'\x00\x00@A'
p7370
tp7371
Rp7372
asS'S000005506'
p7373
(lp7374
g3
(g7
S'\x00\x00@A'
p7375
tp7376
Rp7377
asS'S000003955'
p7378
(lp7379
g3
(g7
S'\x00\x00@A'
p7380
tp7381
Rp7382
asS'S000005724'
p7383
(lp7384
g3
(g7
S'\x00\x00@A'
p7385
tp7386
Rp7387
ag3
(g7
S'\x00\x00@A'
p7388
tp7389
Rp7390
asS'S000005726'
p7391
(lp7392
g3
(g7
S'\x00\x00@A'
p7393
tp7394
Rp7395
asS'S000005721'
p7396
(lp7397
g3
(g7
S'\x00\x00@A'
p7398
tp7399
Rp7400
asS'S000004636'
p7401
(lp7402
g3
(g7
S'\x00\x00@A'
p7403
tp7404
Rp7405
asS'S000004637'
p7406
(lp7407
g3
(g7
S'\x00\x00@A'
p7408
tp7409
Rp7410
asS'S000005729'
p7411
(lp7412
g3
(g7
S'\x00\x00@A'
p7413
tp7414
Rp7415
asS'S000005728'
p7416
(lp7417
g3
(g7
S'\x00\x00@A'
p7418
tp7419
Rp7420
ag3
(g7
S'\x00\x00@A'
p7421
tp7422
Rp7423
asS'S000001730'
p7424
(lp7425
g3
(g7
S'\x00\x00@A'
p7426
tp7427
Rp7428
asS'S000001089'
p7429
(lp7430
g3
(g7
S'\x00\x00@A'
p7431
tp7432
Rp7433
ag3
(g7
S'\x00\x00@A'
p7434
tp7435
Rp7436
asS'S000001085'
p7437
(lp7438
g3
(g7
S'\x00\x00@A'
p7439
tp7440
Rp7441
asS'S000001086'
p7442
(lp7443
g3
(g7
S'\x00\x00@A'
p7444
tp7445
Rp7446
asS'S000003775'
p7447
(lp7448
g3
(g7
S'\x00\x00@A'
p7449
tp7450
Rp7451
asS'S000005431'
p7452
(lp7453
g3
(g7
S'\x00\x00@A'
p7454
tp7455
Rp7456
asS'S000004129'
p7457
(lp7458
g3
(g7
S'\x00\x00@A'
p7459
tp7460
Rp7461
asS'S000005433'
p7462
(lp7463
g3
(g7
S'\x00\x00@A'
p7464
tp7465
Rp7466
asS'S000005432'
p7467
(lp7468
g3
(g7
S'\x00\x00@A'
p7469
tp7470
Rp7471
asS'S000002422'
p7472
(lp7473
g3
(g7
S'\x00\x00@A'
p7474
tp7475
Rp7476
asS'S000005340'
p7477
(lp7478
g3
(g7
S'\x00\x00@A'
p7479
tp7480
Rp7481
asS'S000004120'
p7482
(lp7483
g3
(g7
S'\x00\x00@A'
p7484
tp7485
Rp7486
asS'S000003825'
p7487
(lp7488
g3
(g7
S'\x00\x00@A'
p7489
tp7490
Rp7491
ag3
(g7
S'\x00\x00@A'
p7492
tp7493
Rp7494
asS'S000004122'
p7495
(lp7496
g3
(g7
S'\x00\x00@A'
p7497
tp7498
Rp7499
asS'S000004123'
p7500
(lp7501
g3
(g7
S'\x00\x00@A'
p7502
tp7503
Rp7504
asS'S000004126'
p7505
(lp7506
g3
(g7
S'\x00\x00@A'
p7507
tp7508
Rp7509
ag3
(g7
S'\x00\x00@A'
p7510
tp7511
Rp7512
asS'S000004127'
p7513
(lp7514
g3
(g7
S'\x00\x00@A'
p7515
tp7516
Rp7517
ag3
(g7
S'\x00\x00@A'
p7518
tp7519
Rp7520
asS'S000005659'
p7521
(lp7522
g3
(g7
S'\x00\x00@A'
p7523
tp7524
Rp7525
asS'S000005658'
p7526
(lp7527
g3
(g7
S'\x00\x00@A'
p7528
tp7529
Rp7530
asS'S000003776'
p7531
(lp7532
g3
(g7
S'\x00\x00@A'
p7533
tp7534
Rp7535
asS'S000028597'
p7536
(lp7537
g3
(g7
S'\x00\x00@A'
p7538
tp7539
Rp7540
asS'S000003771'
p7541
(lp7542
g3
(g7
S'\x00\x00@A'
p7543
tp7544
Rp7545
ag3
(g7
S'\x00\x00@A'
p7546
tp7547
Rp7548
asS'S000028595'
p7549
(lp7550
g3
(g7
S'\x00\x00@A'
p7551
tp7552
Rp7553
asS'S000002608'
p7554
(lp7555
g3
(g7
S'\x00\x00@A'
p7556
tp7557
Rp7558
asS'S000002357'
p7559
(lp7560
g3
(g7
S'\x00\x00@A'
p7561
tp7562
Rp7563
ag3
(g7
S'\x00\x00@A'
p7564
tp7565
Rp7566
ag3
(g7
S'\x00\x00@A'
p7567
tp7568
Rp7569
asS'S000002603'
p7570
(lp7571
g3
(g7
S'\x00\x00@A'
p7572
tp7573
Rp7574
asS'S000002602'
p7575
(lp7576
g3
(g7
S'\x00\x00@A'
p7577
tp7578
Rp7579
asS'S000005657'
p7580
(lp7581
g3
(g7
S'\x00\x00@A'
p7582
tp7583
Rp7584
asS'S000005656'
p7585
(lp7586
g3
(g7
S'\x00\x00@A'
p7587
tp7588
Rp7589
ag3
(g7
S'\x00\x00@A'
p7590
tp7591
Rp7592
asS'S000001884'
p7593
(lp7594
g3
(g7
S'\x00\x00@A'
p7595
tp7596
Rp7597
ag3
(g7
S'\x00\x00@A'
p7598
tp7599
Rp7600
asS'S000001885'
p7601
(lp7602
g3
(g7
S'\x00\x00@A'
p7603
tp7604
Rp7605
asS'S000001880'
p7606
(lp7607
g3
(g7
S'\x00\x00@A'
p7608
tp7609
Rp7610
asS'S000002194'
p7611
(lp7612
g3
(g7
S'\x00\x00@A'
p7613
tp7614
Rp7615
asS'S000002519'
p7616
(lp7617
g3
(g7
S'\x00\x00@A'
p7618
tp7619
Rp7620
asS'S000005238'
p7621
(lp7622
g3
(g7
S'\x00\x00@A'
p7623
tp7624
Rp7625
asS'S000005233'
p7626
(lp7627
g3
(g7
S'\x00\x00@A'
p7628
tp7629
Rp7630
ag3
(g7
S'\x00\x00@A'
p7631
tp7632
Rp7633
asS'S000005235'
p7634
(lp7635
g3
(g7
S'\x00\x00@A'
p7636
tp7637
Rp7638
asS'S000028828'
p7639
(lp7640
g3
(g7
S'\x00\x00@A'
p7641
tp7642
Rp7643
asS'S000004139'
p7644
(lp7645
g3
(g7
S'\x00\x00@A'
p7646
tp7647
Rp7648
asS'S000003176'
p7649
(lp7650
g3
(g7
S'\x00\x00@A'
p7651
tp7652
Rp7653
asS'S000003177'
p7654
(lp7655
g3
(g7
S'\x00\x00@A'
p7656
tp7657
Rp7658
ag3
(g7
S'\x00\x00@A'
p7659
tp7660
Rp7661
asS'S000003175'
p7662
(lp7663
g3
(g7
S'\x00\x00@A'
p7664
tp7665
Rp7666
asS'S000002773'
p7667
(lp7668
g3
(g7
S'\x00\x00@A'
p7669
tp7670
Rp7671
ag3
(g7
S'\x00\x00@A'
p7672
tp7673
Rp7674
ag3
(g7
S'\x00\x00@A'
p7675
tp7676
Rp7677
asS'S000006299'
p7678
(lp7679
g3
(g7
S'\x00\x00@A'
p7680
tp7681
Rp7682
asS'S000002771'
p7683
(lp7684
g3
(g7
S'\x00\x00@A'
p7685
tp7686
Rp7687
asS'S000002776'
p7688
(lp7689
g3
(g7
S'\x00\x00@A'
p7690
tp7691
Rp7692
ag3
(g7
S'\x00\x00@A'
p7693
tp7694
Rp7695
asS'S000002774'
p7696
(lp7697
g3
(g7
S'\x00\x00@A'
p7698
tp7699
Rp7700
asS'S000002281'
p7701
(lp7702
g3
(g7
S'\x00\x00@A'
p7703
tp7704
Rp7705
asS'S000001950'
p7706
(lp7707
g3
(g7
S'\x00\x00@A'
p7708
tp7709
Rp7710
asS'S000001956'
p7711
(lp7712
g3
(g7
S'\x00\x00@A'
p7713
tp7714
Rp7715
asS'S000003354'
p7716
(lp7717
g3
(g7
S'\x00\x00@A'
p7718
tp7719
Rp7720
asS'S000005409'
p7721
(lp7722
g3
(g7
S'\x00\x00@A'
p7723
tp7724
Rp7725
asS'S000003393'
p7726
(lp7727
g3
(g7
S'\x00\x00@A'
p7728
tp7729
Rp7730
asS'S000003396'
p7731
(lp7732
g3
(g7
S'\x00\x00@A'
p7733
tp7734
Rp7735
asS'S000003397'
p7736
(lp7737
g3
(g7
S'\x00\x00@A'
p7738
tp7739
Rp7740
asS'S000003395'
p7741
(lp7742
g3
(g7
S'\x00\x00@A'
p7743
tp7744
Rp7745
asS'S000003398'
p7746
(lp7747
g3
(g7
S'\x00\x00@A'
p7748
tp7749
Rp7750
ag3
(g7
S'\x00\x00@A'
p7751
tp7752
Rp7753
asS'S000003399'
p7754
(lp7755
g3
(g7
S'\x00\x00@A'
p7756
tp7757
Rp7758
asS'S000005929'
p7759
(lp7760
g3
(g7
S'\x00\x00@A'
p7761
tp7762
Rp7763
asS'S000002208'
p7764
(lp7765
g3
(g7
S'\x00\x00@A'
p7766
tp7767
Rp7768
ag3
(g7
S'\x00\x00@A'
p7769
tp7770
Rp7771
asS'S000006079'
p7772
(lp7773
g3
(g7
S'\x00\x00@A'
p7774
tp7775
Rp7776
ag3
(g7
S'\x00\x00@A'
p7777
tp7778
Rp7779
asS'S000003009'
p7780
(lp7781
g3
(g7
S'\x00\x00@A'
p7782
tp7783
Rp7784
asS'S000006070'
p7785
(lp7786
g3
(g7
S'\x00\x00@A'
p7787
tp7788
Rp7789
ag3
(g7
S'\x00\x00@A'
p7790
tp7791
Rp7792
asS'S000003552'
p7793
(lp7794
g3
(g7
S'\x00\x00@A'
p7795
tp7796
Rp7797
asS'S000003486'
p7798
(lp7799
g3
(g7
S'\x00\x00@A'
p7800
tp7801
Rp7802
asS'S000000926'
p7803
(lp7804
g3
(g7
S'\x00\x00@A'
p7805
tp7806
Rp7807
ag3
(g7
S'\x00\x00@A'
p7808
tp7809
Rp7810
asS'S000000927'
p7811
(lp7812
g3
(g7
S'\x00\x00@A'
p7813
tp7814
Rp7815
ag3
(g7
S'\x00\x00@A'
p7816
tp7817
Rp7818
asS'S000000920'
p7819
(lp7820
g3
(g7
S'\x00\x00@A'
p7821
tp7822
Rp7823
asS'S000000921'
p7824
(lp7825
g3
(g7
S'\x00\x00@A'
p7826
tp7827
Rp7828
ag3
(g7
S'\x00\x00@A'
p7829
tp7830
Rp7831
ag3
(g7
S'\x00\x00@A'
p7832
tp7833
Rp7834
asS'S000000922'
p7835
(lp7836
g3
(g7
S'\x00\x00@A'
p7837
tp7838
Rp7839
asS'S000000923'
p7840
(lp7841
g3
(g7
S'\x00\x00@A'
p7842
tp7843
Rp7844
ag3
(g7
S'\x00\x00@A'
p7845
tp7846
Rp7847
asS'S000007250'
p7848
(lp7849
g3
(g7
S'\x00\x00@A'
p7850
tp7851
Rp7852
asS'S000000451'
p7853
(lp7854
g3
(g7
S'\x00\x00@A'
p7855
tp7856
Rp7857
asS'S000000452'
p7858
(lp7859
g3
(g7
S'\x00\x00@A'
p7860
tp7861
Rp7862
asS'S000000459'
p7863
(lp7864
g3
(g7
S'\x00\x00@A'
p7865
tp7866
Rp7867
asS'S000006677'
p7868
(lp7869
g3
(g7
S'\x00\x00@A'
p7870
tp7871
Rp7872
ag3
(g7
S'\x00\x00@A'
p7873
tp7874
Rp7875
asS'S000006673'
p7876
(lp7877
g3
(g7
S'\x00\x00@A'
p7878
tp7879
Rp7880
asS'S000000853'
p7881
(lp7882
g3
(g7
S'\x00\x00@A'
p7883
tp7884
Rp7885
asS'S000000854'
p7886
(lp7887
g3
(g7
S'\x00\x00@A'
p7888
tp7889
Rp7890
asS'S000000858'
p7891
(lp7892
g3
(g7
S'\x00\x00@A'
p7893
tp7894
Rp7895
asS'S000000639'
p7896
(lp7897
g3
(g7
S'\x00\x00@A'
p7898
tp7899
Rp7900
asS'S000000630'
p7901
(lp7902
g3
(g7
S'\x00\x00@A'
p7903
tp7904
Rp7905
asS'S000000633'
p7906
(lp7907
g3
(g7
S'\x00\x00@A'
p7908
tp7909
Rp7910
asS'S000006700'
p7911
(lp7912
g3
(g7
S'\x00\x00@A'
p7913
tp7914
Rp7915
asS'S000006704'
p7916
(lp7917
g3
(g7
S'\x00\x00@A'
p7918
tp7919
Rp7920
asS'S000003721'
p7921
(lp7922
g3
(g7
S'\x00\x00@A'
p7923
tp7924
Rp7925
ag3
(g7
S'\x00\x00@A'
p7926
tp7927
Rp7928
asS'S000004280'
p7929
(lp7930
g3
(g7
S'\x00\x00@A'
p7931
tp7932
Rp7933
asS'S000004283'
p7934
(lp7935
g3
(g7
S'\x00\x00@A'
p7936
tp7937
Rp7938
asS'S000003720'
p7939
(lp7940
g3
(g7
S'\x00\x00@A'
p7941
tp7942
Rp7943
asS'S000004356'
p7944
(lp7945
g3
(g7
S'\x00\x00@A'
p7946
tp7947
Rp7948
asS'S000004355'
p7949
(lp7950
g3
(g7
S'\x00\x00@A'
p7951
tp7952
Rp7953
asS'S000000145'
p7954
(lp7955
g3
(g7
S'\x00\x00@A'
p7956
tp7957
Rp7958
asS'S000004353'
p7959
(lp7960
g3
(g7
S'\x00\x00@A'
p7961
tp7962
Rp7963
asS'S000000149'
p7964
(lp7965
g3
(g7
S'\x00\x00@A'
p7966
tp7967
Rp7968
asS'S000001435'
p7969
(lp7970
g3
(g7
S'\x00\x00@A'
p7971
tp7972
Rp7973
asS'S000001434'
p7974
(lp7975
g3
(g7
S'\x00\x00@A'
p7976
tp7977
Rp7978
asS'S000002569'
p7979
(lp7980
g3
(g7
S'\x00\x00@A'
p7981
tp7982
Rp7983
asS'S000001431'
p7984
(lp7985
g3
(g7
S'\x00\x00@A'
p7986
tp7987
Rp7988
asS'S000004913'
p7989
(lp7990
g3
(g7
S'\x00\x00@A'
p7991
tp7992
Rp7993
asS'S000005247'
p7994
(lp7995
g3
(g7
S'\x00\x00@A'
p7996
tp7997
Rp7998
ag3
(g7
S'\x00\x00@A'
p7999
tp8000
Rp8001
asS'S000005244'
p8002
(lp8003
g3
(g7
S'\x00\x00@A'
p8004
tp8005
Rp8006
asS'S000002565'
p8007
(lp8008
g3
(g7
S'\x00\x00@A'
p8009
tp8010
Rp8011
ag3
(g7
S'\x00\x00@A'
p8012
tp8013
Rp8014
asS'S000005537'
p8015
(lp8016
g3
(g7
S'\x00\x00@A'
p8017
tp8018
Rp8019
asS'S000005714'
p8020
(lp8021
g3
(g7
S'\x00\x00@A'
p8022
tp8023
Rp8024
asS'S000003943'
p8025
(lp8026
g3
(g7
S'\x00\x00@A'
p8027
tp8028
Rp8029
asS'S000005715'
p8030
(lp8031
g3
(g7
S'\x00\x00@A'
p8032
tp8033
Rp8034
asS'S000004753'
p8035
(lp8036
g3
(g7
S'\x00\x00@A'
p8037
tp8038
Rp8039
asS'S000005241'
p8040
(lp8041
g3
(g7
S'\x00\x00@A'
p8042
tp8043
Rp8044
asS'S000004757'
p8045
(lp8046
g3
(g7
S'\x00\x00@A'
p8047
tp8048
Rp8049
asS'S000004627'
p8050
(lp8051
g3
(g7
S'\x00\x00@A'
p8052
tp8053
Rp8054
asS'S000000557'
p8055
(lp8056
g3
(g7
S'\x00\x00@A'
p8057
tp8058
Rp8059
asS'S000004628'
p8060
(lp8061
g3
(g7
S'\x00\x00@A'
p8062
tp8063
Rp8064
asS'S000001723'
p8065
(lp8066
g3
(g7
S'\x00\x00@A'
p8067
tp8068
Rp8069
asS'S000001724'
p8070
(lp8071
g3
(g7
S'\x00\x00@A'
p8072
tp8073
Rp8074
asS'S000001726'
p8075
(lp8076
g3
(g7
S'\x00\x00@A'
p8077
tp8078
Rp8079
asS'S000002612'
p8080
(lp8081
g3
(g7
S'\x00\x00@A'
p8082
tp8083
Rp8084
asS'S000003168'
p8085
(lp8086
g3
(g7
S'\x00\x00@A'
p8087
tp8088
Rp8089
ag3
(g7
S'\x00\x00@A'
p8090
tp8091
Rp8092
asS'S000003833'
p8093
(lp8094
g3
(g7
S'\x00\x00@A'
p8095
tp8096
Rp8097
asS'S000003831'
p8098
(lp8099
g3
(g7
S'\x00\x00@A'
p8100
tp8101
Rp8102
asS'S000003837'
p8103
(lp8104
g3
(g7
S'\x00\x00@A'
p8105
tp8106
Rp8107
asS'S000003835'
p8108
(lp8109
g3
(g7
S'\x00\x00@A'
p8110
tp8111
Rp8112
asS'S000005403'
p8113
(lp8114
g3
(g7
S'\x00\x00@A'
p8115
tp8116
Rp8117
asS'S000003839'
p8118
(lp8119
g3
(g7
S'\x00\x00@A'
p8120
tp8121
Rp8122
asS'S000004132'
p8123
(lp8124
g3
(g7
S'\x00\x00@A'
p8125
tp8126
Rp8127
asS'S000004131'
p8128
(lp8129
g3
(g7
S'\x00\x00@A'
p8130
tp8131
Rp8132
asS'S000004130'
p8133
(lp8134
g3
(g7
S'\x00\x00@A'
p8135
tp8136
Rp8137
asS'S000005881'
p8138
(lp8139
g3
(g7
S'\x00\x00@A'
p8140
tp8141
Rp8142
asS'S000005883'
p8143
(lp8144
g3
(g7
S'\x00\x00@A'
p8145
tp8146
Rp8147
asS'S000005668'
p8148
(lp8149
g3
(g7
S'\x00\x00@A'
p8150
tp8151
Rp8152
asS'S000005669'
p8153
(lp8154
g3
(g7
S'\x00\x00@A'
p8155
tp8156
Rp8157
asS'S000005886'
p8158
(lp8159
g3
(g7
S'\x00\x00@A'
p8160
tp8161
Rp8162
asS'S000002367'
p8163
(lp8164
g3
(g7
S'\x00\x00@A'
p8165
tp8166
Rp8167
asS'S000005664'
p8168
(lp8169
g3
(g7
S'\x00\x00@A'
p8170
tp8171
Rp8172
ag3
(g7
S'\x00\x00@A'
p8173
tp8174
Rp8175
asS'S000028676'
p8176
(lp8177
g3
(g7
S'\x00\x00@A'
p8178
tp8179
Rp8180
asS'S000005666'
p8181
(lp8182
g3
(g7
S'\x00\x00@A'
p8183
tp8184
Rp8185
ag3
(g7
S'\x00\x00@A'
p8186
tp8187
Rp8188
asS'S000005667'
p8189
(lp8190
g3
(g7
S'\x00\x00@A'
p8191
tp8192
Rp8193
asS'S000001897'
p8194
(lp8195
g3
(g7
S'\x00\x00@A'
p8196
tp8197
Rp8198
asS'S000001895'
p8199
(lp8200
g3
(g7
S'\x00\x00@A'
p8201
tp8202
Rp8203
asS'S000002167'
p8204
(lp8205
g3
(g7
S'\x00\x00@A'
p8206
tp8207
Rp8208
asS'S000005396'
p8209
(lp8210
g3
(g7
S'\x00\x00@A'
p8211
tp8212
Rp8213
asS'S000002169'
p8214
(lp8215
g3
(g7
S'\x00\x00@A'
p8216
tp8217
Rp8218
asS'S000005391'
p8219
(lp8220
g3
(g7
S'\x00\x00@A'
p8221
tp8222
Rp8223
asS'S000005392'
p8224
(lp8225
g3
(g7
S'\x00\x00@A'
p8226
tp8227
Rp8228
asS'S000006364'
p8229
(lp8230
g3
(g7
S'\x00\x00@A'
p8231
tp8232
Rp8233
ag3
(g7
S'\x00\x00@A'
p8234
tp8235
Rp8236
asS'S000028699'
p8237
(lp8238
g3
(g7
S'\x00\x00@A'
p8239
tp8240
Rp8241
asS'S000005719'
p8242
(lp8243
g3
(g7
S'\x00\x00@A'
p8244
tp8245
Rp8246
asS'S000005249'
p8247
(lp8248
g3
(g7
S'\x00\x00@A'
p8249
tp8250
Rp8251
asS'S000005711'
p8252
(lp8253
g3
(g7
S'\x00\x00@A'
p8254
tp8255
Rp8256
asS'S000002564'
p8257
(lp8258
g3
(g7
S'\x00\x00@A'
p8259
tp8260
Rp8261
ag3
(g7
S'\x00\x00@A'
p8262
tp8263
Rp8264
asS'S000005245'
p8265
(lp8266
g3
(g7
S'\x00\x00@A'
p8267
tp8268
Rp8269
asS'S000002562'
p8270
(lp8271
g3
(g7
S'\x00\x00@A'
p8272
tp8273
Rp8274
ag3
(g7
S'\x00\x00@A'
p8275
tp8276
Rp8277
asS'S000002563'
p8278
(lp8279
g3
(g7
S'\x00\x00@A'
p8280
tp8281
Rp8282
asS'S000002560'
p8283
(lp8284
g3
(g7
S'\x00\x00@A'
p8285
tp8286
Rp8287
ag3
(g7
S'\x00\x00@A'
p8288
tp8289
Rp8290
asS'S000002561'
p8291
(lp8292
g3
(g7
S'\x00\x00@A'
p8293
tp8294
Rp8295
ag3
(g7
S'\x00\x00@A'
p8296
tp8297
Rp8298
ag3
(g7
S'\x00\x00@A'
p8299
tp8300
Rp8301
asS'S000005585'
p8302
(lp8303
g3
(g7
S'\x00\x00@A'
p8304
tp8305
Rp8306
asS'S000028678'
p8307
(lp8308
g3
(g7
S'\x00\x00@A'
p8309
tp8310
Rp8311
ag3
(g7
S'\x00\x00@A'
p8312
tp8313
Rp8314
asS'S000003242'
p8315
(lp8316
g3
(g7
S'\x00\x00@A'
p8317
tp8318
Rp8319
asS'S000028859'
p8320
(lp8321
g3
(g7
S'\x00\x00@A'
p8322
tp8323
Rp8324
asS'S000003165'
p8325
(lp8326
g3
(g7
S'\x00\x00@A'
p8327
tp8328
Rp8329
ag3
(g7
S'\x00\x00@A'
p8330
tp8331
Rp8332
asS'S000003167'
p8333
(lp8334
g3
(g7
S'\x00\x00@A'
p8335
tp8336
Rp8337
asS'S000003243'
p8338
(lp8339
g3
(g7
S'\x00\x00@A'
p8340
tp8341
Rp8342
asS'S000028852'
p8343
(lp8344
g3
(g7
S'\x00\x00@A'
p8345
tp8346
Rp8347
asS'S000028677'
p8348
(lp8349
g3
(g7
S'\x00\x00@A'
p8350
tp8351
Rp8352
asS'S000003163'
p8353
(lp8354
g3
(g7
S'\x00\x00@A'
p8355
tp8356
Rp8357
ag3
(g7
S'\x00\x00@A'
p8358
tp8359
Rp8360
asS'S000002706'
p8361
(lp8362
g3
(g7
S'\x00\x00@A'
p8363
tp8364
Rp8365
asS'S000002707'
p8366
(lp8367
g3
(g7
S'\x00\x00@A'
p8368
tp8369
Rp8370
asS'S000002704'
p8371
(lp8372
g3
(g7
S'\x00\x00@A'
p8373
tp8374
Rp8375
asS'S000001753'
p8376
(lp8377
g3
(g7
S'\x00\x00@A'
p8378
tp8379
Rp8380
asS'S000002702'
p8381
(lp8382
g3
(g7
S'\x00\x00@A'
p8383
tp8384
Rp8385
asS'S000002700'
p8386
(lp8387
g3
(g7
S'\x00\x00@A'
p8388
tp8389
Rp8390
asS'S000005581'
p8391
(lp8392
g3
(g7
S'\x00\x00@A'
p8393
tp8394
Rp8395
asS'S000005580'
p8396
(lp8397
g3
(g7
S'\x00\x00@A'
p8398
tp8399
Rp8400
asS'S000001941'
p8401
(lp8402
g3
(g7
S'\x00\x00@A'
p8403
tp8404
Rp8405
asS'S000001940'
p8406
(lp8407
g3
(g7
S'\x00\x00@A'
p8408
tp8409
Rp8410
asS'S000001942'
p8411
(lp8412
g3
(g7
S'\x00\x00@A'
p8413
tp8414
Rp8415
asS'S000003768'
p8416
(lp8417
g3
(g7
S'\x00\x00@A'
p8418
tp8419
Rp8420
asS'S000001029'
p8421
(lp8422
g3
(g7
S'\x00\x00@A'
p8423
tp8424
Rp8425
ag3
(g7
S'\x00\x00@A'
p8426
tp8427
Rp8428
asS'S000005186'
p8429
(lp8430
g3
(g7
S'\x00\x00@A'
p8431
tp8432
Rp8433
asS'S000003386'
p8434
(lp8435
g3
(g7
S'\x00\x00@A'
p8436
tp8437
Rp8438
asS'S000004119'
p8439
(lp8440
g3
(g7
S'\x00\x00@A'
p8441
tp8442
Rp8443
asS'S000004976'
p8444
(lp8445
g3
(g7
S'\x00\x00@A'
p8446
tp8447
Rp8448
asS'S000003540'
p8449
(lp8450
g3
(g7
S'\x00\x00@A'
p8451
tp8452
Rp8453
asS'S000003017'
p8454
(lp8455
g3
(g7
S'\x00\x00@A'
p8456
tp8457
Rp8458
asS'S000003016'
p8459
(lp8460
g3
(g7
S'\x00\x00@A'
p8461
tp8462
Rp8463
asS'S000003019'
p8464
(lp8465
g3
(g7
S'\x00\x00@A'
p8466
tp8467
Rp8468
asS'S000006069'
p8469
(lp8470
g3
(g7
S'\x00\x00@A'
p8471
tp8472
Rp8473
asS'S000003548'
p8474
(lp8475
g3
(g7
S'\x00\x00@A'
p8476
tp8477
Rp8478
asS'S000002388'
p8479
(lp8480
g3
(g7
S'\x00\x00@A'
p8481
tp8482
Rp8483
asS'S000002382'
p8484
(lp8485
g3
(g7
S'\x00\x00@A'
p8486
tp8487
Rp8488
asS'S000002380'
p8489
(lp8490
g3
(g7
S'\x00\x00@A'
p8491
tp8492
Rp8493
asS'S000005861'
p8494
(lp8495
g3
(g7
S'\x00\x00@A'
p8496
tp8497
Rp8498
asS'S000005866'
p8499
(lp8500
g3
(g7
S'\x00\x00@A'
p8501
tp8502
Rp8503
ag3
(g7
S'\x00\x00@A'
p8504
tp8505
Rp8506
asS'S000005865'
p8507
(lp8508
g3
(g7
S'\x00\x00@A'
p8509
tp8510
Rp8511
asS'S000003497'
p8512
(lp8513
g3
(g7
S'\x00\x00@A'
p8514
tp8515
Rp8516
asS'S000003491'
p8517
(lp8518
g3
(g7
S'\x00\x00@A'
p8519
tp8520
Rp8521
asS'S000000449'
p8522
(lp8523
g3
(g7
S'\x00\x00@A'
p8524
tp8525
Rp8526
asS'S000000441'
p8527
(lp8528
g3
(g7
S'\x00\x00@A'
p8529
tp8530
Rp8531
asS'S000000444'
p8532
(lp8533
g3
(g7
S'\x00\x00@A'
p8534
tp8535
Rp8536
asS'S000006665'
p8537
(lp8538
g3
(g7
S'\x00\x00@A'
p8539
tp8540
Rp8541
ag3
(g7
S'\x00\x00@A'
p8542
tp8543
Rp8544
asS'S000006661'
p8545
(lp8546
g3
(g7
S'\x00\x00@A'
p8547
tp8548
Rp8549
ag3
(g7
S'\x00\x00@A'
p8550
tp8551
Rp8552
ag3
(g7
S'\x00\x00@A'
p8553
tp8554
Rp8555
asS'S000006660'
p8556
(lp8557
g3
(g7
S'\x00\x00@A'
p8558
tp8559
Rp8560
asS'S000006669'
p8561
(lp8562
g3
(g7
S'\x00\x00@A'
p8563
tp8564
Rp8565
asS'S000006668'
p8566
(lp8567
g3
(g7
S'\x00\x00@A'
p8568
tp8569
Rp8570
asS'S000000844'
p8571
(lp8572
g3
(g7
S'\x00\x00@A'
p8573
tp8574
Rp8575
ag3
(g7
S'\x00\x00@A'
p8576
tp8577
Rp8578
asS'S000000843'
p8579
(lp8580
g3
(g7
S'\x00\x00@A'
p8581
tp8582
Rp8583
asS'S000000840'
p8584
(lp8585
g3
(g7
S'\x00\x00@A'
p8586
tp8587
Rp8588
asS'S000000849'
p8589
(lp8590
g3
(g7
S'\x00\x00@A'
p8591
tp8592
Rp8593
asS'S000000620'
p8594
(lp8595
g3
(g7
S'\x00\x00@A'
p8596
tp8597
Rp8598
asS'S000007622'
p8599
(lp8600
g3
(g7
S'\x00\x00@A'
p8601
tp8602
Rp8603
asS'S000006712'
p8604
(lp8605
g3
(g7
S'\x00\x00@A'
p8606
tp8607
Rp8608
asS'S000000938'
p8609
(lp8610
g3
(g7
S'\x00\x00@A'
p8611
tp8612
Rp8613
asS'S000000934'
p8614
(lp8615
g3
(g7
S'\x00\x00@A'
p8616
tp8617
Rp8618
asS'S000002103'
p8619
(lp8620
g3
(g7
S'\x00\x00@A'
p8621
tp8622
Rp8623
ag3
(g7
S'\x00\x00@A'
p8624
tp8625
Rp8626
asS'S000003387'
p8627
(lp8628
g3
(g7
S'\x00\x00@A'
p8629
tp8630
Rp8631
asS'S000003422'
p8632
(lp8633
g3
(g7
S'\x00\x00@A'
p8634
tp8635
Rp8636
asS'S000006143'
p8637
(lp8638
g3
(g7
S'\x00\x00@A'
p8639
tp8640
Rp8641
asS'S000004571'
p8642
(lp8643
g3
(g7
S'\x00\x00@A'
p8644
tp8645
Rp8646
asS'S000003962'
p8647
(lp8648
g3
(g7
S'\x00\x00@A'
p8649
tp8650
Rp8651
asS'S000000155'
p8652
(lp8653
g3
(g7
S'\x00\x00@A'
p8654
tp8655
Rp8656
asS'S000000154'
p8657
(lp8658
g3
(g7
S'\x00\x00@A'
p8659
tp8660
Rp8661
asS'S000000156'
p8662
(lp8663
g3
(g7
S'\x00\x00@A'
p8664
tp8665
Rp8666
asS'S000000151'
p8667
(lp8668
g3
(g7
S'\x00\x00@A'
p8669
tp8670
Rp8671
asS'S000000150'
p8672
(lp8673
g3
(g7
S'\x00\x00@A'
p8674
tp8675
Rp8676
asS'S000000159'
p8677
(lp8678
g3
(g7
S'\x00\x00@A'
p8679
tp8680
Rp8681
asS'S000000158'
p8682
(lp8683
g3
(g7
S'\x00\x00@A'
p8684
tp8685
Rp8686
asS'S000006060'
p8687
(lp8688
g3
(g7
S'\x00\x00@A'
p8689
tp8690
Rp8691
asS'S000002956'
p8692
(lp8693
g3
(g7
S'\x00\x00@A'
p8694
tp8695
Rp8696
asS'S000004471'
p8697
(lp8698
g3
(g7
S'\x00\x00@A'
p8699
tp8700
Rp8701
asS'S000001400'
p8702
(lp8703
g3
(g7
S'\x00\x00@A'
p8704
tp8705
Rp8706
asS'S000004921'
p8707
(lp8708
g3
(g7
S'\x00\x00@A'
p8709
tp8710
Rp8711
asS'S000004430'
p8712
(lp8713
g3
(g7
S'\x00\x00@A'
p8714
tp8715
Rp8716
ag3
(g7
S'\x00\x00@A'
p8717
tp8718
Rp8719
asS'S000004923'
p8720
(lp8721
g3
(g7
S'\x00\x00@A'
p8722
tp8723
Rp8724
asS'S000004436'
p8725
(lp8726
g3
(g7
S'\x00\x00@A'
p8727
tp8728
Rp8729
asS'S000001157'
p8730
(lp8731
g3
(g7
S'\x00\x00@A'
p8732
tp8733
Rp8734
asS'S000001406'
p8735
(lp8736
g3
(g7
S'\x00\x00@A'
p8737
tp8738
Rp8739
asS'S000001155'
p8740
(lp8741
g3
(g7
S'\x00\x00@A'
p8742
tp8743
Rp8744
asS'S000004384'
p8745
(lp8746
g3
(g7
S'\x00\x00@A'
p8747
tp8748
Rp8749
asS'S000004386'
p8750
(lp8751
g3
(g7
S'\x00\x00@A'
p8752
tp8753
Rp8754
asS'S000004387'
p8755
(lp8756
g3
(g7
S'\x00\x00@A'
p8757
tp8758
Rp8759
asS'S000006025'
p8760
(lp8761
g3
(g7
S'\x00\x00@A'
p8762
tp8763
Rp8764
asS'S000005525'
p8765
(lp8766
g3
(g7
S'\x00\x00@A'
p8767
tp8768
Rp8769
asS'S000005524'
p8770
(lp8771
g3
(g7
S'\x00\x00@A'
p8772
tp8773
Rp8774
asS'S000005523'
p8775
(lp8776
g3
(g7
S'\x00\x00@A'
p8777
tp8778
Rp8779
asS'S000005522'
p8780
(lp8781
g3
(g7
S'\x00\x00@A'
p8782
tp8783
Rp8784
asS'S000002503'
p8785
(lp8786
g3
(g7
S'\x00\x00@A'
p8787
tp8788
Rp8789
asS'S000005528'
p8790
(lp8791
g3
(g7
S'\x00\x00@A'
p8792
tp8793
Rp8794
asS'S000004725'
p8795
(lp8796
g3
(g7
S'\x00\x00@A'
p8797
tp8798
Rp8799
asS'S000004720'
p8800
(lp8801
g3
(g7
S'\x00\x00@A'
p8802
tp8803
Rp8804
asS'S000005098'
p8805
(lp8806
g3
(g7
S'\x00\x00@A'
p8807
tp8808
Rp8809
ag3
(g7
S'\x00\x00@A'
p8810
tp8811
Rp8812
asS'S000005096'
p8813
(lp8814
g3
(g7
S'\x00\x00@A'
p8815
tp8816
Rp8817
ag3
(g7
S'\x00\x00@A'
p8818
tp8819
Rp8820
asS'S000005093'
p8821
(lp8822
g3
(g7
S'\x00\x00@A'
p8823
tp8824
Rp8825
ag3
(g7
S'\x00\x00@A'
p8826
tp8827
Rp8828
asS'S000005091'
p8829
(lp8830
g3
(g7
S'\x00\x00@A'
p8831
tp8832
Rp8833
ag3
(g7
S'\x00\x00@A'
p8834
tp8835
Rp8836
asS'S000004659'
p8837
(lp8838
g3
(g7
S'\x00\x00@A'
p8839
tp8840
Rp8841
asS'S000001710'
p8842
(lp8843
g3
(g7
S'\x00\x00@A'
p8844
tp8845
Rp8846
asS'S000001713'
p8847
(lp8848
g3
(g7
S'\x00\x00@A'
p8849
tp8850
Rp8851
asS'S000005419'
p8852
(lp8853
g3
(g7
S'\x00\x00@A'
p8854
tp8855
Rp8856
asS'S000005410'
p8857
(lp8858
g3
(g7
S'\x00\x00@A'
p8859
tp8860
Rp8861
asS'S000005417'
p8862
(lp8863
g3
(g7
S'\x00\x00@A'
p8864
tp8865
Rp8866
asS'S000005414'
p8867
(lp8868
g3
(g7
S'\x00\x00@A'
p8869
tp8870
Rp8871
ag3
(g7
S'\x00\x00@A'
p8872
tp8873
Rp8874
asS'S000001391'
p8875
(lp8876
g3
(g7
S'\x00\x00@A'
p8877
tp8878
Rp8879
asS'S000001392'
p8880
(lp8881
g3
(g7
S'\x00\x00@A'
p8882
tp8883
Rp8884
ag3
(g7
S'\x00\x00@A'
p8885
tp8886
Rp8887
asS'S000001393'
p8888
(lp8889
g3
(g7
S'\x00\x00@A'
p8890
tp8891
Rp8892
asS'S000001394'
p8893
(lp8894
g3
(g7
S'\x00\x00@A'
p8895
tp8896
Rp8897
asS'S000003843'
p8898
(lp8899
g3
(g7
S'\x00\x00@A'
p8900
tp8901
Rp8902
asS'S000003840'
p8903
(lp8904
g3
(g7
S'\x00\x00@A'
p8905
tp8906
Rp8907
asS'S000003841'
p8908
(lp8909
g3
(g7
S'\x00\x00@A'
p8910
tp8911
Rp8912
asS'S000001399'
p8913
(lp8914
g3
(g7
S'\x00\x00@A'
p8915
tp8916
Rp8917
asS'S000001578'
p8918
(lp8919
g3
(g7
S'\x00\x00@A'
p8920
tp8921
Rp8922
asS'S000001579'
p8923
(lp8924
g3
(g7
S'\x00\x00@A'
p8925
tp8926
Rp8927
ag3
(g7
S'\x00\x00@A'
p8928
tp8929
Rp8930
asS'S000005670'
p8931
(lp8932
g3
(g7
S'\x00\x00@A'
p8933
tp8934
Rp8935
ag3
(g7
S'\x00\x00@A'
p8936
tp8937
Rp8938
asS'S000002373'
p8939
(lp8940
g3
(g7
S'\x00\x00@A'
p8941
tp8942
Rp8943
asS'S000005675'
p8944
(lp8945
g3
(g7
S'\x00\x00@A'
p8946
tp8947
Rp8948
asS'S000001572'
p8949
(lp8950
g3
(g7
S'\x00\x00@A'
p8951
tp8952
Rp8953
asS'S000005898'
p8954
(lp8955
g3
(g7
S'\x00\x00@A'
p8956
tp8957
Rp8958
asS'S000005383'
p8959
(lp8960
g3
(g7
S'\x00\x00@A'
p8961
tp8962
Rp8963
ag3
(g7
S'\x00\x00@A'
p8964
tp8965
Rp8966
asS'S000002172'
p8967
(lp8968
g3
(g7
S'\x00\x00@A'
p8969
tp8970
Rp8971
asS'S000002174'
p8972
(lp8973
g3
(g7
S'\x00\x00@A'
p8974
tp8975
Rp8976
asS'S000001370'
p8977
(lp8978
g3
(g7
S'\x00\x00@A'
p8979
tp8980
Rp8981
asS'S000001376'
p8982
(lp8983
g3
(g7
S'\x00\x00@A'
p8984
tp8985
Rp8986
asS'S000001374'
p8987
(lp8988
g3
(g7
S'\x00\x00@A'
p8989
tp8990
Rp8991
asS'S000005259'
p8992
(lp8993
g3
(g7
S'\x00\x00@A'
p8994
tp8995
Rp8996
ag3
(g7
S'\x00\x00@A'
p8997
tp8998
Rp8999
asS'S000005254'
p9000
(lp9001
g3
(g7
S'\x00\x00@A'
p9002
tp9003
Rp9004
asS'S000005702'
p9005
(lp9006
g3
(g7
S'\x00\x00@A'
p9007
tp9008
Rp9009
asS'S000005701'
p9010
(lp9011
g3
(g7
S'\x00\x00@A'
p9012
tp9013
Rp9014
asS'S000002572'
p9015
(lp9016
g3
(g7
S'\x00\x00@A'
p9017
tp9018
Rp9019
asS'S000003152'
p9020
(lp9021
g3
(g7
S'\x00\x00@A'
p9022
tp9023
Rp9024
asS'S000003621'
p9025
(lp9026
g3
(g7
S'\x00\x00@A'
p9027
tp9028
Rp9029
asS'S000003159'
p9030
(lp9031
g3
(g7
S'\x00\x00@A'
p9032
tp9033
Rp9034
asS'S000028843'
p9035
(lp9036
g3
(g7
S'\x00\x00@A'
p9037
tp9038
Rp9039
asS'S000002715'
p9040
(lp9041
g3
(g7
S'\x00\x00@A'
p9042
tp9043
Rp9044
ag3
(g7
S'\x00\x00@A'
p9045
tp9046
Rp9047
asS'S000002714'
p9048
(lp9049
g3
(g7
S'\x00\x00@A'
p9050
tp9051
Rp9052
asS'S000006270'
p9053
(lp9054
g3
(g7
S'\x00\x00@A'
p9055
tp9056
Rp9057
asS'S000002710'
p9058
(lp9059
g3
(g7
S'\x00\x00@A'
p9060
tp9061
Rp9062
asS'S000002713'
p9063
(lp9064
g3
(g7
S'\x00\x00@A'
p9065
tp9066
Rp9067
ag3
(g7
S'\x00\x00@A'
p9068
tp9069
Rp9070
asS'S000002719'
p9071
(lp9072
g3
(g7
S'\x00\x00@A'
p9073
tp9074
Rp9075
asS'S000003910'
p9076
(lp9077
g3
(g7
S'\x00\x00@A'
p9078
tp9079
Rp9080
ag3
(g7
S'\x00\x00@A'
p9081
tp9082
Rp9083
asS'S000004933'
p9084
(lp9085
g3
(g7
S'\x00\x00@A'
p9086
tp9087
Rp9088
asS'S000003719'
p9089
(lp9090
g3
(g7
S'\x00\x00@A'
p9091
tp9092
Rp9093
ag3
(g7
S'\x00\x00@A'
p9094
tp9095
Rp9096
asS'S000003710'
p9097
(lp9098
g3
(g7
S'\x00\x00@A'
p9099
tp9100
Rp9101
asS'S000000520'
p9102
(lp9103
g3
(g7
S'\x00\x00@A'
p9104
tp9105
Rp9106
asS'S000006017'
p9107
(lp9108
g3
(g7
S'\x00\x00@A'
p9109
tp9110
Rp9111
asS'S000003027'
p9112
(lp9113
g3
(g7
S'\x00\x00@A'
p9114
tp9115
Rp9116
asS'S000003020'
p9117
(lp9118
g3
(g7
S'\x00\x00@A'
p9119
tp9120
Rp9121
asS'S000003531'
p9122
(lp9123
g3
(g7
S'\x00\x00@A'
p9124
tp9125
Rp9126
asS'S000006018'
p9127
(lp9128
g3
(g7
S'\x00\x00@A'
p9129
tp9130
Rp9131
asS'S000003539'
p9132
(lp9133
g3
(g7
S'\x00\x00@A'
p9134
tp9135
Rp9136
asS'S000002399'
p9137
(lp9138
g3
(g7
S'\x00\x00@A'
p9139
tp9140
Rp9141
asS'S000002398'
p9142
(lp9143
g3
(g7
S'\x00\x00@A'
p9144
tp9145
Rp9146
asS'S000002431'
p9147
(lp9148
g3
(g7
S'\x00\x00@A'
p9149
tp9150
Rp9151
asS'S000002393'
p9152
(lp9153
g3
(g7
S'\x00\x00@A'
p9154
tp9155
Rp9156
ag3
(g7
S'\x00\x00@A'
p9157
tp9158
Rp9159
asS'S000002395'
p9160
(lp9161
g3
(g7
S'\x00\x00@A'
p9162
tp9163
Rp9164
asS'S000005874'
p9165
(lp9166
g3
(g7
S'\x00\x00@A'
p9167
tp9168
Rp9169
asS'S000002397'
p9170
(lp9171
g3
(g7
S'\x00\x00@A'
p9172
tp9173
Rp9174
asS'S000002396'
p9175
(lp9176
g3
(g7
S'\x00\x00@A'
p9177
tp9178
Rp9179
asS'S000003757'
p9180
(lp9181
g3
(g7
S'\x00\x00@A'
p9182
tp9183
Rp9184
asS'S000005424'
p9185
(lp9186
g3
(g7
S'\x00\x00@A'
p9187
tp9188
Rp9189
asS'S000000438'
p9190
(lp9191
g3
(g7
S'\x00\x00@A'
p9192
tp9193
Rp9194
asS'S000000439'
p9195
(lp9196
g3
(g7
S'\x00\x00@A'
p9197
tp9198
Rp9199
asS'S000000436'
p9200
(lp9201
g3
(g7
S'\x00\x00@A'
p9202
tp9203
Rp9204
asS'S000002437'
p9205
(lp9206
g3
(g7
S'\x00\x00@A'
p9207
tp9208
Rp9209
asS'S000000430'
p9210
(lp9211
g3
(g7
S'\x00\x00@A'
p9212
tp9213
Rp9214
asS'S000000431'
p9215
(lp9216
g3
(g7
S'\x00\x00@A'
p9217
tp9218
Rp9219
ag3
(g7
S'\x00\x00@A'
p9220
tp9221
Rp9222
asS'S000003448'
p9223
(lp9224
g3
(g7
S'\x00\x00@A'
p9225
tp9226
Rp9227
asS'S000006122'
p9228
(lp9229
g3
(g7
S'\x00\x00@A'
p9230
tp9231
Rp9232
asS'S000006651'
p9233
(lp9234
g3
(g7
S'\x00\x00@A'
p9235
tp9236
Rp9237
asS'S000003440'
p9238
(lp9239
g3
(g7
S'\x00\x00@A'
p9240
tp9241
Rp9242
ag3
(g7
S'\x00\x00@A'
p9243
tp9244
Rp9245
ag3
(g7
S'\x00\x00@A'
p9246
tp9247
Rp9248
asS'S000006121'
p9249
(lp9250
g3
(g7
S'\x00\x00@A'
p9251
tp9252
Rp9253
asS'S000003444'
p9254
(lp9255
g3
(g7
S'\x00\x00@A'
p9256
tp9257
Rp9258
asS'S000006125'
p9259
(lp9260
g3
(g7
S'\x00\x00@A'
p9261
tp9262
Rp9263
asS'S000000070'
p9264
(lp9265
g3
(g7
S'\x00\x00@A'
p9266
tp9267
Rp9268
asS'S000000380'
p9269
(lp9270
g3
(g7
S'\x00\x00@A'
p9271
tp9272
Rp9273
asS'S000003741'
p9274
(lp9275
g3
(g7
S'\x00\x00@A'
p9276
tp9277
Rp9278
asS'S000000382'
p9279
(lp9280
g3
(g7
S'\x00\x00@A'
p9281
tp9282
Rp9283
ag3
(g7
S'\x00\x00@A'
p9284
tp9285
Rp9286
asS'S000000384'
p9287
(lp9288
g3
(g7
S'\x00\x00@A'
p9289
tp9290
Rp9291
asS'S000002419'
p9292
(lp9293
g3
(g7
S'\x00\x00@A'
p9294
tp9295
Rp9296
asS'S000000541'
p9297
(lp9298
g3
(g7
S'\x00\x00@A'
p9299
tp9300
Rp9301
ag3
(g7
S'\x00\x00@A'
p9302
tp9303
Rp9304
asS'S000000547'
p9305
(lp9306
g3
(g7
S'\x00\x00@A'
p9307
tp9308
Rp9309
asS'S000000545'
p9310
(lp9311
g3
(g7
S'\x00\x00@A'
p9312
tp9313
Rp9314
asS'S000000894'
p9315
(lp9316
g3
(g7
S'\x00\x00@A'
p9317
tp9318
Rp9319
ag3
(g7
S'\x00\x00@A'
p9320
tp9321
Rp9322
ag3
(g7
S'\x00\x00@A'
p9323
tp9324
Rp9325
asS'S000003745'
p9326
(lp9327
g3
(g7
S'\x00\x00@A'
p9328
tp9329
Rp9330
ag3
(g7
S'\x00\x00@A'
p9331
tp9332
Rp9333
asS'S000000892'
p9334
(lp9335
g3
(g7
S'\x00\x00@A'
p9336
tp9337
Rp9338
asS'S000000893'
p9339
(lp9340
g3
(g7
S'\x00\x00@A'
p9341
tp9342
Rp9343
ag3
(g7
S'\x00\x00@A'
p9344
tp9345
Rp9346
ag3
(g7
S'\x00\x00@A'
p9347
tp9348
Rp9349
asS'S000007631'
p9350
(lp9351
g3
(g7
S'\x00\x00@A'
p9352
tp9353
Rp9354
asS'S000003747'
p9355
(lp9356
g3
(g7
S'\x00\x00@A'
p9357
tp9358
Rp9359
ag3
(g7
S'\x00\x00@A'
p9360
tp9361
Rp9362
ag3
(g7
S'\x00\x00@A'
p9363
tp9364
Rp9365
asS'S000003210'
p9366
(lp9367
g3
(g7
S'\x00\x00@A'
p9368
tp9369
Rp9370
asS'S000006722'
p9371
(lp9372
g3
(g7
S'\x00\x00@A'
p9373
tp9374
Rp9375
ag3
(g7
S'\x00\x00@A'
p9376
tp9377
Rp9378
asS'S000002611'
p9379
(lp9380
g3
(g7
S'\x00\x00@A'
p9381
tp9382
Rp9383
asS'S000000946'
p9384
(lp9385
g3
(g7
S'\x00\x00@A'
p9386
tp9387
Rp9388
asS'S000000943'
p9389
(lp9390
g3
(g7
S'\x00\x00@A'
p9391
tp9392
Rp9393
asS'S000005641'
p9394
(lp9395
g3
(g7
S'\x00\x00@A'
p9396
tp9397
Rp9398
asS'S000002342'
p9399
(lp9400
g3
(g7
S'\x00\x00@A'
p9401
tp9402
Rp9403
asS'S000000094'
p9404
(lp9405
g3
(g7
S'\x00\x00@A'
p9406
tp9407
Rp9408
asS'S000005644'
p9409
(lp9410
g3
(g7
S'\x00\x00@A'
p9411
tp9412
Rp9413
asS'S000000092'
p9414
(lp9415
g3
(g7
S'\x00\x00@A'
p9416
tp9417
Rp9418
asS'S000002617'
p9419
(lp9420
g3
(g7
S'\x00\x00@A'
p9421
tp9422
Rp9423
asS'S000000768'
p9424
(lp9425
g3
(g7
S'\x00\x00@A'
p9426
tp9427
Rp9428
asS'S000002812'
p9429
(lp9430
g3
(g7
S'\x00\x00@A'
p9431
tp9432
Rp9433
asS'S000005901'
p9434
(lp9435
g3
(g7
S'\x00\x00@A'
p9436
tp9437
Rp9438
asS'S000001522'
p9439
(lp9440
g3
(g7
S'\x00\x00@A'
p9441
tp9442
Rp9443
asS'S000007521'
p9444
(lp9445
g3
(g7
S'\x00\x00@A'
p9446
tp9447
Rp9448
asS'S000007526'
p9449
(lp9450
g3
(g7
S'\x00\x00@A'
p9451
tp9452
Rp9453
asS'S000002225'
p9454
(lp9455
g3
(g7
S'\x00\x00@A'
p9456
tp9457
Rp9458
asS'S000002595'
p9459
(lp9460
g3
(g7
S'\x00\x00@A'
p9461
tp9462
Rp9463
ag3
(g7
S'\x00\x00@A'
p9464
tp9465
Rp9466
asS'S000000168'
p9467
(lp9468
g3
(g7
S'\x00\x00@A'
p9469
tp9470
Rp9471
asS'S000001930'
p9472
(lp9473
g3
(g7
S'\x00\x00@A'
p9474
tp9475
Rp9476
asS'S000002228'
p9477
(lp9478
g3
(g7
S'\x00\x00@A'
p9479
tp9480
Rp9481
asS'S000004410'
p9482
(lp9483
g3
(g7
S'\x00\x00@A'
p9484
tp9485
Rp9486
asS'S000000162'
p9487
(lp9488
g3
(g7
S'\x00\x00@A'
p9489
tp9490
Rp9491
asS'S000000165'
p9492
(lp9493
g3
(g7
S'\x00\x00@A'
p9494
tp9495
Rp9496
asS'S000003502'
p9497
(lp9498
g3
(g7
S'\x00\x00@A'
p9499
tp9500
Rp9501
asS'S000000363'
p9502
(lp9503
g3
(g7
S'\x00\x00@A'
p9504
tp9505
Rp9506
asS'S000000360'
p9507
(lp9508
g3
(g7
S'\x00\x00@A'
p9509
tp9510
Rp9511
asS'S000004413'
p9512
(lp9513
g3
(g7
S'\x00\x00@A'
p9514
tp9515
Rp9516
ag3
(g7
S'\x00\x00@A'
p9517
tp9518
Rp9519
asS'S000002929'
p9520
(lp9521
g3
(g7
S'\x00\x00@A'
p9522
tp9523
Rp9524
asS'S000004393'
p9525
(lp9526
g3
(g7
S'\x00\x00@A'
p9527
tp9528
Rp9529
asS'S000004392'
p9530
(lp9531
g3
(g7
S'\x00\x00@A'
p9532
tp9533
Rp9534
asS'S000004391'
p9535
(lp9536
g3
(g7
S'\x00\x00@A'
p9537
tp9538
Rp9539
asS'S000004422'
p9540
(lp9541
g3
(g7
S'\x00\x00@A'
p9542
tp9543
Rp9544
asS'S000001145'
p9545
(lp9546
g3
(g7
S'\x00\x00@A'
p9547
tp9548
Rp9549
asS'S000004932'
p9550
(lp9551
g3
(g7
S'\x00\x00@A'
p9552
tp9553
Rp9554
asS'S000004395'
p9555
(lp9556
g3
(g7
S'\x00\x00@A'
p9557
tp9558
Rp9559
asS'S000004394'
p9560
(lp9561
g3
(g7
S'\x00\x00@A'
p9562
tp9563
Rp9564
asS'S000004429'
p9565
(lp9566
g3
(g7
S'\x00\x00@A'
p9567
tp9568
Rp9569
asS'S000001148'
p9570
(lp9571
g3
(g7
S'\x00\x00@A'
p9572
tp9573
Rp9574
asS'S000001418'
p9575
(lp9576
g3
(g7
S'\x00\x00@A'
p9577
tp9578
Rp9579
asS'S000004822'
p9580
(lp9581
g3
(g7
S'\x00\x00@A'
p9582
tp9583
Rp9584
asS'S000004737'
p9585
(lp9586
g3
(g7
S'\x00\x00@A'
p9587
tp9588
Rp9589
asS'S000004736'
p9590
(lp9591
g3
(g7
S'\x00\x00@A'
p9592
tp9593
Rp9594
asS'S000004731'
p9595
(lp9596
g3
(g7
S'\x00\x00@A'
p9597
tp9598
Rp9599
asS'S000005062'
p9600
(lp9601
g3
(g7
S'\x00\x00@A'
p9602
tp9603
Rp9604
asS'S000005063'
p9605
(lp9606
g3
(g7
S'\x00\x00@A'
p9607
tp9608
Rp9609
asS'S000004647'
p9610
(lp9611
g3
(g7
S'\x00\x00@A'
p9612
tp9613
Rp9614
ag3
(g7
S'\x00\x00@A'
p9615
tp9616
Rp9617
ag3
(g7
S'\x00\x00@A'
p9618
tp9619
Rp9620
asS'S000005061'
p9621
(lp9622
g3
(g7
S'\x00\x00@A'
p9623
tp9624
Rp9625
asS'S000004643'
p9626
(lp9627
g3
(g7
S'\x00\x00@A'
p9628
tp9629
Rp9630
asS'S000004642'
p9631
(lp9632
g3
(g7
S'\x00\x00@A'
p9633
tp9634
Rp9635
ag3
(g7
S'\x00\x00@A'
p9636
tp9637
Rp9638
asS'S000005068'
p9639
(lp9640
g3
(g7
S'\x00\x00@A'
p9641
tp9642
Rp9643
asS'S000005069'
p9644
(lp9645
g3
(g7
S'\x00\x00@A'
p9646
tp9647
Rp9648
asS'S000001707'
p9649
(lp9650
g3
(g7
S'\x00\x00@A'
p9651
tp9652
Rp9653
asS'S000001704'
p9654
(lp9655
g3
(g7
S'\x00\x00@A'
p9656
tp9657
Rp9658
asS'S000004027'
p9659
(lp9660
g3
(g7
S'\x00\x00@A'
p9661
tp9662
Rp9663
asS'S000005469'
p9664
(lp9665
g3
(g7
S'\x00\x00@A'
p9666
tp9667
Rp9668
ag3
(g7
S'\x00\x00@A'
p9669
tp9670
Rp9671
asS'S000005464'
p9672
(lp9673
g3
(g7
S'\x00\x00@A'
p9674
tp9675
Rp9676
ag3
(g7
S'\x00\x00@A'
p9677
tp9678
Rp9679
asS'S000000831'
p9680
(lp9681
g3
(g7
S'\x00\x00@A'
p9682
tp9683
Rp9684
asS'S000001386'
p9685
(lp9686
g3
(g7
S'\x00\x00@A'
p9687
tp9688
Rp9689
asS'S000003851'
p9690
(lp9691
g3
(g7
S'\x00\x00@A'
p9692
tp9693
Rp9694
asS'S000003859'
p9695
(lp9696
g3
(g7
S'\x00\x00@A'
p9697
tp9698
Rp9699
ag3
(g7
S'\x00\x00@A'
p9700
tp9701
Rp9702
asS'S000001389'
p9703
(lp9704
g3
(g7
S'\x00\x00@A'
p9705
tp9706
Rp9707
asS'S000001388'
p9708
(lp9709
g3
(g7
S'\x00\x00@A'
p9710
tp9711
Rp9712
asS'S000003994'
p9713
(lp9714
g3
(g7
S'\x00\x00@A'
p9715
tp9716
Rp9717
asS'S000005609'
p9718
(lp9719
g3
(g7
S'\x00\x00@A'
p9720
tp9721
Rp9722
asS'S000002497'
p9723
(lp9724
g3
(g7
S'\x00\x00@A'
p9725
tp9726
Rp9727
asS'S000006351'
p9728
(lp9729
g3
(g7
S'\x00\x00@A'
p9730
tp9731
Rp9732
asS'S000002493'
p9733
(lp9734
g3
(g7
S'\x00\x00@A'
p9735
tp9736
Rp9737
asS'S000002491'
p9738
(lp9739
g3
(g7
S'\x00\x00@A'
p9740
tp9741
Rp9742
asS'S000001362'
p9743
(lp9744
g3
(g7
S'\x00\x00@A'
p9745
tp9746
Rp9747
asS'S000001364'
p9748
(lp9749
g3
(g7
S'\x00\x00@A'
p9750
tp9751
Rp9752
ag3
(g7
S'\x00\x00@A'
p9753
tp9754
Rp9755
asS'S000001367'
p9756
(lp9757
g3
(g7
S'\x00\x00@A'
p9758
tp9759
Rp9760
asS'S000001366'
p9761
(lp9762
g3
(g7
S'\x00\x00@A'
p9763
tp9764
Rp9765
asS'S000002543'
p9766
(lp9767
g3
(g7
S'\x00\x00@A'
p9768
tp9769
Rp9770
asS'S000005265'
p9771
(lp9772
g3
(g7
S'\x00\x00@A'
p9773
tp9774
Rp9775
asS'S000002548'
p9776
(lp9777
g3
(g7
S'\x00\x00@A'
p9778
tp9779
Rp9780
asS'S000002549'
p9781
(lp9782
g3
(g7
S'\x00\x00@A'
p9783
tp9784
Rp9785
asS'S000005119'
p9786
(lp9787
g3
(g7
S'\x00\x00@A'
p9788
tp9789
Rp9790
asS'S000003143'
p9791
(lp9792
g3
(g7
S'\x00\x00@A'
p9793
tp9794
Rp9795
asS'S000003637'
p9796
(lp9797
g3
(g7
S'\x00\x00@A'
p9798
tp9799
Rp9800
asS'S000003636'
p9801
(lp9802
g3
(g7
S'\x00\x00@A'
p9803
tp9804
Rp9805
asS'S000003998'
p9806
(lp9807
g3
(g7
S'\x00\x00@A'
p9808
tp9809
Rp9810
asS'S000028651'
p9811
(lp9812
g3
(g7
S'\x00\x00@A'
p9813
tp9814
Rp9815
asS'S000002726'
p9816
(lp9817
g3
(g7
S'\x00\x00@A'
p9818
tp9819
Rp9820
asS'S000028653'
p9821
(lp9822
g3
(g7
S'\x00\x00@A'
p9823
tp9824
Rp9825
asS'S000006261'
p9826
(lp9827
g3
(g7
S'\x00\x00@A'
p9828
tp9829
Rp9830
asS'S000007231'
p9831
(lp9832
g3
(g7
S'\x00\x00@A'
p9833
tp9834
Rp9835
asS'S000005288'
p9836
(lp9837
g3
(g7
S'\x00\x00@A'
p9838
tp9839
Rp9840
asS'S000005289'
p9841
(lp9842
g3
(g7
S'\x00\x00@A'
p9843
tp9844
Rp9845
asS'S000006265'
p9846
(lp9847
g3
(g7
S'\x00\x00@A'
p9848
tp9849
Rp9850
asS'S000006268'
p9851
(lp9852
g3
(g7
S'\x00\x00@A'
p9853
tp9854
Rp9855
asS'S000005286'
p9856
(lp9857
g3
(g7
S'\x00\x00@A'
p9858
tp9859
Rp9860
ag3
(g7
S'\x00\x00@A'
p9861
tp9862
Rp9863
asS'S000005287'
p9864
(lp9865
g3
(g7
S'\x00\x00@A'
p9866
tp9867
Rp9868
asS'S000005285'
p9869
(lp9870
g3
(g7
S'\x00\x00@A'
p9871
tp9872
Rp9873
asS'S000004651'
p9874
(lp9875
g3
(g7
S'\x00\x00@A'
p9876
tp9877
Rp9878
asS'S000003705'
p9879
(lp9880
g3
(g7
S'\x00\x00@A'
p9881
tp9882
Rp9883
asS'S000003707'
p9884
(lp9885
g3
(g7
S'\x00\x00@A'
p9886
tp9887
Rp9888
asS'S000003039'
p9889
(lp9890
g3
(g7
S'\x00\x00@A'
p9891
tp9892
Rp9893
asS'S000003032'
p9894
(lp9895
g3
(g7
S'\x00\x00@A'
p9896
tp9897
Rp9898
asS'S000003031'
p9899
(lp9900
g3
(g7
S'\x00\x00@A'
p9901
tp9902
Rp9903
asS'S000003030'
p9904
(lp9905
g3
(g7
S'\x00\x00@A'
p9906
tp9907
Rp9908
asS'S000006007'
p9909
(lp9910
g3
(g7
S'\x00\x00@A'
p9911
tp9912
Rp9913
asS'S000003522'
p9914
(lp9915
g3
(g7
S'\x00\x00@A'
p9916
tp9917
Rp9918
asS'S000006009'
p9919
(lp9920
g3
(g7
S'\x00\x00@A'
p9921
tp9922
Rp9923
asS'S000006399'
p9924
(lp9925
g3
(g7
S'\x00\x00@A'
p9926
tp9927
Rp9928
asS'S000005757'
p9929
(lp9930
g3
(g7
S'\x00\x00@A'
p9931
tp9932
Rp9933
asS'S000007283'
p9934
(lp9935
g3
(g7
S'\x00\x00@A'
p9936
tp9937
Rp9938
asS'S000000425'
p9939
(lp9940
g3
(g7
S'\x00\x00@A'
p9941
tp9942
Rp9943
asS'S000000424'
p9944
(lp9945
g3
(g7
S'\x00\x00@A'
p9946
tp9947
Rp9948
asS'S000000422'
p9949
(lp9950
g3
(g7
S'\x00\x00@A'
p9951
tp9952
Rp9953
asS'S000003459'
p9954
(lp9955
g3
(g7
S'\x00\x00@A'
p9956
tp9957
Rp9958
asS'S000006649'
p9959
(lp9960
g3
(g7
S'\x00\x00@A'
p9961
tp9962
Rp9963
ag3
(g7
S'\x00\x00@A'
p9964
tp9965
Rp9966
asS'S000006648'
p9967
(lp9968
g3
(g7
S'\x00\x00@A'
p9969
tp9970
Rp9971
asS'S000006131'
p9972
(lp9973
g3
(g7
S'\x00\x00@A'
p9974
tp9975
Rp9976
asS'S000003453'
p9977
(lp9978
g3
(g7
S'\x00\x00@A'
p9979
tp9980
Rp9981
ag3
(g7
S'\x00\x00@A'
p9982
tp9983
Rp9984
asS'S000006132'
p9985
(lp9986
g3
(g7
S'\x00\x00@A'
p9987
tp9988
Rp9989
asS'S000003454'
p9990
(lp9991
g3
(g7
S'\x00\x00@A'
p9992
tp9993
Rp9994
ag3
(g7
S'\x00\x00@A'
p9995
tp9996
Rp9997
asS'S000006641'
p9998
(lp9999
g3
(g7
S'\x00\x00@A'
p10000
tp10001
Rp10002
asS'S000006640'
p10003
(lp10004
g3
(g7
S'\x00\x00@A'
p10005
tp10006
Rp10007
asS'S000005077'
p10008
(lp10009
g3
(g7
S'\x00\x00@A'
p10010
tp10011
Rp10012
ag3
(g7
S'\x00\x00@A'
p10013
tp10014
Rp10015
asS'S000000883'
p10016
(lp10017
g3
(g7
S'\x00\x00@A'
p10018
tp10019
Rp10020
asS'S000000882'
p10021
(lp10022
g3
(g7
S'\x00\x00@A'
p10023
tp10024
Rp10025
asS'S000000555'
p10026
(lp10027
g3
(g7
S'\x00\x00@A'
p10028
tp10029
Rp10030
asS'S000000885'
p10031
(lp10032
g3
(g7
S'\x00\x00@A'
p10033
tp10034
Rp10035
asS'S000000889'
p10036
(lp10037
g3
(g7
S'\x00\x00@A'
p10038
tp10039
Rp10040
asS'S000007606'
p10041
(lp10042
g3
(g7
S'\x00\x00@A'
p10043
tp10044
Rp10045
asS'S000007607'
p10046
(lp10047
g3
(g7
S'\x00\x00@A'
p10048
tp10049
Rp10050
asS'S000006731'
p10051
(lp10052
g3
(g7
S'\x00\x00@A'
p10053
tp10054
Rp10055
asS'S000006730'
p10056
(lp10057
g3
(g7
S'\x00\x00@A'
p10058
tp10059
Rp10060
ag3
(g7
S'\x00\x00@A'
p10061
tp10062
Rp10063
asS'S000006737'
p10064
(lp10065
g3
(g7
S'\x00\x00@A'
p10066
tp10067
Rp10068
asS'S000000959'
p10069
(lp10070
g3
(g7
S'\x00\x00@A'
p10071
tp10072
Rp10073
asS'S000000958'
p10074
(lp10075
g3
(g7
S'\x00\x00@A'
p10076
tp10077
Rp10078
ag3
(g7
S'\x00\x00@A'
p10079
tp10080
Rp10081
asS'S000000955'
p10082
(lp10083
g3
(g7
S'\x00\x00@A'
p10084
tp10085
Rp10086
asS'S000000956'
p10087
(lp10088
g3
(g7
S'\x00\x00@A'
p10089
tp10090
Rp10091
asS'S000004486'
p10092
(lp10093
g3
(g7
S'\x00\x00@A'
p10094
tp10095
Rp10096
ag3
(g7
S'\x00\x00@A'
p10097
tp10098
Rp10099
asS'S000000081'
p10100
(lp10101
g3
(g7
S'\x00\x00@A'
p10102
tp10103
Rp10104
asS'S000000085'
p10105
(lp10106
g3
(g7
S'\x00\x00@A'
p10107
tp10108
Rp10109
ag3
(g7
S'\x00\x00@A'
p10110
tp10111
Rp10112
asS'S000000774'
p10113
(lp10114
g3
(g7
S'\x00\x00@A'
p10115
tp10116
Rp10117
asS'S000002805'
p10118
(lp10119
g3
(g7
S'\x00\x00@A'
p10120
tp10121
Rp10122
asS'S000000179'
p10123
(lp10124
g3
(g7
S'\x00\x00@A'
p10125
tp10126
Rp10127
asS'S000000177'
p10128
(lp10129
g3
(g7
S'\x00\x00@A'
p10130
tp10131
Rp10132
asS'S000000171'
p10133
(lp10134
g3
(g7
S'\x00\x00@A'
p10135
tp10136
Rp10137
ag3
(g7
S'\x00\x00@A'
p10138
tp10139
Rp10140
asS'S000000170'
p10141
(lp10142
g3
(g7
S'\x00\x00@A'
p10143
tp10144
Rp10145
asS'S000000379'
p10146
(lp10147
g3
(g7
S'\x00\x00@A'
p10148
tp10149
Rp10150
asS'S000000378'
p10151
(lp10152
g3
(g7
S'\x00\x00@A'
p10153
tp10154
Rp10155
asS'S000000373'
p10156
(lp10157
g3
(g7
S'\x00\x00@A'
p10158
tp10159
Rp10160
asS'S000000377'
p10161
(lp10162
g3
(g7
S'\x00\x00@A'
p10163
tp10164
Rp10165
ag3
(g7
S'\x00\x00@A'
p10166
tp10167
Rp10168
asS'S000000376'
p10169
(lp10170
g3
(g7
S'\x00\x00@A'
p10171
tp10172
Rp10173
ag3
(g7
S'\x00\x00@A'
p10174
tp10175
Rp10176
asS'S000003860'
p10177
(lp10178
g3
(g7
S'\x00\x00@A'
p10179
tp10180
Rp10181
asS'S000002937'
p10182
(lp10183
g3
(g7
S'\x00\x00@A'
p10184
tp10185
Rp10186
ag3
(g7
S'\x00\x00@A'
p10187
tp10188
Rp10189
asS'S000002939'
p10190
(lp10191
g3
(g7
S'\x00\x00@A'
p10192
tp10193
Rp10194
asS'S000001175'
p10195
(lp10196
g3
(g7
S'\x00\x00@A'
p10197
tp10198
Rp10199
asS'S000001176'
p10200
(lp10201
g3
(g7
S'\x00\x00@A'
p10202
tp10203
Rp10204
asS'S000001177'
p10205
(lp10206
g3
(g7
S'\x00\x00@A'
p10207
tp10208
Rp10209
asS'S000001170'
p10210
(lp10211
g3
(g7
S'\x00\x00@A'
p10212
tp10213
Rp10214
asS'S000001172'
p10215
(lp10216
g3
(g7
S'\x00\x00@A'
p10217
tp10218
Rp10219
asS'S000001173'
p10220
(lp10221
g3
(g7
S'\x00\x00@A'
p10222
tp10223
Rp10224
ag3
(g7
S'\x00\x00@A'
p10225
tp10226
Rp10227
asS'S000005470'
p10228
(lp10229
g3
(g7
S'\x00\x00@A'
p10230
tp10231
Rp10232
asS'S000003866'
p10233
(lp10234
g3
(g7
S'\x00\x00@A'
p10235
tp10236
Rp10237
asS'S000000301'
p10238
(lp10239
g3
(g7
S'\x00\x00@A'
p10240
tp10241
Rp10242
asS'S000004090'
p10243
(lp10244
g3
(g7
S'\x00\x00@A'
p10245
tp10246
Rp10247
asS'S000003995'
p10248
(lp10249
g3
(g7
S'\x00\x00@A'
p10250
tp10251
Rp10252
asS'S000003996'
p10253
(lp10254
g3
(g7
S'\x00\x00@A'
p10255
tp10256
Rp10257
asS'S000003997'
p10258
(lp10259
g3
(g7
S'\x00\x00@A'
p10260
tp10261
Rp10262
ag3
(g7
S'\x00\x00@A'
p10263
tp10264
Rp10265
ag3
(g7
S'\x00\x00@A'
p10266
tp10267
Rp10268
asS'S000004096'
p10269
(lp10270
g3
(g7
S'\x00\x00@A'
p10271
tp10272
Rp10273
asS'S000003993'
p10274
(lp10275
g3
(g7
S'\x00\x00@A'
p10276
tp10277
Rp10278
asS'S000004098'
p10279
(lp10280
g3
(g7
S'\x00\x00@A'
p10281
tp10282
Rp10283
asS'S000004099'
p10284
(lp10285
g3
(g7
S'\x00\x00@A'
p10286
tp10287
Rp10288
asS'S000001415'
p10289
(lp10290
g3
(g7
S'\x00\x00@A'
p10291
tp10292
Rp10293
asS'S000004702'
p10294
(lp10295
g3
(g7
S'\x00\x00@A'
p10296
tp10297
Rp10298
asS'S000004256'
p10299
(lp10300
g3
(g7
S'\x00\x00@A'
p10301
tp10302
Rp10303
asS'S000004709'
p10304
(lp10305
g3
(g7
S'\x00\x00@A'
p10306
tp10307
Rp10308
asS'S000005571'
p10309
(lp10310
g3
(g7
S'\x00\x00@A'
p10311
tp10312
Rp10313
asS'S000005073'
p10314
(lp10315
g3
(g7
S'\x00\x00@A'
p10316
tp10317
Rp10318
asS'S000004079'
p10319
(lp10320
g3
(g7
S'\x00\x00@A'
p10321
tp10322
Rp10323
asS'S000004009'
p10324
(lp10325
g3
(g7
S'\x00\x00@A'
p10326
tp10327
Rp10328
asS'S000001778'
p10329
(lp10330
g3
(g7
S'\x00\x00@A'
p10331
tp10332
Rp10333
asS'S000005076'
p10334
(lp10335
g3
(g7
S'\x00\x00@A'
p10336
tp10337
Rp10338
ag3
(g7
S'\x00\x00@A'
p10339
tp10340
Rp10341
asS'S000005079'
p10342
(lp10343
g3
(g7
S'\x00\x00@A'
p10344
tp10345
Rp10346
asS'S000004008'
p10347
(lp10348
g3
(g7
S'\x00\x00@A'
p10349
tp10350
Rp10351
asS'S000006164'
p10352
(lp10353
g3
(g7
S'\x00\x00@A'
p10354
tp10355
Rp10356
asS'S000004074'
p10357
(lp10358
g3
(g7
S'\x00\x00@A'
p10359
tp10360
Rp10361
asS'S000004554'
p10362
(lp10363
g3
(g7
S'\x00\x00@A'
p10364
tp10365
Rp10366
asS'S000004891'
p10367
(lp10368
g3
(g7
S'\x00\x00@A'
p10369
tp10370
Rp10371
asS'S000004004'
p10372
(lp10373
g3
(g7
S'\x00\x00@A'
p10374
tp10375
Rp10376
asS'S000005475'
p10377
(lp10378
g3
(g7
S'\x00\x00@A'
p10379
tp10380
Rp10381
asS'S000005474'
p10382
(lp10383
g3
(g7
S'\x00\x00@A'
p10384
tp10385
Rp10386
asS'S000005471'
p10387
(lp10388
g3
(g7
S'\x00\x00@A'
p10389
tp10390
Rp10391
ag3
(g7
S'\x00\x00@A'
p10392
tp10393
Rp10394
asS'S000003865'
p10395
(lp10396
g3
(g7
S'\x00\x00@A'
p10397
tp10398
Rp10399
asS'S000005473'
p10400
(lp10401
g3
(g7
S'\x00\x00@A'
p10402
tp10403
Rp10404
asS'S000004002'
p10405
(lp10406
g3
(g7
S'\x00\x00@A'
p10407
tp10408
Rp10409
asS'S000001073'
p10410
(lp10411
g3
(g7
S'\x00\x00@A'
p10412
tp10413
Rp10414
asS'S000005974'
p10415
(lp10416
g3
(g7
S'\x00\x00@A'
p10417
tp10418
Rp10419
as.