(dp0
S'S000004623'
p1
(lp2
cnumpy.core.multiarray
scalar
p3
(cnumpy
dtype
p4
(S'f4'
p5
I0
I1
tp6
Rp7
(I3
S'<'
p8
NNNI-1
I-1
I0
tp9
bS'\x92s*A'
p10
tp11
Rp12
ag3
(g7
S'T4,A'
p13
tp14
Rp15
ag3
(g7
S'\xb8\x8b9A'
p16
tp17
Rp18
asS'S000000830'
p19
(lp20
g3
(g7
S'A+\x8a?'
p21
tp22
Rp23
ag3
(g7
S'\x17c\xd2?'
p24
tp25
Rp26
ag3
(g7
S'T\xf4\xd4?'
p27
tp28
Rp29
ag3
(g7
S'\x81\xa2\xdd?'
p30
tp31
Rp32
ag3
(g7
S'\xbd\xbf\x0b@'
p33
tp34
Rp35
ag3
(g7
S'\xd5\x16%@'
p36
tp37
Rp38
ag3
(g7
S'0\x17\x85@'
p39
tp40
Rp41
ag3
(g7
S'\xd3Q\xad@'
p42
tp43
Rp44
ag3
(g7
S'\xd3Q\xcd@'
p45
tp46
Rp47
ag3
(g7
S'\xe3\xb9\xfa@'
p48
tp49
Rp50
ag3
(g7
S'-\x0b\x0cA'
p51
tp52
Rp53
ag3
(g7
S'\xbf\x02\x1eA'
p54
tp55
Rp56
ag3
(g7
S'\xbf\x02\x1eA'
p57
tp58
Rp59
asS'S000001595'
p60
(lp61
g3
(g7
S'O&!@'
p62
tp63
Rp64
asS'S000003639'
p65
(lp66
g3
(g7
S'\xb6A\xa8>'
p67
tp68
Rp69
ag3
(g7
S'\xe0\x11B?'
p70
tp71
Rp72
ag3
(g7
S'\xb6@T?'
p73
tp74
Rp75
ag3
(g7
S'\x01\xa3\xb2?'
p76
tp77
Rp78
ag3
(g7
S'\xadv\xf3?'
p79
tp80
Rp81
ag3
(g7
S'>\x06\xf7?'
p82
tp83
Rp84
ag3
(g7
S's:\x13@'
p85
tp86
Rp87
ag3
(g7
S'\xbbV\x19@'
p88
tp89
Rp90
ag3
(g7
S'\xc4\xf0D@'
p91
tp92
Rp93
ag3
(g7
S'\xb8.c@'
p94
tp95
Rp96
ag3
(g7
S';\xcc\x8a@'
p97
tp98
Rp99
ag3
(g7
S'\xcbA\x97@'
p100
tp101
Rp102
ag3
(g7
S'C\x1f\xa8@'
p103
tp104
Rp105
ag3
(g7
S'\x0f\xbc\xc2@'
p106
tp107
Rp108
ag3
(g7
S'R~\x02A'
p109
tp110
Rp111
asS'S000004778'
p112
(lp113
g3
(g7
S'\xa4\x0fPA'
p114
tp115
Rp116
ag3
(g7
S'\x8eBZA'
p117
tp118
Rp119
asS'S000001498'
p120
(lp121
g3
(g7
S'\x01\xbd$A'
p122
tp123
Rp124
asS'S000002157'
p125
(lp126
g3
(g7
S'\xb7\x86A8'
p127
tp128
Rp129
ag3
(g7
S'\xe7\xb1\x1b;'
p130
tp131
Rp132
ag3
(g7
S'\xb3\xa6l<'
p133
tp134
Rp135
ag3
(g7
S'\xa0\xaeo<'
p136
tp137
Rp138
ag3
(g7
S'\x15\x11\x9c<'
p139
tp140
Rp141
ag3
(g7
S'\xe2\x16$='
p142
tp143
Rp144
ag3
(g7
S'\x80Z;='
p145
tp146
Rp147
ag3
(g7
S'\xfax@='
p148
tp149
Rp150
ag3
(g7
S'\x8cXt='
p151
tp152
Rp153
ag3
(g7
S'+\x0c\x87='
p154
tp155
Rp156
ag3
(g7
S'\x8dY\x8f='
p157
tp158
Rp159
ag3
(g7
S'YO\xa8='
p160
tp161
Rp162
ag3
(g7
S'\x9b@\xb8='
p163
tp164
Rp165
ag3
(g7
S'\xa6%\xc7='
p166
tp167
Rp168
ag3
(g7
S'+\xa1\xfd='
p169
tp170
Rp171
ag3
(g7
S'\x87u*>'
p172
tp173
Rp174
ag3
(g7
S'i\xb9,>'
p175
tp176
Rp177
ag3
(g7
S'\x9b\xb21>'
p178
tp179
Rp180
ag3
(g7
S'\x96\x9f6>'
p181
tp182
Rp183
ag3
(g7
S'[\xb47>'
p184
tp185
Rp186
ag3
(g7
S'y\xbcB>'
p187
tp188
Rp189
ag3
(g7
S'XWF>'
p190
tp191
Rp192
ag3
(g7
S'\x8e\x84]>'
p193
tp194
Rp195
ag3
(g7
S'cEx>'
p196
tp197
Rp198
ag3
(g7
S'3\xa9\x85>'
p199
tp200
Rp201
ag3
(g7
S'\x0bK\x89>'
p202
tp203
Rp204
ag3
(g7
S'\x8f2\x8d>'
p205
tp206
Rp207
ag3
(g7
S'z\xe5\x95>'
p208
tp209
Rp210
ag3
(g7
S'b\xab\x97>'
p211
tp212
Rp213
ag3
(g7
S'\xa4\x8d\x9d>'
p214
tp215
Rp216
ag3
(g7
S'i\xff\xa2>'
p217
tp218
Rp219
ag3
(g7
S'\xcd\xb6\xa5>'
p220
tp221
Rp222
ag3
(g7
S'$o\xb3>'
p223
tp224
Rp225
ag3
(g7
S'\xdc)\xbd>'
p226
tp227
Rp228
ag3
(g7
S'/R\xc0>'
p229
tp230
Rp231
ag3
(g7
S'\x91\xfe\xc3>'
p232
tp233
Rp234
ag3
(g7
S'\xc7\xb1\xcf>'
p235
tp236
Rp237
ag3
(g7
S'/\xac\xe4>'
p238
tp239
Rp240
ag3
(g7
S"d'\xe5>"
p241
tp242
Rp243
ag3
(g7
S'\x18\x9f\xed>'
p244
tp245
Rp246
ag3
(g7
S'|\xe1\xed>'
p247
tp248
Rp249
ag3
(g7
S'\x01\xa3\xee>'
p250
tp251
Rp252
ag3
(g7
S'2\xac\x01?'
p253
tp254
Rp255
ag3
(g7
S';+\x05?'
p256
tp257
Rp258
ag3
(g7
S'\x96~\t?'
p259
tp260
Rp261
ag3
(g7
S'\xc2-\n?'
p262
tp263
Rp264
ag3
(g7
S'\xcb\\\n?'
p265
tp266
Rp267
ag3
(g7
S'\xac\xcc\x0e?'
p268
tp269
Rp270
ag3
(g7
S'z\xf2\x0f?'
p271
tp272
Rp273
ag3
(g7
S'\xd78\x10?'
p274
tp275
Rp276
ag3
(g7
S'\xfc\xf6\x13?'
p277
tp278
Rp279
ag3
(g7
S'K\x1f\x15?'
p280
tp281
Rp282
ag3
(g7
S'\x8a\x8f\x18?'
p283
tp284
Rp285
ag3
(g7
S'-\x16\x1b?'
p286
tp287
Rp288
ag3
(g7
S'\xd7^\x1b?'
p289
tp290
Rp291
ag3
(g7
S'\xb1!\x1c?'
p292
tp293
Rp294
ag3
(g7
S'\xc5]\x1f?'
p295
tp296
Rp297
ag3
(g7
S'\x19?&?'
p298
tp299
Rp300
ag3
(g7
S"\xce\xaf'?"
p301
tp302
Rp303
ag3
(g7
S'\xbd\xa8)?'
p304
tp305
Rp306
ag3
(g7
S'K\xb5,?'
p307
tp308
Rp309
ag3
(g7
S'\x8f26?'
p310
tp311
Rp312
ag3
(g7
S'\x0797?'
p313
tp314
Rp315
ag3
(g7
S'\xa6\xc48?'
p316
tp317
Rp318
ag3
(g7
S'\xa9|A?'
p319
tp320
Rp321
ag3
(g7
S'O\\B?'
p322
tp323
Rp324
ag3
(g7
S'gCC?'
p325
tp326
Rp327
ag3
(g7
S'\x8d!H?'
p328
tp329
Rp330
ag3
(g7
S'\x92eI?'
p331
tp332
Rp333
ag3
(g7
S'xqM?'
p334
tp335
Rp336
ag3
(g7
S'\x8bUO?'
p337
tp338
Rp339
ag3
(g7
S'[\xe7P?'
p340
tp341
Rp342
ag3
(g7
S'\xccEW?'
p343
tp344
Rp345
ag3
(g7
S'G\x7fX?'
p346
tp347
Rp348
ag3
(g7
S'\xe1\xc3^?'
p349
tp350
Rp351
ag3
(g7
S'\x93\t_?'
p352
tp353
Rp354
ag3
(g7
S'"\x00e?'
p355
tp356
Rp357
ag3
(g7
S'\xe8)f?'
p358
tp359
Rp360
ag3
(g7
S'c1l?'
p361
tp362
Rp363
ag3
(g7
S'uMm?'
p364
tp365
Rp366
ag3
(g7
S'C\x86r?'
p367
tp368
Rp369
ag3
(g7
S')\x1bu?'
p370
tp371
Rp372
ag3
(g7
S'\xad\xb5v?'
p373
tp374
Rp375
ag3
(g7
S'|\xbc\x80?'
p376
tp377
Rp378
ag3
(g7
S'\xb3[\x81?'
p379
tp380
Rp381
ag3
(g7
S'\x80\xda\x81?'
p382
tp383
Rp384
ag3
(g7
S'\x80\x08\x84?'
p385
tp386
Rp387
ag3
(g7
S'\xd8c\x84?'
p388
tp389
Rp390
ag3
(g7
S'\xa0\x8a\x85?'
p391
tp392
Rp393
ag3
(g7
S'/\x8e\x87?'
p394
tp395
Rp396
ag3
(g7
S'\xdd\x13\x88?'
p397
tp398
Rp399
ag3
(g7
S'\xea`\x8b?'
p400
tp401
Rp402
ag3
(g7
S'2\xb0\x8b?'
p403
tp404
Rp405
ag3
(g7
S'\x98\xe6\x8c?'
p406
tp407
Rp408
ag3
(g7
S'X\xec\x8d?'
p409
tp410
Rp411
ag3
(g7
S'N\xf5\x91?'
p412
tp413
Rp414
ag3
(g7
S'\xb3\xb0\x93?'
p415
tp416
Rp417
ag3
(g7
S'\xff&\x94?'
p418
tp419
Rp420
ag3
(g7
S'|E\x95?'
p421
tp422
Rp423
ag3
(g7
S'\xe9\xe6\x95?'
p424
tp425
Rp426
ag3
(g7
S'\xa2\xa5\x96?'
p427
tp428
Rp429
ag3
(g7
S'\xb3\xb6\x96?'
p430
tp431
Rp432
ag3
(g7
S'?^\x99?'
p433
tp434
Rp435
ag3
(g7
S')\xe4\x9a?'
p436
tp437
Rp438
ag3
(g7
S'\n\x1a\x9e?'
p439
tp440
Rp441
ag3
(g7
S'\xf0\xc4\x9e?'
p442
tp443
Rp444
ag3
(g7
S'\xb6C\xa0?'
p445
tp446
Rp447
ag3
(g7
S'\xb1\x0e\xa2?'
p448
tp449
Rp450
ag3
(g7
S'\xac\xe9\xa5?'
p451
tp452
Rp453
ag3
(g7
S'\t\xf2\xa9?'
p454
tp455
Rp456
ag3
(g7
S'\xf0\xaf\xab?'
p457
tp458
Rp459
ag3
(g7
S"\x94'\xac?"
p460
tp461
Rp462
ag3
(g7
S'\xceQ\xad?'
p463
tp464
Rp465
ag3
(g7
S'\xceH\xae?'
p466
tp467
Rp468
ag3
(g7
S'h\x86\xae?'
p469
tp470
Rp471
ag3
(g7
S'\xb0\xfc\xae?'
p472
tp473
Rp474
ag3
(g7
S'\xc3=\xb2?'
p475
tp476
Rp477
ag3
(g7
S'O\x9d\xb3?'
p478
tp479
Rp480
ag3
(g7
S'4\xd9\xb3?'
p481
tp482
Rp483
ag3
(g7
S'y0\xb9?'
p484
tp485
Rp486
ag3
(g7
S'\xf9\xd6\xba?'
p487
tp488
Rp489
ag3
(g7
S'\xabX\xbc?'
p490
tp491
Rp492
ag3
(g7
S'\xdfB\xbd?'
p493
tp494
Rp495
ag3
(g7
S'\xfa\xb4\xbd?'
p496
tp497
Rp498
ag3
(g7
S'"l\xbf?'
p499
tp500
Rp501
ag3
(g7
S'$J\xc4?'
p502
tp503
Rp504
ag3
(g7
S'\xad,\xc8?'
p505
tp506
Rp507
ag3
(g7
S'\x9c\x12\xcb?'
p508
tp509
Rp510
ag3
(g7
S'\xa0]\xcc?'
p511
tp512
Rp513
ag3
(g7
S'f\x01\xce?'
p514
tp515
Rp516
ag3
(g7
S'\x05l\xcf?'
p517
tp518
Rp519
ag3
(g7
S'\x86\xad\xcf?'
p520
tp521
Rp522
ag3
(g7
S'\n\x18\xd2?'
p523
tp524
Rp525
ag3
(g7
S'\xb0\xc3\xd2?'
p526
tp527
Rp528
ag3
(g7
S'`\x8a\xd4?'
p529
tp530
Rp531
ag3
(g7
S'\x8aZ\xda?'
p532
tp533
Rp534
ag3
(g7
S'E\xe5\xdb?'
p535
tp536
Rp537
ag3
(g7
S'\xe1\xff\xdc?'
p538
tp539
Rp540
ag3
(g7
S'Rn\xde?'
p541
tp542
Rp543
ag3
(g7
S'\xad\xce\xe1?'
p544
tp545
Rp546
ag3
(g7
S'#p\xe5?'
p547
tp548
Rp549
ag3
(g7
S'~\x1e\xe8?'
p550
tp551
Rp552
ag3
(g7
S'\xa4\x0e\xec?'
p553
tp554
Rp555
ag3
(g7
S'\xa3*\xec?'
p556
tp557
Rp558
ag3
(g7
S'0S\xef?'
p559
tp560
Rp561
ag3
(g7
S'\xc4[\xef?'
p562
tp563
Rp564
ag3
(g7
S'\xbf\xa3\xf0?'
p565
tp566
Rp567
ag3
(g7
S'\x1a\xeb\xf1?'
p568
tp569
Rp570
ag3
(g7
S'N\x95\xf4?'
p571
tp572
Rp573
ag3
(g7
S'\xc2\xd4\xf4?'
p574
tp575
Rp576
ag3
(g7
S'\xfb\xa5\xfa?'
p577
tp578
Rp579
ag3
(g7
S'3\xe8\xfd?'
p580
tp581
Rp582
ag3
(g7
S'\x8b\x9c\xfe?'
p583
tp584
Rp585
ag3
(g7
S'\xa6\xfc\xff?'
p586
tp587
Rp588
ag3
(g7
S'\x99G\x00@'
p589
tp590
Rp591
ag3
(g7
S'\xc0P\x01@'
p592
tp593
Rp594
ag3
(g7
S'\xb0\xd3\x01@'
p595
tp596
Rp597
ag3
(g7
S'\xc5\xdb\x01@'
p598
tp599
Rp600
ag3
(g7
S'p"\x02@'
p601
tp602
Rp603
ag3
(g7
S'\xef\xf7\x02@'
p604
tp605
Rp606
ag3
(g7
S'N\xf9\x02@'
p607
tp608
Rp609
ag3
(g7
S'kU\x03@'
p610
tp611
Rp612
ag3
(g7
S'\xe9(\x04@'
p613
tp614
Rp615
ag3
(g7
S'7>\x04@'
p616
tp617
Rp618
ag3
(g7
S'\xa5t\x04@'
p619
tp620
Rp621
ag3
(g7
S'\x98\xaa\x04@'
p622
tp623
Rp624
ag3
(g7
S'WU\x05@'
p625
tp626
Rp627
ag3
(g7
S'\\\x98\x05@'
p628
tp629
Rp630
ag3
(g7
S'\x8aX\x06@'
p631
tp632
Rp633
ag3
(g7
S'4\xcb\x06@'
p634
tp635
Rp636
ag3
(g7
S'\xbc\x17\x07@'
p637
tp638
Rp639
ag3
(g7
S'\xb1H\x07@'
p640
tp641
Rp642
ag3
(g7
S'HX\x07@'
p643
tp644
Rp645
ag3
(g7
S'$\xe7\x08@'
p646
tp647
Rp648
ag3
(g7
S'\xcda\n@'
p649
tp650
Rp651
ag3
(g7
S'\xe5)\x0c@'
p652
tp653
Rp654
ag3
(g7
S'\xe0\xb1\x0c@'
p655
tp656
Rp657
ag3
(g7
S'K\xd6\x0c@'
p658
tp659
Rp660
ag3
(g7
S'T\x1b\r@'
p661
tp662
Rp663
ag3
(g7
S'p\x1c\r@'
p664
tp665
Rp666
ag3
(g7
S'\x1fl\x0e@'
p667
tp668
Rp669
ag3
(g7
S'\x9e\xc4\x0e@'
p670
tp671
Rp672
ag3
(g7
S'\x16\x85\x0f@'
p673
tp674
Rp675
ag3
(g7
S'\x02\x17\x10@'
p676
tp677
Rp678
ag3
(g7
S'\xf0\x9f\x10@'
p679
tp680
Rp681
ag3
(g7
S'\xa2\xa6\x10@'
p682
tp683
Rp684
ag3
(g7
S'7\xc1\x11@'
p685
tp686
Rp687
ag3
(g7
S'Fq\x12@'
p688
tp689
Rp690
ag3
(g7
S'\x98\\\x15@'
p691
tp692
Rp693
ag3
(g7
S'`\xa6\x15@'
p694
tp695
Rp696
ag3
(g7
S'Q\xf4\x16@'
p697
tp698
Rp699
ag3
(g7
S'\xb3\x16\x17@'
p700
tp701
Rp702
ag3
(g7
S'*\x9d\x1a@'
p703
tp704
Rp705
ag3
(g7
S'S?\x1b@'
p706
tp707
Rp708
ag3
(g7
S'\x12\x9b\x1b@'
p709
tp710
Rp711
ag3
(g7
S'\xdeD\x1c@'
p712
tp713
Rp714
ag3
(g7
S'\x03\x80\x1e@'
p715
tp716
Rp717
ag3
(g7
S'\xde\xb2\x1e@'
p718
tp719
Rp720
ag3
(g7
S'\x00! @'
p721
tp722
Rp723
ag3
(g7
S'{\x11#@'
p724
tp725
Rp726
ag3
(g7
S'\xdb\x96%@'
p727
tp728
Rp729
ag3
(g7
S'\xa5\x9b)@'
p730
tp731
Rp732
ag3
(g7
S'\xab\xd3*@'
p733
tp734
Rp735
ag3
(g7
S'g\x93,@'
p736
tp737
Rp738
ag3
(g7
S'\xc7&.@'
p739
tp740
Rp741
ag3
(g7
S'\x8ev0@'
p742
tp743
Rp744
ag3
(g7
S'\xdb!2@'
p745
tp746
Rp747
ag3
(g7
S'\x8a/2@'
p748
tp749
Rp750
ag3
(g7
S'\x08\xb62@'
p751
tp752
Rp753
ag3
(g7
S'\rS3@'
p754
tp755
Rp756
ag3
(g7
S'\xedj3@'
p757
tp758
Rp759
ag3
(g7
S'/m3@'
p760
tp761
Rp762
ag3
(g7
S'6\x156@'
p763
tp764
Rp765
ag3
(g7
S'\x14\x128@'
p766
tp767
Rp768
ag3
(g7
S'\x92\xb2:@'
p769
tp770
Rp771
ag3
(g7
S'\xc5\x85;@'
p772
tp773
Rp774
ag3
(g7
S'\x9f\x19<@'
p775
tp776
Rp777
ag3
(g7
S'\xda\xaa=@'
p778
tp779
Rp780
ag3
(g7
S'Z\t@@'
p781
tp782
Rp783
ag3
(g7
S'\xd8$@@'
p784
tp785
Rp786
ag3
(g7
S'#l@@'
p787
tp788
Rp789
ag3
(g7
S'G\x1eB@'
p790
tp791
Rp792
ag3
(g7
S'-\xd3C@'
p793
tp794
Rp795
ag3
(g7
S'\xa2\xe7E@'
p796
tp797
Rp798
ag3
(g7
S'I\x0bH@'
p799
tp800
Rp801
ag3
(g7
S'iMH@'
p802
tp803
Rp804
ag3
(g7
S'\x9b\x13M@'
p805
tp806
Rp807
ag3
(g7
S'\x9f\x94M@'
p808
tp809
Rp810
ag3
(g7
S';\xefM@'
p811
tp812
Rp813
ag3
(g7
S'\xc6\xd3N@'
p814
tp815
Rp816
ag3
(g7
S'\xea\xe4N@'
p817
tp818
Rp819
ag3
(g7
S'\x8e*P@'
p820
tp821
Rp822
ag3
(g7
S'\xbf_R@'
p823
tp824
Rp825
ag3
(g7
S'\xcc\xc3R@'
p826
tp827
Rp828
ag3
(g7
S'd9S@'
p829
tp830
Rp831
ag3
(g7
S'^\x80S@'
p832
tp833
Rp834
ag3
(g7
S'\xcfqU@'
p835
tp836
Rp837
ag3
(g7
S'\xa9pV@'
p838
tp839
Rp840
ag3
(g7
S'M\xc6X@'
p841
tp842
Rp843
ag3
(g7
S'\xc6\r]@'
p844
tp845
Rp846
ag3
(g7
S'\xa3*]@'
p847
tp848
Rp849
ag3
(g7
S'c8]@'
p850
tp851
Rp852
ag3
(g7
S'tL`@'
p853
tp854
Rp855
ag3
(g7
S'Tuc@'
p856
tp857
Rp858
ag3
(g7
S'\xd1\x1ee@'
p859
tp860
Rp861
ag3
(g7
S'/\x89e@'
p862
tp863
Rp864
ag3
(g7
S'\xa9\xf3e@'
p865
tp866
Rp867
ag3
(g7
S'\x15vf@'
p868
tp869
Rp870
ag3
(g7
S'\xf8\x06i@'
p871
tp872
Rp873
ag3
(g7
S'i\x85k@'
p874
tp875
Rp876
ag3
(g7
S'\xe0\xees@'
p877
tp878
Rp879
ag3
(g7
S']\xd0t@'
p880
tp881
Rp882
ag3
(g7
S'\x01l|@'
p883
tp884
Rp885
ag3
(g7
S'K,\x80@'
p886
tp887
Rp888
ag3
(g7
S'\x05\x8b\x80@'
p889
tp890
Rp891
ag3
(g7
S'm\xc4\x82@'
p892
tp893
Rp894
ag3
(g7
S'\xd0z\x83@'
p895
tp896
Rp897
ag3
(g7
S'\x8d\xb0\x83@'
p898
tp899
Rp900
ag3
(g7
S's\x00\x84@'
p901
tp902
Rp903
ag3
(g7
S'\xe7\xf9\x84@'
p904
tp905
Rp906
ag3
(g7
S'\xce\xe5\x85@'
p907
tp908
Rp909
ag3
(g7
S'\xb2-\x86@'
p910
tp911
Rp912
ag3
(g7
S'\xfd\x94\x86@'
p913
tp914
Rp915
ag3
(g7
S'?h\x87@'
p916
tp917
Rp918
ag3
(g7
S'\xfb\n\x89@'
p919
tp920
Rp921
ag3
(g7
S'\xdaH\x8a@'
p922
tp923
Rp924
ag3
(g7
S'u\xe3\x8b@'
p925
tp926
Rp927
ag3
(g7
S'n\xe6\x8b@'
p928
tp929
Rp930
ag3
(g7
S'c\xf5\x8b@'
p931
tp932
Rp933
ag3
(g7
S'n\x0f\x8c@'
p934
tp935
Rp936
ag3
(g7
S'\xbbd\x8f@'
p937
tp938
Rp939
ag3
(g7
S'\x91\x86\x92@'
p940
tp941
Rp942
ag3
(g7
S'\xb0\xe1\x92@'
p943
tp944
Rp945
ag3
(g7
S'|\xe8\x94@'
p946
tp947
Rp948
ag3
(g7
S'BY\x95@'
p949
tp950
Rp951
ag3
(g7
S'\xf17\x97@'
p952
tp953
Rp954
ag3
(g7
S'_\xfb\x97@'
p955
tp956
Rp957
ag3
(g7
S'b+\x9a@'
p958
tp959
Rp960
ag3
(g7
S'c\x87\x9a@'
p961
tp962
Rp963
ag3
(g7
S'\xcc\xce\x9a@'
p964
tp965
Rp966
ag3
(g7
S'\x87\xe7\x9c@'
p967
tp968
Rp969
ag3
(g7
S'\x85\x19\xa0@'
p970
tp971
Rp972
ag3
(g7
S'10\xa3@'
p973
tp974
Rp975
ag3
(g7
S'\x1eb\xaa@'
p976
tp977
Rp978
ag3
(g7
S'\xfeq\xab@'
p979
tp980
Rp981
ag3
(g7
S'r\xc5\xad@'
p982
tp983
Rp984
ag3
(g7
S'\x14\xcb\xae@'
p985
tp986
Rp987
ag3
(g7
S'\nl\xaf@'
p988
tp989
Rp990
ag3
(g7
S'\xc4\x9d\xaf@'
p991
tp992
Rp993
ag3
(g7
S'iI\xb0@'
p994
tp995
Rp996
ag3
(g7
S'\xf9\x92\xb0@'
p997
tp998
Rp999
ag3
(g7
S'\xae\x1c\xb1@'
p1000
tp1001
Rp1002
ag3
(g7
S'U\x18\xb6@'
p1003
tp1004
Rp1005
ag3
(g7
S'\xf4\xb9\xb7@'
p1006
tp1007
Rp1008
ag3
(g7
S'\xaf\xec\xb7@'
p1009
tp1010
Rp1011
ag3
(g7
S'u\xbd\xb9@'
p1012
tp1013
Rp1014
ag3
(g7
S'k\x81\xba@'
p1015
tp1016
Rp1017
ag3
(g7
S'\x02\x0f\xbc@'
p1018
tp1019
Rp1020
ag3
(g7
S'>t\xbe@'
p1021
tp1022
Rp1023
ag3
(g7
S'x\x08\xc2@'
p1024
tp1025
Rp1026
ag3
(g7
S'\x1d\xa2\xca@'
p1027
tp1028
Rp1029
ag3
(g7
S'\x8b\xca\xca@'
p1030
tp1031
Rp1032
ag3
(g7
S'y\xd8\xca@'
p1033
tp1034
Rp1035
ag3
(g7
S'\xf6\x0f\xcc@'
p1036
tp1037
Rp1038
ag3
(g7
S'\xb3<\xcf@'
p1039
tp1040
Rp1041
ag3
(g7
S'\xbf\x14\xde@'
p1042
tp1043
Rp1044
ag3
(g7
S'\x06\x93\xe0@'
p1045
tp1046
Rp1047
ag3
(g7
S'n\xbd\xe2@'
p1048
tp1049
Rp1050
ag3
(g7
S'\xe4\x06\xe8@'
p1051
tp1052
Rp1053
ag3
(g7
S'\xbd`\xe9@'
p1054
tp1055
Rp1056
ag3
(g7
S'\xd4\xf2\xe9@'
p1057
tp1058
Rp1059
ag3
(g7
S'\x81\xab\xfc@'
p1060
tp1061
Rp1062
ag3
(g7
S'\xfa\x90\xfe@'
p1063
tp1064
Rp1065
ag3
(g7
S'1\xbd\x07A'
p1066
tp1067
Rp1068
ag3
(g7
S'O\xb1\x08A'
p1069
tp1070
Rp1071
ag3
(g7
S'\\\xd7\x08A'
p1072
tp1073
Rp1074
ag3
(g7
S'\xc7\xc9\x10A'
p1075
tp1076
Rp1077
asS'S000000635'
p1078
(lp1079
g3
(g7
S'\x8f\xc3\xd5@'
p1080
tp1081
Rp1082
ag3
(g7
S'\xb5\xed\xdb@'
p1083
tp1084
Rp1085
asS'S000006151'
p1086
(lp1087
g3
(g7
S'\xdd\xa6\xbb='
p1088
tp1089
Rp1090
ag3
(g7
S"\x02'\xb3@"
p1091
tp1092
Rp1093
ag3
(g7
S'\xccb\xb8@'
p1094
tp1095
Rp1096
ag3
(g7
S'\xb3\x17\xc6@'
p1097
tp1098
Rp1099
asS'S000000048'
p1100
(lp1101
g3
(g7
S'\xebK\xef?'
p1102
tp1103
Rp1104
ag3
(g7
S'\xf3>=@'
p1105
tp1106
Rp1107
ag3
(g7
S'\xec\xb9\xa3@'
p1108
tp1109
Rp1110
ag3
(g7
S'z\x9f\xbe@'
p1111
tp1112
Rp1113
ag3
(g7
S'\xd0\xeb\xef@'
p1114
tp1115
Rp1116
ag3
(g7
S'jV\x00A'
p1117
tp1118
Rp1119
ag3
(g7
S'jV\x00A'
p1120
tp1121
Rp1122
asS'S000000735'
p1123
(lp1124
g3
(g7
S'\x1cv$='
p1125
tp1126
Rp1127
ag3
(g7
S'\x92\x13\x1b?'
p1128
tp1129
Rp1130
ag3
(g7
S'&t7?'
p1131
tp1132
Rp1133
ag3
(g7
S'\xdd\x00A?'
p1134
tp1135
Rp1136
ag3
(g7
S'\xed\x03 @'
p1137
tp1138
Rp1139
ag3
(g7
S'k\xa2r@'
p1140
tp1141
Rp1142
ag3
(g7
S',\xb8\x87@'
p1143
tp1144
Rp1145
asS'S000005688'
p1146
(lp1147
g3
(g7
S'\xf4\x93\xa0>'
p1148
tp1149
Rp1150
ag3
(g7
S'\xa7;\xef>'
p1151
tp1152
Rp1153
ag3
(g7
S'\xac\x8bd?'
p1154
tp1155
Rp1156
ag3
(g7
S'\xc0\xa6\x82?'
p1157
tp1158
Rp1159
ag3
(g7
S'6\x88\xaf?'
p1160
tp1161
Rp1162
ag3
(g7
S'\x93\x12\xb2?'
p1163
tp1164
Rp1165
ag3
(g7
S'\xd2\xcf\xbc?'
p1166
tp1167
Rp1168
ag3
(g7
S'\xf5l\xd7?'
p1169
tp1170
Rp1171
ag3
(g7
S'4\x15\xee?'
p1172
tp1173
Rp1174
ag3
(g7
S'\xda8\x08@'
p1175
tp1176
Rp1177
ag3
(g7
S'\x92\x92&@'
p1178
tp1179
Rp1180
ag3
(g7
S'\xe9\xe74@'
p1181
tp1182
Rp1183
ag3
(g7
S'\xf3\x96<@'
p1184
tp1185
Rp1186
ag3
(g7
S'\x1e\xce=@'
p1187
tp1188
Rp1189
ag3
(g7
S's\xd5t@'
p1190
tp1191
Rp1192
ag3
(g7
S'\x86\xe4\x8a@'
p1193
tp1194
Rp1195
ag3
(g7
S'R\xf0\x8d@'
p1196
tp1197
Rp1198
ag3
(g7
S'\x0eL\xa2@'
p1199
tp1200
Rp1201
ag3
(g7
S'd\xf1\xa8@'
p1202
tp1203
Rp1204
ag3
(g7
S'1\x17\xab@'
p1205
tp1206
Rp1207
ag3
(g7
S'\xadU\xaf@'
p1208
tp1209
Rp1210
ag3
(g7
S'XX\xbc@'
p1211
tp1212
Rp1213
ag3
(g7
S'\x9d\x86\xc0@'
p1214
tp1215
Rp1216
ag3
(g7
S'\xf5\xa5\xdc@'
p1217
tp1218
Rp1219
ag3
(g7
S'.\xfd\xdc@'
p1220
tp1221
Rp1222
ag3
(g7
S'\x14\x87\nA'
p1223
tp1224
Rp1225
asS'S000005871'
p1226
(lp1227
g3
(g7
S'\x0b\x87\xf5?'
p1228
tp1229
Rp1230
ag3
(g7
S'\xc7\x83\xa6@'
p1231
tp1232
Rp1233
asS'S000005449'
p1234
(lp1235
g3
(g7
S'\x8b2\x15A'
p1236
tp1237
Rp1238
ag3
(g7
S'\x8b2\x15A'
p1239
tp1240
Rp1241
ag3
(g7
S'\x8b2\x15A'
p1242
tp1243
Rp1244
ag3
(g7
S'\x8b2\x15A'
p1245
tp1246
Rp1247
ag3
(g7
S'\x8b2\x15A'
p1248
tp1249
Rp1250
ag3
(g7
S'\x8b2\x15A'
p1251
tp1252
Rp1253
asS'S000000287'
p1254
(lp1255
g3
(g7
S',\t\x80?'
p1256
tp1257
Rp1258
ag3
(g7
S'\x9d\xd9d@'
p1259
tp1260
Rp1261
ag3
(g7
S'cP\xb1@'
p1262
tp1263
Rp1264
ag3
(g7
S'7\xb6\xe5@'
p1265
tp1266
Rp1267
asS'S000003977'
p1268
(lp1269
g3
(g7
S'\x9d\x94#>'
p1270
tp1271
Rp1272
ag3
(g7
S'\xd3r"@'
p1273
tp1274
Rp1275
ag3
(g7
S'\x96\x8dV@'
p1276
tp1277
Rp1278
ag3
(g7
S'\xcc\x02}@'
p1279
tp1280
Rp1281
ag3
(g7
S'i9\x91@'
p1282
tp1283
Rp1284
ag3
(g7
S'i9\x91@'
p1285
tp1286
Rp1287
ag3
(g7
S'i9\x91@'
p1288
tp1289
Rp1290
ag3
(g7
S'i9\x91@'
p1291
tp1292
Rp1293
ag3
(g7
S'\x89\xf3\xb1@'
p1294
tp1295
Rp1296
ag3
(g7
S'\xc1\x1e\xb3@'
p1297
tp1298
Rp1299
ag3
(g7
S'\xedX\xe3@'
p1300
tp1301
Rp1302
ag3
(g7
S'\x93T\xff@'
p1303
tp1304
Rp1305
ag3
(g7
S'\x99S\x10A'
p1306
tp1307
Rp1308
ag3
(g7
S'\x84\xad\x18A'
p1309
tp1310
Rp1311
asS'S000000842'
p1312
(lp1313
g3
(g7
S'\x13\xed\x9f@'
p1314
tp1315
Rp1316
ag3
(g7
S'\x13\xed\x9f@'
p1317
tp1318
Rp1319
ag3
(g7
S'\x13\xed\x9f@'
p1320
tp1321
Rp1322
ag3
(g7
S'\x1a]\xc5@'
p1323
tp1324
Rp1325
ag3
(g7
S'\x1a]\xc5@'
p1326
tp1327
Rp1328
ag3
(g7
S'\xea6\xd0@'
p1329
tp1330
Rp1331
ag3
(g7
S'\xea6\xd0@'
p1332
tp1333
Rp1334
ag3
(g7
S'\xaa\xfd\xea@'
p1335
tp1336
Rp1337
ag3
(g7
S'\xaa\xfd\xea@'
p1338
tp1339
Rp1340
ag3
(g7
S'\xf1\xa6\xf5@'
p1341
tp1342
Rp1343
ag3
(g7
S'\xc0\xa3\rA'
p1344
tp1345
Rp1346
ag3
(g7
S'\xc0\xa3\rA'
p1347
tp1348
Rp1349
ag3
(g7
S'\xc0\xa3\rA'
p1350
tp1351
Rp1352
ag3
(g7
S'\xc0\xa3\rA'
p1353
tp1354
Rp1355
asS'S000004972'
p1356
(lp1357
g3
(g7
S'\xa6\xb9\xaf?'
p1358
tp1359
Rp1360
ag3
(g7
S'\xe2?\xd3?'
p1361
tp1362
Rp1363
ag3
(g7
S'\xc6\xfc\x0c@'
p1364
tp1365
Rp1366
ag3
(g7
S'=\xf45@'
p1367
tp1368
Rp1369
ag3
(g7
S'g\x1c;@'
p1370
tp1371
Rp1372
ag3
(g7
S'\x06QA@'
p1373
tp1374
Rp1375
ag3
(g7
S'\xcd\xcb\x88@'
p1376
tp1377
Rp1378
ag3
(g7
S'\n\xea\xfb@'
p1379
tp1380
Rp1381
ag3
(g7
S'\x18\n\x01A'
p1382
tp1383
Rp1384
ag3
(g7
S'2\xf7\x0fA'
p1385
tp1386
Rp1387
asS'S000001048'
p1388
(lp1389
g3
(g7
S'\x9doq='
p1390
tp1391
Rp1392
ag3
(g7
S'\xc1\x1d\x1c?'
p1393
tp1394
Rp1395
ag3
(g7
S'c\x0e\x8d?'
p1396
tp1397
Rp1398
ag3
(g7
S'\x1b\xe5+@'
p1399
tp1400
Rp1401
ag3
(g7
S'\xabA}@'
p1402
tp1403
Rp1404
asS'S000004674'
p1405
(lp1406
g3
(g7
S'\xfe\xa3\x16A'
p1407
tp1408
Rp1409
ag3
(g7
S'\xfe\xa3\x16A'
p1410
tp1411
Rp1412
ag3
(g7
S'\xfe\xa3\x16A'
p1413
tp1414
Rp1415
asS'S000001166'
p1416
(lp1417
g3
(g7
S'U\xcbT>'
p1418
tp1419
Rp1420
ag3
(g7
S'\xba\x17\xd1>'
p1421
tp1422
Rp1423
ag3
(g7
S'D&\x19?'
p1424
tp1425
Rp1426
ag3
(g7
S'\xea\x9d\x1e?'
p1427
tp1428
Rp1429
ag3
(g7
S'nmN?'
p1430
tp1431
Rp1432
ag3
(g7
S':]^?'
p1433
tp1434
Rp1435
ag3
(g7
S'\x1e\xe3p?'
p1436
tp1437
Rp1438
ag3
(g7
S'h\xe7~?'
p1439
tp1440
Rp1441
ag3
(g7
S'\xe8(\xd8?'
p1442
tp1443
Rp1444
ag3
(g7
S'\xdc\xf7\x03@'
p1445
tp1446
Rp1447
ag3
(g7
S'"\xdf\x06@'
p1448
tp1449
Rp1450
ag3
(g7
S'\xbeev@'
p1451
tp1452
Rp1453
ag3
(g7
S'\x0f+\xc5@'
p1454
tp1455
Rp1456
ag3
(g7
S'\x90\xd3\xcc@'
p1457
tp1458
Rp1459
ag3
(g7
S'\xc9\xd8\xdd@'
p1460
tp1461
Rp1462
ag3
(g7
S'\xa32gA'
p1463
tp1464
Rp1465
asS'S000004676'
p1466
(lp1467
g3
(g7
S'\x166\x19@'
p1468
tp1469
Rp1470
ag3
(g7
S'\x166\x19@'
p1471
tp1472
Rp1473
ag3
(g7
S'\x166\x19@'
p1474
tp1475
Rp1476
ag3
(g7
S'\x166\x19@'
p1477
tp1478
Rp1479
ag3
(g7
S'\x166\x19@'
p1480
tp1481
Rp1482
ag3
(g7
S'\x166\x19@'
p1483
tp1484
Rp1485
ag3
(g7
S'\xf9\x8a7@'
p1486
tp1487
Rp1488
ag3
(g7
S'\x11\x9a`@'
p1489
tp1490
Rp1491
ag3
(g7
S'Ax\xb1@'
p1492
tp1493
Rp1494
ag3
(g7
S'\xa5D\x11A'
p1495
tp1496
Rp1497
asS'S000005160'
p1498
(lp1499
g3
(g7
S'\xf5\xdf\xe8>'
p1500
tp1501
Rp1502
ag3
(g7
S'\x00p\n?'
p1503
tp1504
Rp1505
ag3
(g7
S'\x87\xa0\\?'
p1506
tp1507
Rp1508
ag3
(g7
S'8\xb6\xb2?'
p1509
tp1510
Rp1511
ag3
(g7
S'\xb2\x1b\xe0?'
p1512
tp1513
Rp1514
ag3
(g7
S'\x07"\xe6?'
p1515
tp1516
Rp1517
ag3
(g7
S'\xb6\x10\xfb?'
p1518
tp1519
Rp1520
ag3
(g7
S'e\x02\t@'
p1521
tp1522
Rp1523
ag3
(g7
S'\xd1\x13\x0f@'
p1524
tp1525
Rp1526
ag3
(g7
S'lmS@'
p1527
tp1528
Rp1529
ag3
(g7
S'\xb3\x06\xac@'
p1530
tp1531
Rp1532
ag3
(g7
S'\xe0f\xb4@'
p1533
tp1534
Rp1535
ag3
(g7
S'\x9a_\xbc@'
p1536
tp1537
Rp1538
ag3
(g7
S'>\xb1\xe9@'
p1539
tp1540
Rp1541
asS'S000002530'
p1542
(lp1543
g3
(g7
S'\x97\xa0\n?'
p1544
tp1545
Rp1546
ag3
(g7
S'\xe2\x86g?'
p1547
tp1548
Rp1549
ag3
(g7
S'D\x13\x83@'
p1550
tp1551
Rp1552
asS'S000003039'
p1553
(lp1554
g3
(g7
S'\xdd\xa8_='
p1555
tp1556
Rp1557
ag3
(g7
S'r\xed\xc6>'
p1558
tp1559
Rp1560
ag3
(g7
S'\x07\x87\xe5>'
p1561
tp1562
Rp1563
ag3
(g7
S'\x7f"-?'
p1564
tp1565
Rp1566
ag3
(g7
S'\x9f=S?'
p1567
tp1568
Rp1569
ag3
(g7
S'\xafW\x80?'
p1570
tp1571
Rp1572
ag3
(g7
S'\x9fw\xc6?'
p1573
tp1574
Rp1575
ag3
(g7
S'|\xd9\x19@'
p1576
tp1577
Rp1578
ag3
(g7
S'\t|"@'
p1579
tp1580
Rp1581
ag3
(g7
S'\x91\x1bb@'
p1582
tp1583
Rp1584
ag3
(g7
S'\xf6#p@'
p1585
tp1586
Rp1587
ag3
(g7
S'|\x15\x9d@'
p1588
tp1589
Rp1590
ag3
(g7
S'Q\xa2\x9f@'
p1591
tp1592
Rp1593
ag3
(g7
S'u\xc1\xa8@'
p1594
tp1595
Rp1596
ag3
(g7
S'\x82O\xbb@'
p1597
tp1598
Rp1599
ag3
(g7
S'!\xc9\xc2@'
p1600
tp1601
Rp1602
ag3
(g7
S'\xb3\xee\xfa@'
p1603
tp1604
Rp1605
ag3
(g7
S'\xa7\x7f\x1aA'
p1606
tp1607
Rp1608
ag3
(g7
S'\x94:WA'
p1609
tp1610
Rp1611
asS'S000001452'
p1612
(lp1613
g3
(g7
S'\xecL\x14='
p1614
tp1615
Rp1616
ag3
(g7
S'\x91b\x9d='
p1617
tp1618
Rp1619
ag3
(g7
S'`r&?'
p1620
tp1621
Rp1622
ag3
(g7
S'[/H?'
p1623
tp1624
Rp1625
ag3
(g7
S'\xf7;\x8c?'
p1626
tp1627
Rp1628
ag3
(g7
S'\x85\xfc\xc0?'
p1629
tp1630
Rp1631
ag3
(g7
S'\x17\xf5z@'
p1632
tp1633
Rp1634
ag3
(g7
S'\x8f\x1c\x84@'
p1635
tp1636
Rp1637
ag3
(g7
S'&\xa4\x8e@'
p1638
tp1639
Rp1640
ag3
(g7
S'\xd4B\x91@'
p1641
tp1642
Rp1643
ag3
(g7
S'\xb1\xc2\x99@'
p1644
tp1645
Rp1646
ag3
(g7
S'\xdb\x86\xbc@'
p1647
tp1648
Rp1649
ag3
(g7
S'B\xd9\xe8@'
p1650
tp1651
Rp1652
ag3
(g7
S'\xccR\x1eA'
p1653
tp1654
Rp1655
ag3
(g7
S'e\xa81A'
p1656
tp1657
Rp1658
asS'S000001457'
p1659
(lp1660
g3
(g7
S'\xc9\xea9?'
p1661
tp1662
Rp1663
ag3
(g7
S'\x88\x97\xb1?'
p1664
tp1665
Rp1666
ag3
(g7
S'Q8\xd7?'
p1667
tp1668
Rp1669
ag3
(g7
S'Q8\xd7?'
p1670
tp1671
Rp1672
ag3
(g7
S'Q8\xd7?'
p1673
tp1674
Rp1675
ag3
(g7
S':\xed\x15@'
p1676
tp1677
Rp1678
ag3
(g7
S'\xe8r$@'
p1679
tp1680
Rp1681
ag3
(g7
S'\xe8r$@'
p1682
tp1683
Rp1684
ag3
(g7
S'\xfa\xc3N@'
p1685
tp1686
Rp1687
ag3
(g7
S'\xcf\xe2d@'
p1688
tp1689
Rp1690
ag3
(g7
S'\xcf\xe2d@'
p1691
tp1692
Rp1693
ag3
(g7
S'\xf1\x99\x87@'
p1694
tp1695
Rp1696
ag3
(g7
S'\xf1\x99\x87@'
p1697
tp1698
Rp1699
ag3
(g7
S'\xb1\x99\x8e@'
p1700
tp1701
Rp1702
ag3
(g7
S'\xb1\x99\x8e@'
p1703
tp1704
Rp1705
ag3
(g7
S'#\x02\x91@'
p1706
tp1707
Rp1708
ag3
(g7
S'\x10\x05\xab@'
p1709
tp1710
Rp1711
ag3
(g7
S'\x82m\xad@'
p1712
tp1713
Rp1714
ag3
(g7
S'\x0b\x96\xc2@'
p1715
tp1716
Rp1717
ag3
(g7
S'\x0b\x96\xc2@'
p1718
tp1719
Rp1720
ag3
(g7
S'\xcc\x95\xc9@'
p1721
tp1722
Rp1723
ag3
(g7
S'\xa2\xd8\xd0@'
p1724
tp1725
Rp1726
ag3
(g7
S'\xa2\xd8\xd0@'
p1727
tp1728
Rp1729
ag3
(g7
S'+\x01\xe6@'
p1730
tp1731
Rp1732
ag3
(g7
S'\x8f\x1c\x03A'
p1733
tp1734
Rp1735
ag3
(g7
S'X\x06\x16A'
p1736
tp1737
Rp1738
ag3
(g7
S'X\x06\x16A'
p1739
tp1740
Rp1741
ag3
(g7
S'\x9d\x9a A'
p1742
tp1743
Rp1744
ag3
(g7
S'\x9d\x9a A'
p1745
tp1746
Rp1747
asS'S000002871'
p1748
(lp1749
g3
(g7
S'v\x8d\xad@'
p1750
tp1751
Rp1752
asS'S000003130'
p1753
(lp1754
g3
(g7
S"o#'="
p1755
tp1756
Rp1757
ag3
(g7
S'\xdc\x99b='
p1758
tp1759
Rp1760
ag3
(g7
S'\xfe\xcfd>'
p1761
tp1762
Rp1763
ag3
(g7
S'\xfe\xcfd>'
p1764
tp1765
Rp1766
ag3
(g7
S'\xb44\xc2>'
p1767
tp1768
Rp1769
ag3
(g7
S'\xb0\x12\xfe>'
p1770
tp1771
Rp1772
ag3
(g7
S'\xeex5?'
p1773
tp1774
Rp1775
ag3
(g7
S'\x98\xdf[?'
p1776
tp1777
Rp1778
ag3
(g7
S'1\xd5\x82?'
p1779
tp1780
Rp1781
ag3
(g7
S'C\x12\xac?'
p1782
tp1783
Rp1784
ag3
(g7
S'$\xd1\xbf?'
p1785
tp1786
Rp1787
ag3
(g7
S'\xd3\xd7\xfe?'
p1788
tp1789
Rp1790
ag3
(g7
S'sc\x15@'
p1791
tp1792
Rp1793
ag3
(g7
S'\xe0I\x1e@'
p1794
tp1795
Rp1796
ag3
(g7
S'\xe0I\x1e@'
p1797
tp1798
Rp1799
ag3
(g7
S'2\x8f(@'
p1800
tp1801
Rp1802
ag3
(g7
S'5\xedQ@'
p1803
tp1804
Rp1805
ag3
(g7
S'\xf6_T@'
p1806
tp1807
Rp1808
ag3
(g7
S'f?^@'
p1809
tp1810
Rp1811
ag3
(g7
S'\x9c\xd8\x8d@'
p1812
tp1813
Rp1814
ag3
(g7
S'\xdfY\x8e@'
p1815
tp1816
Rp1817
ag3
(g7
S'P"\x94@'
p1818
tp1819
Rp1820
ag3
(g7
S'}t\xb2@'
p1821
tp1822
Rp1823
ag3
(g7
S'!\x86\xb3@'
p1824
tp1825
Rp1826
ag3
(g7
S'D*\xdc@'
p1827
tp1828
Rp1829
asS'S000000237'
p1830
(lp1831
g3
(g7
S'\xbf\xf5\x8a@'
p1832
tp1833
Rp1834
ag3
(g7
S';\x15\xe8@'
p1835
tp1836
Rp1837
ag3
(g7
S'\xd0f\xf6@'
p1838
tp1839
Rp1840
ag3
(g7
S'\x97\xac\nA'
p1841
tp1842
Rp1843
ag3
(g7
S'h3+A'
p1844
tp1845
Rp1846
ag3
(g7
S'\xcd\xc4HA'
p1847
tp1848
Rp1849
ag3
(g7
S'z!PA'
p1850
tp1851
Rp1852
ag3
(g7
S'z!PA'
p1853
tp1854
Rp1855
ag3
(g7
S'z!PA'
p1856
tp1857
Rp1858
ag3
(g7
S'\xe1\x0egA'
p1859
tp1860
Rp1861
asS'S000006123'
p1862
(lp1863
g3
(g7
S')\xac)A'
p1864
tp1865
Rp1866
ag3
(g7
S'\xc7\xd2.A'
p1867
tp1868
Rp1869
asS'S000001503'
p1870
(lp1871
g3
(g7
S'\xfe\x1a\xce;'
p1872
tp1873
Rp1874
ag3
(g7
S'l\x13\x18?'
p1875
tp1876
Rp1877
ag3
(g7
S'R\xb5/?'
p1878
tp1879
Rp1880
ag3
(g7
S'\x12Yl?'
p1881
tp1882
Rp1883
ag3
(g7
S',\xbfv?'
p1884
tp1885
Rp1886
ag3
(g7
S'\xc1A\xbd?'
p1887
tp1888
Rp1889
ag3
(g7
S'\x1e\xd1\xc0?'
p1890
tp1891
Rp1892
ag3
(g7
S'D\xc9\xc7?'
p1893
tp1894
Rp1895
ag3
(g7
S'\xb6\t\xcc?'
p1896
tp1897
Rp1898
ag3
(g7
S'9\x91\xd6?'
p1899
tp1900
Rp1901
ag3
(g7
S'\xca\x14\x00@'
p1902
tp1903
Rp1904
ag3
(g7
S'R\xf6\x05@'
p1905
tp1906
Rp1907
ag3
(g7
S'R\xf6\x05@'
p1908
tp1909
Rp1910
ag3
(g7
S'\x19s\x1e@'
p1911
tp1912
Rp1913
ag3
(g7
S'\xf4\xe3/@'
p1914
tp1915
Rp1916
ag3
(g7
S'\xd4\x94@@'
p1917
tp1918
Rp1919
ag3
(g7
S'u\x7fh@'
p1920
tp1921
Rp1922
ag3
(g7
S'\xdf\xffm@'
p1923
tp1924
Rp1925
ag3
(g7
S'\xa0:\x80@'
p1926
tp1927
Rp1928
ag3
(g7
S'\x06f\x81@'
p1929
tp1930
Rp1931
ag3
(g7
S'Q\\\x88@'
p1932
tp1933
Rp1934
ag3
(g7
S'h\xc2\x92@'
p1935
tp1936
Rp1937
ag3
(g7
S'\x1a\xfd\x9b@'
p1938
tp1939
Rp1940
ag3
(g7
S'\xd3\xae\xb1@'
p1941
tp1942
Rp1943
ag3
(g7
S'\xb0\xbf\xc2@'
p1944
tp1945
Rp1946
ag3
(g7
S'\xf3\xb7\xc9@'
p1947
tp1948
Rp1949
ag3
(g7
S'eW\xcc@'
p1950
tp1951
Rp1952
ag3
(g7
S'R\xae\x04A'
p1953
tp1954
Rp1955
ag3
(g7
S'u?\tA'
p1956
tp1957
Rp1958
ag3
(g7
S'\x06k\x13A'
p1959
tp1960
Rp1961
ag3
(g7
S'\x8d3\x19A'
p1962
tp1963
Rp1964
ag3
(g7
S'\x9b\xba,A'
p1965
tp1966
Rp1967
ag3
(g7
S'\x08\xc7,A'
p1968
tp1969
Rp1970
asS'S000002329'
p1971
(lp1972
g3
(g7
S'z\xcb\x04A'
p1973
tp1974
Rp1975
asS'S000000703'
p1976
(lp1977
g3
(g7
S'W\x04\x9a?'
p1978
tp1979
Rp1980
ag3
(g7
S'W\x04\x9a?'
p1981
tp1982
Rp1983
ag3
(g7
S"'E\x01@"
p1984
tp1985
Rp1986
ag3
(g7
S' \xd5\x1b@'
p1987
tp1988
Rp1989
ag3
(g7
S' \xd5\x1b@'
p1990
tp1991
Rp1992
ag3
(g7
S'\x834)@'
p1993
tp1994
Rp1995
ag3
(g7
S'h\xf3\x88@'
p1996
tp1997
Rp1998
ag3
(g7
S'mx\x9a@'
p1999
tp2000
Rp2001
ag3
(g7
S'5K\xa5@'
p2002
tp2003
Rp2004
ag3
(g7
S'\xaa/\xbb@'
p2005
tp2006
Rp2007
ag3
(g7
S'\xf4x\xe9@'
p2008
tp2009
Rp2010
asS'S000004268'
p2011
(lp2012
g3
(g7
S'j\xa5\xbb?'
p2013
tp2014
Rp2015
ag3
(g7
S'\xcd\x8a\xf6?'
p2016
tp2017
Rp2018
ag3
(g7
S'BQN@'
p2019
tp2020
Rp2021
ag3
(g7
S'\x81}\x8b@'
p2022
tp2023
Rp2024
ag3
(g7
S'G\x9c\xb3@'
p2025
tp2026
Rp2027
ag3
(g7
S'G\x9c\xb3@'
p2028
tp2029
Rp2030
ag3
(g7
S'^\xa1\xc1@'
p2031
tp2032
Rp2033
asS'S000005698'
p2034
(lp2035
g3
(g7
S'\xd3\x80G?'
p2036
tp2037
Rp2038
ag3
(g7
S'\xb7\xd1\xcd?'
p2039
tp2040
Rp2041
ag3
(g7
S'\xb7\xd1\xcd?'
p2042
tp2043
Rp2044
ag3
(g7
S'\xb7\xd1\xcd?'
p2045
tp2046
Rp2047
ag3
(g7
S'p\x04\xe2?'
p2048
tp2049
Rp2050
ag3
(g7
S'\xdf\x8d\x08@'
p2051
tp2052
Rp2053
ag3
(g7
S'\xc1^\x0b@'
p2054
tp2055
Rp2056
ag3
(g7
S'd\x8cy@'
p2057
tp2058
Rp2059
ag3
(g7
S'T\x83{@'
p2060
tp2061
Rp2062
ag3
(g7
S'5~\xaf@'
p2063
tp2064
Rp2065
ag3
(g7
S'5~\xaf@'
p2066
tp2067
Rp2068
ag3
(g7
S'5~\xaf@'
p2069
tp2070
Rp2071
ag3
(g7
S'\xf8\xaf\xc7@'
p2072
tp2073
Rp2074
ag3
(g7
S'\x9cZ\x02A'
p2075
tp2076
Rp2077
ag3
(g7
S'\x9cZ\x02A'
p2078
tp2079
Rp2080
ag3
(g7
S'G6\rA'
p2081
tp2082
Rp2083
ag3
(g7
S'G6\rA'
p2084
tp2085
Rp2086
ag3
(g7
S'\x12_\x14A'
p2087
tp2088
Rp2089
ag3
(g7
S"\xb2B'A"
p2090
tp2091
Rp2092
ag3
(g7
S'\xb3\x9e0A'
p2093
tp2094
Rp2095
asS'S000003888'
p2096
(lp2097
g3
(g7
S'\xe8 \xb0?'
p2098
tp2099
Rp2100
ag3
(g7
S't\x10\x18@'
p2101
tp2102
Rp2103
ag3
(g7
S'y\x8c\x8b@'
p2104
tp2105
Rp2106
ag3
(g7
S'\xbb\x0b\xc4@'
p2107
tp2108
Rp2109
ag3
(g7
S'\x1f\x88\xc7@'
p2110
tp2111
Rp2112
ag3
(g7
S'\xd8\xe0\xf3@'
p2113
tp2114
Rp2115
ag3
(g7
S'\x0f?\xf6@'
p2116
tp2117
Rp2118
ag3
(g7
S'\xfb\x90\x0cA'
p2119
tp2120
Rp2121
asS'S000001298'
p2122
(lp2123
g3
(g7
S'\xce\xe4H@'
p2124
tp2125
Rp2126
ag3
(g7
S'0\xe6\x8a@'
p2127
tp2128
Rp2129
asS'S000006098'
p2130
(lp2131
g3
(g7
S'\x8c\x00\xea='
p2132
tp2133
Rp2134
ag3
(g7
S'\xd6\xe9\x81?'
p2135
tp2136
Rp2137
ag3
(g7
S'[\xec\x8a?'
p2138
tp2139
Rp2140
ag3
(g7
S'\x91\x9f\x95?'
p2141
tp2142
Rp2143
ag3
(g7
S'\x00z\xc3?'
p2144
tp2145
Rp2146
ag3
(g7
S'\xd0\x8c\xfd?'
p2147
tp2148
Rp2149
ag3
(g7
S'\xb9\xc00@'
p2150
tp2151
Rp2152
ag3
(g7
S'\x98\xcb?@'
p2153
tp2154
Rp2155
ag3
(g7
S'uk\x7f@'
p2156
tp2157
Rp2158
asS'S000000932'
p2159
(lp2160
g3
(g7
S'#j\xdb>'
p2161
tp2162
Rp2163
ag3
(g7
S'\xef\x89\xc4?'
p2164
tp2165
Rp2166
ag3
(g7
S'\x7f\x8f\x16@'
p2167
tp2168
Rp2169
ag3
(g7
S'\x7f\x8f\x16@'
p2170
tp2171
Rp2172
ag3
(g7
S'\xcc\xa2\x16@'
p2173
tp2174
Rp2175
ag3
(g7
S'-3>@'
p2176
tp2177
Rp2178
ag3
(g7
S'd\xd3X@'
p2179
tp2180
Rp2181
ag3
(g7
S'\xd3\x1c\xd3@'
p2182
tp2183
Rp2184
ag3
(g7
S'\x1a\x82\xf9@'
p2185
tp2186
Rp2187
asS'S000001742'
p2188
(lp2189
g3
(g7
S'\n\xdd\x90@'
p2190
tp2191
Rp2192
ag3
(g7
S'\xb6Z\xb3@'
p2193
tp2194
Rp2195
ag3
(g7
S'\xb6Z\xb3@'
p2196
tp2197
Rp2198
ag3
(g7
S'\xb6Z\xb3@'
p2199
tp2200
Rp2201
ag3
(g7
S'\xc5\r\xd2@'
p2202
tp2203
Rp2204
ag3
(g7
S'9b\x03A'
p2205
tp2206
Rp2207
asS'S000003206'
p2208
(lp2209
g3
(g7
S'{\xda4?'
p2210
tp2211
Rp2212
ag3
(g7
S'\x92f\x8c?'
p2213
tp2214
Rp2215
ag3
(g7
S'\x92f\x8c?'
p2216
tp2217
Rp2218
ag3
(g7
S'$\xbb\xa4?'
p2219
tp2220
Rp2221
ag3
(g7
S'$\xbb\xa4?'
p2222
tp2223
Rp2224
ag3
(g7
S'$\xbb\xa4?'
p2225
tp2226
Rp2227
ag3
(g7
S'$\xbb\xa4?'
p2228
tp2229
Rp2230
ag3
(g7
S')\xfb\xfb?'
p2231
tp2232
Rp2233
ag3
(g7
S'\xc2P\x9e@'
p2234
tp2235
Rp2236
ag3
(g7
S'w\x01\xea@'
p2237
tp2238
Rp2239
ag3
(g7
S'w\x01\xea@'
p2240
tp2241
Rp2242
ag3
(g7
S'w\x01\xea@'
p2243
tp2244
Rp2245
ag3
(g7
S'y2\tA'
p2246
tp2247
Rp2248
ag3
(g7
S'\x0b=\x0cA'
p2249
tp2250
Rp2251
ag3
(g7
S'\x0b=\x0cA'
p2252
tp2253
Rp2254
asS'S000002503'
p2255
(lp2256
g3
(g7
S'\xac\xd8\x10?'
p2257
tp2258
Rp2259
ag3
(g7
S'\x8d\xcd|?'
p2260
tp2261
Rp2262
ag3
(g7
S'\xeb\x1b\xd3?'
p2263
tp2264
Rp2265
ag3
(g7
S'\x05Y\x00@'
p2266
tp2267
Rp2268
ag3
(g7
S'\xcb\x8a&@'
p2269
tp2270
Rp2271
ag3
(g7
S'w\x83/@'
p2272
tp2273
Rp2274
ag3
(g7
S'5\x043@'
p2275
tp2276
Rp2277
ag3
(g7
S'\xfflD@'
p2278
tp2279
Rp2280
ag3
(g7
S'c\xe2X@'
p2281
tp2282
Rp2283
ag3
(g7
S'k\x06\x84@'
p2284
tp2285
Rp2286
ag3
(g7
S'\xf2\xca\x8b@'
p2287
tp2288
Rp2289
ag3
(g7
S'\xef\x1b\xa8@'
p2290
tp2291
Rp2292
ag3
(g7
S'\x070\xc3@'
p2293
tp2294
Rp2295
ag3
(g7
S'h^\xd0@'
p2296
tp2297
Rp2298
ag3
(g7
S'm\x9e\xe5@'
p2299
tp2300
Rp2301
ag3
(g7
S'\xdd\xd5\x02A'
p2302
tp2303
Rp2304
ag3
(g7
S'\x87w\x0cA'
p2305
tp2306
Rp2307
asS'S000003041'
p2308
(lp2309
g3
(g7
S'\xe1^+>'
p2310
tp2311
Rp2312
ag3
(g7
S'\xcc\x04\xf9>'
p2313
tp2314
Rp2315
ag3
(g7
S'\x96z\\?'
p2316
tp2317
Rp2318
ag3
(g7
S'\x96z\\?'
p2319
tp2320
Rp2321
ag3
(g7
S'\x8eRj?'
p2322
tp2323
Rp2324
ag3
(g7
S'H\xa1\x9d?'
p2325
tp2326
Rp2327
ag3
(g7
S'@\x05\xfd?'
p2328
tp2329
Rp2330
ag3
(g7
S'\xfd\x97\x10@'
p2331
tp2332
Rp2333
ag3
(g7
S'\xa1\xbe\x12@'
p2334
tp2335
Rp2336
ag3
(g7
S'\xa1\xbe\x12@'
p2337
tp2338
Rp2339
ag3
(g7
S'\xa7\xc98@'
p2340
tp2341
Rp2342
ag3
(g7
S'\xa7\xc98@'
p2343
tp2344
Rp2345
ag3
(g7
S'?\xdcF@'
p2346
tp2347
Rp2348
ag3
(g7
S'?\xdcF@'
p2349
tp2350
Rp2351
ag3
(g7
S'\xb3\xb2T@'
p2352
tp2353
Rp2354
ag3
(g7
S'\x02\x06{@'
p2355
tp2356
Rp2357
ag3
(g7
S'\xa6,}@'
p2358
tp2359
Rp2360
ag3
(g7
S'\x0cB}@'
p2361
tp2362
Rp2363
ag3
(g7
S')h\x84@'
p2364
tp2365
Rp2366
ag3
(g7
S'XP\x8c@'
p2367
tp2368
Rp2369
ag3
(g7
S'XP\x8c@'
p2370
tp2371
Rp2372
ag3
(g7
S'XP\x8c@'
p2373
tp2374
Rp2375
ag3
(g7
S'XP\x8c@'
p2376
tp2377
Rp2378
ag3
(g7
S'\xd6\x9b\x91@'
p2379
tp2380
Rp2381
ag3
(g7
S'\xd6\x9b\x91@'
p2382
tp2383
Rp2384
ag3
(g7
S'\x08\xd8\xb3@'
p2385
tp2386
Rp2387
ag3
(g7
S'\x99\x0b\xe1@'
p2388
tp2389
Rp2390
ag3
(g7
S'\xf2W\x14A'
p2391
tp2392
Rp2393
ag3
(g7
S'\x0c\xec!A'
p2394
tp2395
Rp2396
asS'S000006400'
p2397
(lp2398
g3
(g7
S'd\xfa\xff;'
p2399
tp2400
Rp2401
ag3
(g7
S'\xfb\xda\x02>'
p2402
tp2403
Rp2404
ag3
(g7
S'\xd6/2>'
p2405
tp2406
Rp2407
ag3
(g7
S'\xd9\r\x0e?'
p2408
tp2409
Rp2410
ag3
(g7
S'}\x8a\x12?'
p2411
tp2412
Rp2413
ag3
(g7
S'5\xa05?'
p2414
tp2415
Rp2416
ag3
(g7
S'Q\xb2D?'
p2417
tp2418
Rp2419
ag3
(g7
S'\xfe\xaaF?'
p2420
tp2421
Rp2422
ag3
(g7
S'\xb0\xb6N?'
p2423
tp2424
Rp2425
ag3
(g7
S'cH\x93?'
p2426
tp2427
Rp2428
ag3
(g7
S'GW\x9f?'
p2429
tp2430
Rp2431
ag3
(g7
S'\xcfB\xa3?'
p2432
tp2433
Rp2434
ag3
(g7
S'\xf1\xbd\xa3?'
p2435
tp2436
Rp2437
ag3
(g7
S'81\xfd?'
p2438
tp2439
Rp2440
ag3
(g7
S'\xceW\x02@'
p2441
tp2442
Rp2443
ag3
(g7
S'`5\x04@'
p2444
tp2445
Rp2446
ag3
(g7
S'_\x92\x18@'
p2447
tp2448
Rp2449
ag3
(g7
S'q\xb44@'
p2450
tp2451
Rp2452
ag3
(g7
S'\x82\x01A@'
p2453
tp2454
Rp2455
ag3
(g7
S'\xac\xdeV@'
p2456
tp2457
Rp2458
ag3
(g7
S'~zg@'
p2459
tp2460
Rp2461
ag3
(g7
S'c\x8d\x8b@'
p2462
tp2463
Rp2464
ag3
(g7
S'u\x9e\x8d@'
p2465
tp2466
Rp2467
ag3
(g7
S'4\xa8\x95@'
p2468
tp2469
Rp2470
ag3
(g7
S'\x07\xb9\xa3@'
p2471
tp2472
Rp2473
ag3
(g7
S'Vo\xab@'
p2474
tp2475
Rp2476
ag3
(g7
S'\x05^\xb9@'
p2477
tp2478
Rp2479
ag3
(g7
S'\xdb\xec\xcc@'
p2480
tp2481
Rp2482
ag3
(g7
S'A\xd3\xdd@'
p2483
tp2484
Rp2485
ag3
(g7
S'\xba%\nA'
p2486
tp2487
Rp2488
ag3
(g7
S'4\xf09A'
p2489
tp2490
Rp2491
ag3
(g7
S'4\xf09A'
p2492
tp2493
Rp2494
ag3
(g7
S'4\xf09A'
p2495
tp2496
Rp2497
ag3
(g7
S'\x81\x9fMA'
p2498
tp2499
Rp2500
asS'S000006403'
p2501
(lp2502
g3
(g7
S'\xcc\xf2>='
p2503
tp2504
Rp2505
ag3
(g7
S'\xed\xfc\xdf='
p2506
tp2507
Rp2508
ag3
(g7
S'\xcaY\x08>'
p2509
tp2510
Rp2511
ag3
(g7
S'\xa1\x92\xb8?'
p2512
tp2513
Rp2514
ag3
(g7
S'`\x91\xe6?'
p2515
tp2516
Rp2517
ag3
(g7
S'\xb3 \xeb?'
p2518
tp2519
Rp2520
ag3
(g7
S'N@"@'
p2521
tp2522
Rp2523
ag3
(g7
S'\xfe\x84*@'
p2524
tp2525
Rp2526
ag3
(g7
S'\xb0H3@'
p2527
tp2528
Rp2529
ag3
(g7
S'f\x986@'
p2530
tp2531
Rp2532
ag3
(g7
S'\xab{9@'
p2533
tp2534
Rp2535
ag3
(g7
S'!\x1fF@'
p2536
tp2537
Rp2538
ag3
(g7
S'\xc8\x12O@'
p2539
tp2540
Rp2541
ag3
(g7
S'jLf@'
p2542
tp2543
Rp2544
ag3
(g7
S'M\xdfp@'
p2545
tp2546
Rp2547
ag3
(g7
S'/\xc2\x80@'
p2548
tp2549
Rp2550
ag3
(g7
S'\x0f\x0b\x86@'
p2551
tp2552
Rp2553
ag3
(g7
S'-\xf0\x99@'
p2554
tp2555
Rp2556
ag3
(g7
S'_"\x9a@'
p2557
tp2558
Rp2559
ag3
(g7
S'rB\xa0@'
p2560
tp2561
Rp2562
ag3
(g7
S'i\x0f\xaa@'
p2563
tp2564
Rp2565
ag3
(g7
S'i\x0f\xaa@'
p2566
tp2567
Rp2568
ag3
(g7
S'\xd7u\xae@'
p2569
tp2570
Rp2571
ag3
(g7
S')f\xbf@'
p2572
tp2573
Rp2574
ag3
(g7
S')\xf0\xc8@'
p2575
tp2576
Rp2577
ag3
(g7
S'\xb2{\xcb@'
p2578
tp2579
Rp2580
ag3
(g7
S']\xa6\xee@'
p2581
tp2582
Rp2583
ag3
(g7
S'z\xf3\xfc@'
p2584
tp2585
Rp2586
ag3
(g7
S'T\x8a\x03A'
p2587
tp2588
Rp2589
ag3
(g7
S'\x89\xdb\x07A'
p2590
tp2591
Rp2592
ag3
(g7
S'\x89\xdb\x07A'
p2593
tp2594
Rp2595
ag3
(g7
S'\xd19\x0cA'
p2596
tp2597
Rp2598
ag3
(g7
S'\x9bh\x0fA'
p2599
tp2600
Rp2601
ag3
(g7
S'\xdb\xe6\x0fA'
p2602
tp2603
Rp2604
ag3
(g7
S'x\x997A'
p2605
tp2606
Rp2607
asS'S000002621'
p2608
(lp2609
g3
(g7
S'\x0c\xeb\x85>'
p2610
tp2611
Rp2612
ag3
(g7
S'\xa03"@'
p2613
tp2614
Rp2615
ag3
(g7
S'\x85\x8a;@'
p2616
tp2617
Rp2618
ag3
(g7
S'"gO@'
p2619
tp2620
Rp2621
ag3
(g7
S'%=\\@'
p2622
tp2623
Rp2624
ag3
(g7
S'\xa7!\x81@'
p2625
tp2626
Rp2627
ag3
(g7
S'\xe7\xb6\x9b@'
p2628
tp2629
Rp2630
ag3
(g7
S'.\xbe\xb6@'
p2631
tp2632
Rp2633
ag3
(g7
S'\x9f\x19\xba@'
p2634
tp2635
Rp2636
ag3
(g7
S'\xefW\xcd@'
p2637
tp2638
Rp2639
ag3
(g7
S',\xa5\xf7@'
p2640
tp2641
Rp2642
ag3
(g7
S'[\xe6\x1dA'
p2643
tp2644
Rp2645
asS'S000000890'
p2646
(lp2647
g3
(g7
S's\xec5@'
p2648
tp2649
Rp2650
ag3
(g7
S'\xc4\x82\x93@'
p2651
tp2652
Rp2653
asS'S000004218'
p2654
(lp2655
g3
(g7
S'\xb1\x16\x0c@'
p2656
tp2657
Rp2658
ag3
(g7
S')7|@'
p2659
tp2660
Rp2661
ag3
(g7
S'\xb0\xb2\x82@'
p2662
tp2663
Rp2664
ag3
(g7
S'u\xd9\x99@'
p2665
tp2666
Rp2667
ag3
(g7
S'u\xd9\x99@'
p2668
tp2669
Rp2670
ag3
(g7
S'Iv\xbd@'
p2671
tp2672
Rp2673
ag3
(g7
S'u\x10\xc9@'
p2674
tp2675
Rp2676
ag3
(g7
S'\xb1\xe9\xd1@'
p2677
tp2678
Rp2679
ag3
(g7
S'2\xa2\x08A'
p2680
tp2681
Rp2682
ag3
(g7
S'2\xa2\x08A'
p2683
tp2684
Rp2685
ag3
(g7
S'@\x89\x12A'
p2686
tp2687
Rp2688
ag3
(g7
S'@\x892A'
p2689
tp2690
Rp2691
asS'S000005996'
p2692
(lp2693
g3
(g7
S"'?\x9d?"
p2694
tp2695
Rp2696
ag3
(g7
S'9\xa87@'
p2697
tp2698
Rp2699
ag3
(g7
S'(>\xae@'
p2700
tp2701
Rp2702
ag3
(g7
S'\xf7\xe4\x05A'
p2703
tp2704
Rp2705
asS'S000004466'
p2706
(lp2707
g3
(g7
S'9\xa2I?'
p2708
tp2709
Rp2710
ag3
(g7
S'\x01\xb8V?'
p2711
tp2712
Rp2713
ag3
(g7
S'p\x0f\x00@'
p2714
tp2715
Rp2716
ag3
(g7
S'\x04\x8c\x99@'
p2717
tp2718
Rp2719
ag3
(g7
S'+7\xfd@'
p2720
tp2721
Rp2722
ag3
(g7
S'yb\x02A'
p2723
tp2724
Rp2725
ag3
(g7
S'\xe8\xbf\x05A'
p2726
tp2727
Rp2728
ag3
(g7
S'\x96\xc4\x1cA'
p2729
tp2730
Rp2731
asS'S000002450'
p2732
(lp2733
g3
(g7
S'\xd6\x87\x8d>'
p2734
tp2735
Rp2736
ag3
(g7
S'QV\xe8?'
p2737
tp2738
Rp2739
ag3
(g7
S'\x84=5@'
p2740
tp2741
Rp2742
ag3
(g7
S'\xaf\xa8>@'
p2743
tp2744
Rp2745
ag3
(g7
S'\xd5#E@'
p2746
tp2747
Rp2748
ag3
(g7
S'2\xa6\x0fA'
p2749
tp2750
Rp2751
asS'S000005554'
p2752
(lp2753
g3
(g7
S'\xa6"x>'
p2754
tp2755
Rp2756
ag3
(g7
S'1\xb88@'
p2757
tp2758
Rp2759
ag3
(g7
S'8(^@'
p2760
tp2761
Rp2762
ag3
(g7
S'D\xe8k@'
p2763
tp2764
Rp2765
ag3
(g7
S'%~q@'
p2766
tp2767
Rp2768
ag3
(g7
S'\x8aJ\xa0@'
p2769
tp2770
Rp2771
ag3
(g7
S'\xef\xb2\xaa@'
p2772
tp2773
Rp2774
ag3
(g7
S'\xea(\xe0@'
p2775
tp2776
Rp2777
ag3
(g7
S'\xa8-\x10A'
p2778
tp2779
Rp2780
ag3
(g7
S'}\xf9\x12A'
p2781
tp2782
Rp2783
ag3
(g7
S'`}#A'
p2784
tp2785
Rp2786
ag3
(g7
S'\xc8p=A'
p2787
tp2788
Rp2789
asS'S000000443'
p2790
(lp2791
g3
(g7
S'f#\x80@'
p2792
tp2793
Rp2794
ag3
(g7
S'*\xd6\x95@'
p2795
tp2796
Rp2797
ag3
(g7
S't\xdc\xd8@'
p2798
tp2799
Rp2800
ag3
(g7
S'8\x8f\xee@'
p2801
tp2802
Rp2803
ag3
(g7
S'X\xdd\xf4@'
p2804
tp2805
Rp2806
ag3
(g7
S'\xda\xe7\x11A'
p2807
tp2808
Rp2809
asS'S000001521'
p2810
(lp2811
g3
(g7
S'\xf3 \x8a>'
p2812
tp2813
Rp2814
ag3
(g7
S'8A\x82?'
p2815
tp2816
Rp2817
ag3
(g7
S'|d\xe6?'
p2818
tp2819
Rp2820
ag3
(g7
S'\xbd\xce\x04@'
p2821
tp2822
Rp2823
ag3
(g7
S'XE\x19@'
p2824
tp2825
Rp2826
ag3
(g7
S'J\xc6/@'
p2827
tp2828
Rp2829
ag3
(g7
S'^\x16`@'
p2830
tp2831
Rp2832
ag3
(g7
S'h\x1fa@'
p2833
tp2834
Rp2835
ag3
(g7
S'Zn{@'
p2836
tp2837
Rp2838
ag3
(g7
S'\xc9\xbc\x80@'
p2839
tp2840
Rp2841
ag3
(g7
S'8\xd7\x8f@'
p2842
tp2843
Rp2844
ag3
(g7
S'/\xc0\x9b@'
p2845
tp2846
Rp2847
ag3
(g7
S"'\x0e\xb2@"
p2848
tp2849
Rp2850
ag3
(g7
S'\x8aR\xb9@'
p2851
tp2852
Rp2853
ag3
(g7
S';\x06\xbc@'
p2854
tp2855
Rp2856
ag3
(g7
S'\x0e\xfd\xbc@'
p2857
tp2858
Rp2859
ag3
(g7
S'\xe2\x8a\xfe@'
p2860
tp2861
Rp2862
ag3
(g7
S'\xda6\x03A'
p2863
tp2864
Rp2865
ag3
(g7
S'DC\rA'
p2866
tp2867
Rp2868
ag3
(g7
S'*\xc4\x18A'
p2869
tp2870
Rp2871
ag3
(g7
S'\xe0;NA'
p2872
tp2873
Rp2874
ag3
(g7
S'\xb7\x8cNA'
p2875
tp2876
Rp2877
ag3
(g7
S'\xf8\xccSA'
p2878
tp2879
Rp2880
ag3
(g7
S'#s\\A'
p2881
tp2882
Rp2883
asS'S000001249'
p2884
(lp2885
g3
(g7
S'\xe2\xc4\x8b@'
p2886
tp2887
Rp2888
ag3
(g7
S'\x057\x9f@'
p2889
tp2890
Rp2891
ag3
(g7
S'zs\xb5@'
p2892
tp2893
Rp2894
ag3
(g7
S'z\xdd\xd5@'
p2895
tp2896
Rp2897
ag3
(g7
S'\x9a|\x07A'
p2898
tp2899
Rp2900
ag3
(g7
S'\xbd\xb9\nA'
p2901
tp2902
Rp2903
asS'S000001526'
p2904
(lp2905
g3
(g7
S'[\t$>'
p2906
tp2907
Rp2908
ag3
(g7
S'\xfcn\xe1>'
p2909
tp2910
Rp2911
ag3
(g7
S'Kf\x17?'
p2912
tp2913
Rp2914
ag3
(g7
S'\xc9\xf0.?'
p2915
tp2916
Rp2917
ag3
(g7
S'\xd2\xc1U?'
p2918
tp2919
Rp2920
ag3
(g7
S'7\xf0f?'
p2921
tp2922
Rp2923
ag3
(g7
S'\xea\xffk?'
p2924
tp2925
Rp2926
ag3
(g7
S'/\xd9\x92?'
p2927
tp2928
Rp2929
ag3
(g7
S'1#\xa2?'
p2930
tp2931
Rp2932
ag3
(g7
S'j\xff\xb4?'
p2933
tp2934
Rp2935
ag3
(g7
S'\xdd\xe7\xb9?'
p2936
tp2937
Rp2938
ag3
(g7
S'S\x02\xef?'
p2939
tp2940
Rp2941
ag3
(g7
S';.\x0c@'
p2942
tp2943
Rp2944
ag3
(g7
S'\xc11\x17@'
p2945
tp2946
Rp2947
ag3
(g7
S'\xdfq=@'
p2948
tp2949
Rp2950
ag3
(g7
S'84e@'
p2951
tp2952
Rp2953
ag3
(g7
S'\xf0\x80\x84@'
p2954
tp2955
Rp2956
ag3
(g7
S'\x9b{\x89@'
p2957
tp2958
Rp2959
ag3
(g7
S'\x9e3\x9c@'
p2960
tp2961
Rp2962
ag3
(g7
S'\x90\x9e\xb9@'
p2963
tp2964
Rp2965
ag3
(g7
S'\xb08\xc1@'
p2966
tp2967
Rp2968
ag3
(g7
S'\xb3F\xca@'
p2969
tp2970
Rp2971
ag3
(g7
S'\x14]\xce@'
p2972
tp2973
Rp2974
ag3
(g7
S'\x80\x80\xec@'
p2975
tp2976
Rp2977
asS'S000003299'
p2978
(lp2979
g3
(g7
S'gD\x14@'
p2980
tp2981
Rp2982
ag3
(g7
S'w*s@'
p2983
tp2984
Rp2985
ag3
(g7
S'\x84\n~@'
p2986
tp2987
Rp2988
ag3
(g7
S']>\x89@'
p2989
tp2990
Rp2991
ag3
(g7
S'\xde\xf9\x1bA'
p2992
tp2993
Rp2994
ag3
(g7
S'{^%A'
p2995
tp2996
Rp2997
ag3
(g7
S'\xb15.A'
p2998
tp2999
Rp3000
asS'S000001930'
p3001
(lp3002
g3
(g7
S'\xb9\xb4\xf7:'
p3003
tp3004
Rp3005
ag3
(g7
S'\xb9\xb4\xf7:'
p3006
tp3007
Rp3008
ag3
(g7
S'\xc2Ih?'
p3009
tp3010
Rp3011
ag3
(g7
S'\xc2Ih?'
p3012
tp3013
Rp3014
ag3
(g7
S'F\t)@'
p3015
tp3016
Rp3017
ag3
(g7
S'F\t)@'
p3018
tp3019
Rp3020
ag3
(g7
S"\xaf'>@"
p3021
tp3022
Rp3023
ag3
(g7
S"\xaf'>@"
p3024
tp3025
Rp3026
ag3
(g7
S'\x91a\xf1@'
p3027
tp3028
Rp3029
ag3
(g7
S'\x91a\xf1@'
p3030
tp3031
Rp3032
asS'S000000150'
p3033
(lp3034
g3
(g7
S'\x0705@'
p3035
tp3036
Rp3037
asS'S000005346'
p3038
(lp3039
g3
(g7
S'\x1a\tq@'
p3040
tp3041
Rp3042
ag3
(g7
S'78\xe7@'
p3043
tp3044
Rp3045
ag3
(g7
S'78\xe7@'
p3046
tp3047
Rp3048
ag3
(g7
S'[\x02%A'
p3049
tp3050
Rp3051
ag3
(g7
S'[\x02%A'
p3052
tp3053
Rp3054
asS'S000005639'
p3055
(lp3056
g3
(g7
S'\x98\x03A?'
p3057
tp3058
Rp3059
ag3
(g7
S'M\xf5+@'
p3060
tp3061
Rp3062
ag3
(g7
S'\xa6\xf8A@'
p3063
tp3064
Rp3065
ag3
(g7
S'\xadmU@'
p3066
tp3067
Rp3068
ag3
(g7
S'\x80\x00\xc3@'
p3069
tp3070
Rp3071
ag3
(g7
S'z\x90\xdd@'
p3072
tp3073
Rp3074
ag3
(g7
S'S\xfc\xe0@'
p3075
tp3076
Rp3077
ag3
(g7
S'wB\xe1@'
p3078
tp3079
Rp3080
ag3
(g7
S'Tf\xf7@'
p3081
tp3082
Rp3083
ag3
(g7
S'0\xee\x05A'
p3084
tp3085
Rp3086
ag3
(g7
S'0\xee\x05A'
p3087
tp3088
Rp3089
ag3
(g7
S'>$\x08A'
p3090
tp3091
Rp3092
ag3
(g7
S'GX\rA'
p3093
tp3094
Rp3095
ag3
(g7
S'+\x0f\x15A'
p3096
tp3097
Rp3098
ag3
(g7
S' \\*A'
p3099
tp3100
Rp3101
ag3
(g7
S'\x1b}9A'
p3102
tp3103
Rp3104
ag3
(g7
S'0#QA'
p3105
tp3106
Rp3107
ag3
(g7
S'0#QA'
p3108
tp3109
Rp3110
ag3
(g7
S'0#QA'
p3111
tp3112
Rp3113
ag3
(g7
S'\x1f5\\A'
p3114
tp3115
Rp3116
ag3
(g7
S'\x1f5\\A'
p3117
tp3118
Rp3119
asS'S000004121'
p3120
(lp3121
g3
(g7
S'\r%\x13?'
p3122
tp3123
Rp3124
asS'S000000950'
p3125
(lp3126
g3
(g7
S'\x13D\xae='
p3127
tp3128
Rp3129
ag3
(g7
S'\x16um>'
p3130
tp3131
Rp3132
ag3
(g7
S'S\xcf\x9f>'
p3133
tp3134
Rp3135
ag3
(g7
S'\xfb\xfb\xb4>'
p3136
tp3137
Rp3138
ag3
(g7
S'\xef\xca\xfa>'
p3139
tp3140
Rp3141
ag3
(g7
S'\xb4@\x03?'
p3142
tp3143
Rp3144
ag3
(g7
S'\x07\x9e"?'
p3145
tp3146
Rp3147
ag3
(g7
S'`\x1eN?'
p3148
tp3149
Rp3150
ag3
(g7
S'\xd7\xa8T?'
p3151
tp3152
Rp3153
ag3
(g7
S'*\xaaX?'
p3154
tp3155
Rp3156
ag3
(g7
S'\xb8x\x87?'
p3157
tp3158
Rp3159
ag3
(g7
S'>$\xa8?'
p3160
tp3161
Rp3162
ag3
(g7
S'|\x19\xaa?'
p3163
tp3164
Rp3165
ag3
(g7
S'd-\xb7?'
p3166
tp3167
Rp3168
ag3
(g7
S'\xdfb\xc0?'
p3169
tp3170
Rp3171
ag3
(g7
S'\xce\x07\xc3?'
p3172
tp3173
Rp3174
ag3
(g7
S"'B\xf0?"
p3175
tp3176
Rp3177
ag3
(g7
S'*\xc3\r@'
p3178
tp3179
Rp3180
ag3
(g7
S'Gq\x1e@'
p3181
tp3182
Rp3183
ag3
(g7
S'z\xaa8@'
p3184
tp3185
Rp3186
ag3
(g7
S'\xf0\xc7=@'
p3187
tp3188
Rp3189
ag3
(g7
S'\xe7\x9c@@'
p3190
tp3191
Rp3192
ag3
(g7
S'\xf5_\x83@'
p3193
tp3194
Rp3195
ag3
(g7
S'\xb6\x85\x84@'
p3196
tp3197
Rp3198
ag3
(g7
S'\xc3\xe9\x91@'
p3199
tp3200
Rp3201
asS'S000002441'
p3202
(lp3203
g3
(g7
S'\x9c\x1a\x97?'
p3204
tp3205
Rp3206
ag3
(g7
S'\x9b\xb5\x04@'
p3207
tp3208
Rp3209
ag3
(g7
S'\x9b\xb5\x04@'
p3210
tp3211
Rp3212
ag3
(g7
S'\x9b\xb5\x04@'
p3213
tp3214
Rp3215
ag3
(g7
S'scn@'
p3216
tp3217
Rp3218
ag3
(g7
S'L\xbd\x8e@'
p3219
tp3220
Rp3221
ag3
(g7
S'=\x8b\xab@'
p3222
tp3223
Rp3224
ag3
(g7
S'=\x8b\xab@'
p3225
tp3226
Rp3227
ag3
(g7
S'\x88\n\xb9@'
p3228
tp3229
Rp3230
ag3
(g7
S'\xde\xcb\xcd@'
p3231
tp3232
Rp3233
ag3
(g7
S'\xde\xcb\xcd@'
p3234
tp3235
Rp3236
ag3
(g7
S'\xb5\xe9\xf4@'
p3237
tp3238
Rp3239
ag3
(g7
S'=\xe2\x06A'
p3240
tp3241
Rp3242
asS'S000004621'
p3243
(lp3244
g3
(g7
S'\xc7\x9fCA'
p3245
tp3246
Rp3247
ag3
(g7
S'\xc0\xe0EA'
p3248
tp3249
Rp3250
asS'S000003064'
p3251
(lp3252
g3
(g7
S'b_\xb5@'
p3253
tp3254
Rp3255
asS'S000005907'
p3256
(lp3257
g3
(g7
S'\x84*8A'
p3258
tp3259
Rp3260
asS'S000006226'
p3261
(lp3262
g3
(g7
S'\x0fw\x18A'
p3263
tp3264
Rp3265
ag3
(g7
S'\xc5\xda6A'
p3266
tp3267
Rp3268
ag3
(g7
S'\xc5\xda6A'
p3269
tp3270
Rp3271
asS'S000002214'
p3272
(lp3273
g3
(g7
S'\xff\x96\x8e<'
p3274
tp3275
Rp3276
ag3
(g7
S'<8\x96>'
p3277
tp3278
Rp3279
ag3
(g7
S'\xda\xd8\xa4>'
p3280
tp3281
Rp3282
ag3
(g7
S'U\x11\xcf>'
p3283
tp3284
Rp3285
ag3
(g7
S'\x19+\xd8>'
p3286
tp3287
Rp3288
ag3
(g7
S'\xc6k/?'
p3289
tp3290
Rp3291
ag3
(g7
S',\na?'
p3292
tp3293
Rp3294
ag3
(g7
S'\x7f\x9c\x97?'
p3295
tp3296
Rp3297
ag3
(g7
S'}\xa4\xc7?'
p3298
tp3299
Rp3300
ag3
(g7
S'\xf7\x0b\xf1?'
p3301
tp3302
Rp3303
ag3
(g7
S'\xb0\xfc\x12@'
p3304
tp3305
Rp3306
ag3
(g7
S'^ib@'
p3307
tp3308
Rp3309
ag3
(g7
S'V0\x8d@'
p3310
tp3311
Rp3312
ag3
(g7
S'\xbf\xb2\x9f@'
p3313
tp3314
Rp3315
ag3
(g7
S'-\x19\xa4@'
p3316
tp3317
Rp3318
ag3
(g7
S'\x00\xf2\rA'
p3319
tp3320
Rp3321
ag3
(g7
S'\x9c\xbc\x19A'
p3322
tp3323
Rp3324
asS'S000001098'
p3325
(lp3326
g3
(g7
S'\xf2!N>'
p3327
tp3328
Rp3329
ag3
(g7
S'QA\x8a@'
p3330
tp3331
Rp3332
asS'S000001363'
p3333
(lp3334
g3
(g7
S')\xe0\xde@'
p3335
tp3336
Rp3337
ag3
(g7
S'Y\xf4\xe5@'
p3338
tp3339
Rp3340
ag3
(g7
S'E\xb5\xee@'
p3341
tp3342
Rp3343
ag3
(g7
S'u\xc9\xf5@'
p3344
tp3345
Rp3346
asS'S000006054'
p3347
(lp3348
g3
(g7
S'\xe2\xc4\x8b@'
p3349
tp3350
Rp3351
ag3
(g7
S'H\xb6\x97@'
p3352
tp3353
Rp3354
ag3
(g7
S'[!\xa9@'
p3355
tp3356
Rp3357
ag3
(g7
S'[!\xa9@'
p3358
tp3359
Rp3360
ag3
(g7
S'L\xd8\xe0@'
p3361
tp3362
Rp3363
asS'S000000386'
p3364
(lp3365
g3
(g7
S'\x80\x9c ;'
p3366
tp3367
Rp3368
ag3
(g7
S'\x9a\xeaV;'
p3369
tp3370
Rp3371
ag3
(g7
S'B\xec\x8a<'
p3372
tp3373
Rp3374
ag3
(g7
S'\xed\xe4\x04='
p3375
tp3376
Rp3377
ag3
(g7
S'\x04\x8b\x90='
p3378
tp3379
Rp3380
ag3
(g7
S'\x0b\x92\xd9='
p3381
tp3382
Rp3383
ag3
(g7
S'\xde\x14\xe6='
p3384
tp3385
Rp3386
ag3
(g7
S"p\x7f'>"
p3387
tp3388
Rp3389
ag3
(g7
S'\xd0w0>'
p3390
tp3391
Rp3392
ag3
(g7
S'\x19XC>'
p3393
tp3394
Rp3395
ag3
(g7
S'vBT>'
p3396
tp3397
Rp3398
ag3
(g7
S'\x9f\xa1Y>'
p3399
tp3400
Rp3401
ag3
(g7
S'?\xbbp>'
p3402
tp3403
Rp3404
ag3
(g7
S'\xd3\xa5|>'
p3405
tp3406
Rp3407
ag3
(g7
S'\xfen\x85>'
p3408
tp3409
Rp3410
ag3
(g7
S'\xfd\xa5\x96>'
p3411
tp3412
Rp3413
ag3
(g7
S'\xe1\xc9\xb2>'
p3414
tp3415
Rp3416
ag3
(g7
S' l\xb9>'
p3417
tp3418
Rp3419
ag3
(g7
S'C\xec\xba>'
p3420
tp3421
Rp3422
ag3
(g7
S'\x1f\xc7\xd1>'
p3423
tp3424
Rp3425
ag3
(g7
S'\xc2\xb0\xda>'
p3426
tp3427
Rp3428
ag3
(g7
S'\xd2\x02\xe1>'
p3429
tp3430
Rp3431
ag3
(g7
S'\xcc\xa1\xe4>'
p3432
tp3433
Rp3434
ag3
(g7
S'b\xe1\xf9>'
p3435
tp3436
Rp3437
ag3
(g7
S'$\xed\x02?'
p3438
tp3439
Rp3440
ag3
(g7
S'\xdd\x1a\r?'
p3441
tp3442
Rp3443
ag3
(g7
S'e\x14\x1c?'
p3444
tp3445
Rp3446
ag3
(g7
S'\xbai\x1e?'
p3447
tp3448
Rp3449
ag3
(g7
S'F@,?'
p3450
tp3451
Rp3452
ag3
(g7
S'\x9eh1?'
p3453
tp3454
Rp3455
ag3
(g7
S'D\xf03?'
p3456
tp3457
Rp3458
ag3
(g7
S'\xa1\x906?'
p3459
tp3460
Rp3461
ag3
(g7
S'\xb5*:?'
p3462
tp3463
Rp3464
ag3
(g7
S't\x95:?'
p3465
tp3466
Rp3467
ag3
(g7
S'\x15\xee??'
p3468
tp3469
Rp3470
ag3
(g7
S'\xdeCH?'
p3471
tp3472
Rp3473
ag3
(g7
S'y\x1bT?'
p3474
tp3475
Rp3476
ag3
(g7
S'aCi?'
p3477
tp3478
Rp3479
ag3
(g7
S'{cm?'
p3480
tp3481
Rp3482
ag3
(g7
S'5\x1bt?'
p3483
tp3484
Rp3485
ag3
(g7
S'9\xb3z?'
p3486
tp3487
Rp3488
ag3
(g7
S'v\xb5~?'
p3489
tp3490
Rp3491
ag3
(g7
S'G]\x8b?'
p3492
tp3493
Rp3494
ag3
(g7
S'"\xea\x8e?'
p3495
tp3496
Rp3497
ag3
(g7
S'K\xef\x91?'
p3498
tp3499
Rp3500
ag3
(g7
S'"\xfe\x99?'
p3501
tp3502
Rp3503
ag3
(g7
S'\x95s\x9a?'
p3504
tp3505
Rp3506
ag3
(g7
S'\xce~\xa0?'
p3507
tp3508
Rp3509
ag3
(g7
S'0\x0b\xa2?'
p3510
tp3511
Rp3512
ag3
(g7
S'Q\xbe\xa2?'
p3513
tp3514
Rp3515
ag3
(g7
S'\xffm\xa3?'
p3516
tp3517
Rp3518
ag3
(g7
S'\xc3\xb3\xa7?'
p3519
tp3520
Rp3521
ag3
(g7
S'\xd4l\xb1?'
p3522
tp3523
Rp3524
ag3
(g7
S'e\x03\xb2?'
p3525
tp3526
Rp3527
ag3
(g7
S'6:\xb5?'
p3528
tp3529
Rp3530
ag3
(g7
S'\n\x7f\xb5?'
p3531
tp3532
Rp3533
ag3
(g7
S'\x00\xf4\xb5?'
p3534
tp3535
Rp3536
ag3
(g7
S'\xbe\xae\xb7?'
p3537
tp3538
Rp3539
ag3
(g7
S'\xe8U\xb9?'
p3540
tp3541
Rp3542
ag3
(g7
S'$\xab\xbe?'
p3543
tp3544
Rp3545
ag3
(g7
S'\xf7x\xc3?'
p3546
tp3547
Rp3548
ag3
(g7
S'f\x83\xc5?'
p3549
tp3550
Rp3551
ag3
(g7
S'\xddv\xc7?'
p3552
tp3553
Rp3554
ag3
(g7
S'X\x0e\xca?'
p3555
tp3556
Rp3557
ag3
(g7
S'\x8e\xfc\xd0?'
p3558
tp3559
Rp3560
ag3
(g7
S'\xd3\x89\xd2?'
p3561
tp3562
Rp3563
ag3
(g7
S' \xb7\xd8?'
p3564
tp3565
Rp3566
ag3
(g7
S'\xd6f\xdb?'
p3567
tp3568
Rp3569
ag3
(g7
S'\xc6\xcf\xde?'
p3570
tp3571
Rp3572
ag3
(g7
S'eu\xe3?'
p3573
tp3574
Rp3575
ag3
(g7
S'\xccv\xe7?'
p3576
tp3577
Rp3578
ag3
(g7
S'\xce\x00\xed?'
p3579
tp3580
Rp3581
ag3
(g7
S'\xb8B\xf9?'
p3582
tp3583
Rp3584
ag3
(g7
S'\xd0\x10\xfa?'
p3585
tp3586
Rp3587
ag3
(g7
S'\x08\x0c\x03@'
p3588
tp3589
Rp3590
ag3
(g7
S'o/\x05@'
p3591
tp3592
Rp3593
ag3
(g7
S'\x15\xa4\x05@'
p3594
tp3595
Rp3596
ag3
(g7
S'\xb0\x1f\x06@'
p3597
tp3598
Rp3599
ag3
(g7
S'\xef\xdb\x0b@'
p3600
tp3601
Rp3602
ag3
(g7
S'4\xd5\x0c@'
p3603
tp3604
Rp3605
ag3
(g7
S'\xf9\x88\x10@'
p3606
tp3607
Rp3608
ag3
(g7
S'\xe6\x07\x13@'
p3609
tp3610
Rp3611
ag3
(g7
S'\x03\xc7\x13@'
p3612
tp3613
Rp3614
ag3
(g7
S'\xdd\xbe\x19@'
p3615
tp3616
Rp3617
ag3
(g7
S'Mi\x1b@'
p3618
tp3619
Rp3620
ag3
(g7
S'$\x13\x1c@'
p3621
tp3622
Rp3623
ag3
(g7
S'FT\x1d@'
p3624
tp3625
Rp3626
ag3
(g7
S'\xff\x14\x1f@'
p3627
tp3628
Rp3629
ag3
(g7
S'.\t!@'
p3630
tp3631
Rp3632
ag3
(g7
S'\x1c\xf6#@'
p3633
tp3634
Rp3635
ag3
(g7
S'\x9eO&@'
p3636
tp3637
Rp3638
ag3
(g7
S"\x875'@"
p3639
tp3640
Rp3641
ag3
(g7
S"S\xb2'@"
p3642
tp3643
Rp3644
ag3
(g7
S'd\x91(@'
p3645
tp3646
Rp3647
ag3
(g7
S'CL,@'
p3648
tp3649
Rp3650
ag3
(g7
S';W,@'
p3651
tp3652
Rp3653
ag3
(g7
S'b\x0f0@'
p3654
tp3655
Rp3656
ag3
(g7
S'\xee|3@'
p3657
tp3658
Rp3659
ag3
(g7
S'\x0ej4@'
p3660
tp3661
Rp3662
ag3
(g7
S'\xba#5@'
p3663
tp3664
Rp3665
ag3
(g7
S'jg5@'
p3666
tp3667
Rp3668
ag3
(g7
S'\xd0\x8d6@'
p3669
tp3670
Rp3671
ag3
(g7
S'\t\x04:@'
p3672
tp3673
Rp3674
ag3
(g7
S'\xbfg@@'
p3675
tp3676
Rp3677
ag3
(g7
S'kmH@'
p3678
tp3679
Rp3680
ag3
(g7
S'\xd6\x95K@'
p3681
tp3682
Rp3683
ag3
(g7
S'91O@'
p3684
tp3685
Rp3686
ag3
(g7
S'\x99\x87S@'
p3687
tp3688
Rp3689
ag3
(g7
S'\xfc\xeaX@'
p3690
tp3691
Rp3692
ag3
(g7
S'6\xd9a@'
p3693
tp3694
Rp3695
ag3
(g7
S'\x04\x99d@'
p3696
tp3697
Rp3698
ag3
(g7
S'\x11\xe4g@'
p3699
tp3700
Rp3701
ag3
(g7
S'\x04\x11l@'
p3702
tp3703
Rp3704
ag3
(g7
S'\x81\xdeu@'
p3705
tp3706
Rp3707
ag3
(g7
S'\xcc\x0fv@'
p3708
tp3709
Rp3710
ag3
(g7
S'\xf2Q\x80@'
p3711
tp3712
Rp3713
ag3
(g7
S'_\x83\x80@'
p3714
tp3715
Rp3716
ag3
(g7
S'\xf8\xc8\x80@'
p3717
tp3718
Rp3719
ag3
(g7
S'\xa1\x05\x90@'
p3720
tp3721
Rp3722
ag3
(g7
S'\xdd\xfa\x90@'
p3723
tp3724
Rp3725
ag3
(g7
S'\x8f\xb9\x91@'
p3726
tp3727
Rp3728
ag3
(g7
S'\xa7$\x94@'
p3729
tp3730
Rp3731
ag3
(g7
S'\xb5\xdb\x94@'
p3732
tp3733
Rp3734
ag3
(g7
S'xb\x95@'
p3735
tp3736
Rp3737
ag3
(g7
S'\x02f\x96@'
p3738
tp3739
Rp3740
ag3
(g7
S'\x0f\x19\x9b@'
p3741
tp3742
Rp3743
ag3
(g7
S'\x87\xa9\xa0@'
p3744
tp3745
Rp3746
ag3
(g7
S'\xef\x88\xa9@'
p3747
tp3748
Rp3749
ag3
(g7
S'\xed\x14\xaa@'
p3750
tp3751
Rp3752
ag3
(g7
S'\xcb\x84\xb3@'
p3753
tp3754
Rp3755
ag3
(g7
S'1\xd7\xb8@'
p3756
tp3757
Rp3758
ag3
(g7
S'wo\xbb@'
p3759
tp3760
Rp3761
ag3
(g7
S'):\xc6@'
p3762
tp3763
Rp3764
ag3
(g7
S'\xe6B\xc6@'
p3765
tp3766
Rp3767
ag3
(g7
S"\xe7'\xc7@"
p3768
tp3769
Rp3770
ag3
(g7
S'\x9c\xb5\xcb@'
p3771
tp3772
Rp3773
ag3
(g7
S'\x0c\x12\xd1@'
p3774
tp3775
Rp3776
ag3
(g7
S'K\x96\xd7@'
p3777
tp3778
Rp3779
ag3
(g7
S'\x94\x19\xd9@'
p3780
tp3781
Rp3782
ag3
(g7
S'q\xb3\xe5@'
p3783
tp3784
Rp3785
ag3
(g7
S'\x83\xaa\x02A'
p3786
tp3787
Rp3788
ag3
(g7
S'`\xdb\x04A'
p3789
tp3790
Rp3791
ag3
(g7
S'\xe8~\x12A'
p3792
tp3793
Rp3794
asS'S000001807'
p3795
(lp3796
g3
(g7
S'\xb29\x90>'
p3797
tp3798
Rp3799
ag3
(g7
S'_t\x0c?'
p3800
tp3801
Rp3802
ag3
(g7
S'\x85\xa5\x86@'
p3803
tp3804
Rp3805
asS'S000001126'
p3806
(lp3807
g3
(g7
S'IV\x1b>'
p3808
tp3809
Rp3810
ag3
(g7
S'\x85\xb6\x83?'
p3811
tp3812
Rp3813
ag3
(g7
S'e,\xcc?'
p3814
tp3815
Rp3816
ag3
(g7
S'Z\xf0\xdd?'
p3817
tp3818
Rp3819
ag3
(g7
S'\x9fz\xf7?'
p3820
tp3821
Rp3822
ag3
(g7
S'\xbb\x15 @'
p3823
tp3824
Rp3825
ag3
(g7
S'-&"@'
p3826
tp3827
Rp3828
ag3
(g7
S':\xda(@'
p3829
tp3830
Rp3831
ag3
(g7
S'\xb6@,@'
p3832
tp3833
Rp3834
ag3
(g7
S'A\xdbE@'
p3835
tp3836
Rp3837
ag3
(g7
S'\xe5(\x87@'
p3838
tp3839
Rp3840
ag3
(g7
S'\xe5(\x87@'
p3841
tp3842
Rp3843
ag3
(g7
S'p1\x8a@'
p3844
tp3845
Rp3846
ag3
(g7
S'c\xd5\xa6@'
p3847
tp3848
Rp3849
ag3
(g7
S'\xe7\x8e\xc7@'
p3850
tp3851
Rp3852
ag3
(g7
S'\xba\xcc\xd5@'
p3853
tp3854
Rp3855
ag3
(g7
S'\x1f\x00\xf1@'
p3856
tp3857
Rp3858
ag3
(g7
S'\xd4\xef\x19A'
p3859
tp3860
Rp3861
asS'S000000963'
p3862
(lp3863
g3
(g7
S'\x07"\xea>'
p3864
tp3865
Rp3866
ag3
(g7
S'\x00\x17\xc2@'
p3867
tp3868
Rp3869
ag3
(g7
S'\xec\x1b\xd3@'
p3870
tp3871
Rp3872
ag3
(g7
S'\xd6\xde\xdd@'
p3873
tp3874
Rp3875
ag3
(g7
S'\xb7\x19\xed@'
p3876
tp3877
Rp3878
ag3
(g7
S'\xd1\xb1\xef@'
p3879
tp3880
Rp3881
ag3
(g7
S'\xb5E\xf1@'
p3882
tp3883
Rp3884
ag3
(g7
S'\xebV\x03A'
p3885
tp3886
Rp3887
ag3
(g7
S'+3\rA'
p3888
tp3889
Rp3890
ag3
(g7
S'\xf0%\x1aA'
p3891
tp3892
Rp3893
ag3
(g7
S'&8JA'
p3894
tp3895
Rp3896
asS'S000002928'
p3897
(lp3898
g3
(g7
S'\xd9\x0b\xbb@'
p3899
tp3900
Rp3901
ag3
(g7
S'{\t\x14A'
p3902
tp3903
Rp3904
ag3
(g7
S'{\t\x14A'
p3905
tp3906
Rp3907
ag3
(g7
S'\xf9\xec\x1bA'
p3908
tp3909
Rp3910
ag3
(g7
S's\xdc A'
p3911
tp3912
Rp3913
asS'S000004565'
p3914
(lp3915
g3
(g7
S'b\x15\x82?'
p3916
tp3917
Rp3918
asS'S000006213'
p3919
(lp3920
g3
(g7
S'\x86\x10\x9c?'
p3921
tp3922
Rp3923
ag3
(g7
S'Vu!@'
p3924
tp3925
Rp3926
ag3
(g7
S'S\xdc\x8e@'
p3927
tp3928
Rp3929
ag3
(g7
S')\\\xdd@'
p3930
tp3931
Rp3932
asS'S000005885'
p3933
(lp3934
g3
(g7
S'\xdc2I?'
p3935
tp3936
Rp3937
ag3
(g7
S'\xfeB\xbf?'
p3938
tp3939
Rp3940
ag3
(g7
S'\xcbP\xc9?'
p3941
tp3942
Rp3943
ag3
(g7
S'\x1f \x94@'
p3944
tp3945
Rp3946
ag3
(g7
S'\x95\x08\xda@'
p3947
tp3948
Rp3949
asS'S000005143'
p3950
(lp3951
g3
(g7
S'\xdc\xd8\x83?'
p3952
tp3953
Rp3954
ag3
(g7
S'\xcd\x99\xa2?'
p3955
tp3956
Rp3957
ag3
(g7
S'\x1f\xb9I@'
p3958
tp3959
Rp3960
ag3
(g7
S'\x1f\xb9I@'
p3961
tp3962
Rp3963
ag3
(g7
S'\x9d\x9bT@'
p3964
tp3965
Rp3966
ag3
(g7
S'\x1e\xe5\\@'
p3967
tp3968
Rp3969
ag3
(g7
S'\xd6\xa6\x8d@'
p3970
tp3971
Rp3972
ag3
(g7
S'<\xde\x8f@'
p3973
tp3974
Rp3975
ag3
(g7
S'\t/\x17A'
p3976
tp3977
Rp3978
ag3
(g7
S'\xbcJ\x18A'
p3979
tp3980
Rp3981
ag3
(g7
S'\xbcJ\x18A'
p3982
tp3983
Rp3984
ag3
(g7
S'\x9d\x16;A'
p3985
tp3986
Rp3987
asS'S000003177'
p3988
(lp3989
g3
(g7
S'\x9bd\x00?'
p3990
tp3991
Rp3992
ag3
(g7
S']\xfd\x96?'
p3993
tp3994
Rp3995
ag3
(g7
S'G\x8d\xb4?'
p3996
tp3997
Rp3998
ag3
(g7
S'\xfa1\xde?'
p3999
tp4000
Rp4001
ag3
(g7
S'u\xb3\x03@'
p4002
tp4003
Rp4004
ag3
(g7
S'\x04\x89T@'
p4005
tp4006
Rp4007
ag3
(g7
S'\xec\xaal@'
p4008
tp4009
Rp4010
ag3
(g7
S'\xde\x00\x81@'
p4011
tp4012
Rp4013
ag3
(g7
S':\x08\x8c@'
p4014
tp4015
Rp4016
ag3
(g7
S'\x01s\x94@'
p4017
tp4018
Rp4019
ag3
(g7
S'\xdbH\xae@'
p4020
tp4021
Rp4022
ag3
(g7
S'a\xe7\xdd@'
p4023
tp4024
Rp4025
ag3
(g7
S'\xaf\xcc\x00A'
p4026
tp4027
Rp4028
ag3
(g7
S'C~\x0eA'
p4029
tp4030
Rp4031
ag3
(g7
S'o\x80 A'
p4032
tp4033
Rp4034
ag3
(g7
S'o\x80 A'
p4035
tp4036
Rp4037
asS'S000005666'
p4038
(lp4039
g3
(g7
S'\x87\rh;'
p4040
tp4041
Rp4042
ag3
(g7
S'\x07\xa4\xd0<'
p4043
tp4044
Rp4045
ag3
(g7
S'ok\xf2<'
p4046
tp4047
Rp4048
ag3
(g7
S'\x96\xbd\x02='
p4049
tp4050
Rp4051
ag3
(g7
S'\x0c\x0e$='
p4052
tp4053
Rp4054
ag3
(g7
S'\xcf\xfa\x85='
p4055
tp4056
Rp4057
ag3
(g7
S'\xfa\x94\x02>'
p4058
tp4059
Rp4060
ag3
(g7
S'\x87\x83\x12>'
p4061
tp4062
Rp4063
ag3
(g7
S'\x853#>'
p4064
tp4065
Rp4066
ag3
(g7
S'H\xca2>'
p4067
tp4068
Rp4069
ag3
(g7
S'\xcd1@>'
p4070
tp4071
Rp4072
ag3
(g7
S'\xe3\xd5N>'
p4073
tp4074
Rp4075
ag3
(g7
S'o\x93{>'
p4076
tp4077
Rp4078
ag3
(g7
S'\xe5\xef\x98>'
p4079
tp4080
Rp4081
ag3
(g7
S'\xdb/\xa3>'
p4082
tp4083
Rp4084
ag3
(g7
S'\xa8\xca\xa6>'
p4085
tp4086
Rp4087
ag3
(g7
S'\x0e\xfb\xb8>'
p4088
tp4089
Rp4090
ag3
(g7
S'\x88\x1b\xc3>'
p4091
tp4092
Rp4093
ag3
(g7
S'w.\xc6>'
p4094
tp4095
Rp4096
ag3
(g7
S'\xe6$\xd9>'
p4097
tp4098
Rp4099
ag3
(g7
S'Q\xdb\x00?'
p4100
tp4101
Rp4102
ag3
(g7
S'\xd9M\x02?'
p4103
tp4104
Rp4105
ag3
(g7
S'\xbf\x8a\x02?'
p4106
tp4107
Rp4108
ag3
(g7
S'\xf3\xf8\x06?'
p4109
tp4110
Rp4111
ag3
(g7
S'7\x8c\x16?'
p4112
tp4113
Rp4114
ag3
(g7
S'\x02\xae ?'
p4115
tp4116
Rp4117
ag3
(g7
S'q\xfd ?'
p4118
tp4119
Rp4120
ag3
(g7
S'y:%?'
p4121
tp4122
Rp4123
ag3
(g7
S"\xe4\x8b'?"
p4124
tp4125
Rp4126
ag3
(g7
S'\x15tj?'
p4127
tp4128
Rp4129
ag3
(g7
S'\xd9\x0fq?'
p4130
tp4131
Rp4132
ag3
(g7
S'\x99,w?'
p4133
tp4134
Rp4135
ag3
(g7
S'\x8d\x1e\x83?'
p4136
tp4137
Rp4138
ag3
(g7
S'&S\x86?'
p4139
tp4140
Rp4141
ag3
(g7
S'\x10V\xa4?'
p4142
tp4143
Rp4144
ag3
(g7
S'\x18\xa5\xa5?'
p4145
tp4146
Rp4147
ag3
(g7
S'\xb7\x96\xa8?'
p4148
tp4149
Rp4150
ag3
(g7
S'\x9d\xb7\xba?'
p4151
tp4152
Rp4153
ag3
(g7
S'\xf8\x8e\xbe?'
p4154
tp4155
Rp4156
ag3
(g7
S'#\xc6\xbe?'
p4157
tp4158
Rp4159
ag3
(g7
S'\xf5\xc3\xc6?'
p4160
tp4161
Rp4162
ag3
(g7
S'\xfc\xad\xd9?'
p4163
tp4164
Rp4165
ag3
(g7
S'su\xe9?'
p4166
tp4167
Rp4168
ag3
(g7
S'\xb2}\x01@'
p4169
tp4170
Rp4171
ag3
(g7
S'\xe2f\x03@'
p4172
tp4173
Rp4174
ag3
(g7
S'"/\x08@'
p4175
tp4176
Rp4177
ag3
(g7
S'\x98P\x08@'
p4178
tp4179
Rp4180
ag3
(g7
S'\xb4\xca\r@'
p4181
tp4182
Rp4183
ag3
(g7
S'\xb1\x84\x12@'
p4184
tp4185
Rp4186
ag3
(g7
S'd\xb3\x14@'
p4187
tp4188
Rp4189
ag3
(g7
S'D\x9e$@'
p4190
tp4191
Rp4192
ag3
(g7
S'_\xfe$@'
p4193
tp4194
Rp4195
ag3
(g7
S'\xdc\xb34@'
p4196
tp4197
Rp4198
ag3
(g7
S'\xcfg9@'
p4199
tp4200
Rp4201
ag3
(g7
S'x\x90:@'
p4202
tp4203
Rp4204
ag3
(g7
S'\xd5m?@'
p4205
tp4206
Rp4207
ag3
(g7
S'\xa8CC@'
p4208
tp4209
Rp4210
ag3
(g7
S'\xb4\x06E@'
p4211
tp4212
Rp4213
ag3
(g7
S'\x9a\xc5M@'
p4214
tp4215
Rp4216
ag3
(g7
S'\x87\xc6Q@'
p4217
tp4218
Rp4219
ag3
(g7
S'\xd8\x86T@'
p4220
tp4221
Rp4222
ag3
(g7
S'y\xf1a@'
p4223
tp4224
Rp4225
ag3
(g7
S'\xbcEh@'
p4226
tp4227
Rp4228
ag3
(g7
S'\xb2\xafp@'
p4229
tp4230
Rp4231
ag3
(g7
S'Kqq@'
p4232
tp4233
Rp4234
ag3
(g7
S'j\xf8z@'
p4235
tp4236
Rp4237
ag3
(g7
S'!\x14\x80@'
p4238
tp4239
Rp4240
ag3
(g7
S'q\xa0\x86@'
p4241
tp4242
Rp4243
ag3
(g7
S'\x93~\x87@'
p4244
tp4245
Rp4246
ag3
(g7
S'$\x99\x89@'
p4247
tp4248
Rp4249
ag3
(g7
S"('\x8d@"
p4250
tp4251
Rp4252
ag3
(g7
S'\x92\xd0\x8e@'
p4253
tp4254
Rp4255
ag3
(g7
S'x\xb1\x91@'
p4256
tp4257
Rp4258
ag3
(g7
S'L\xff\x9c@'
p4259
tp4260
Rp4261
ag3
(g7
S'\x97\x85\x9e@'
p4262
tp4263
Rp4264
ag3
(g7
S'\r\xaa\xa4@'
p4265
tp4266
Rp4267
ag3
(g7
S'\x8c%\xae@'
p4268
tp4269
Rp4270
ag3
(g7
S'\xbc\x9f\xb1@'
p4271
tp4272
Rp4273
ag3
(g7
S'\xc7Y\xb3@'
p4274
tp4275
Rp4276
ag3
(g7
S'\x10\x82\xb3@'
p4277
tp4278
Rp4279
ag3
(g7
S'j\xc3\xb3@'
p4280
tp4281
Rp4282
ag3
(g7
S'\xe7\x1b\xb4@'
p4283
tp4284
Rp4285
ag3
(g7
S'\xf1\xc9\xb6@'
p4286
tp4287
Rp4288
ag3
(g7
S'\xf1\xe3\xc2@'
p4289
tp4290
Rp4291
ag3
(g7
S'|\xd2\xc4@'
p4292
tp4293
Rp4294
ag3
(g7
S'z?\xc8@'
p4295
tp4296
Rp4297
ag3
(g7
S'\xbaK\xcf@'
p4298
tp4299
Rp4300
ag3
(g7
S'\x90\xc9\xd4@'
p4301
tp4302
Rp4303
ag3
(g7
S'\xef:\xd5@'
p4304
tp4305
Rp4306
ag3
(g7
S'\xe7E\xe4@'
p4307
tp4308
Rp4309
ag3
(g7
S'Q\x1f\xee@'
p4310
tp4311
Rp4312
ag3
(g7
S'"\xa7\xf1@'
p4313
tp4314
Rp4315
ag3
(g7
S'\xbf\x9c\x00A'
p4316
tp4317
Rp4318
ag3
(g7
S'\xad\xa2\x00A'
p4319
tp4320
Rp4321
ag3
(g7
S'G\xa3\x00A'
p4322
tp4323
Rp4324
ag3
(g7
S'\x96~\x02A'
p4325
tp4326
Rp4327
ag3
(g7
S'f\xd1\x07A'
p4328
tp4329
Rp4330
ag3
(g7
S'\x0b\x96\x18A'
p4331
tp4332
Rp4333
ag3
(g7
S'~>6A'
p4334
tp4335
Rp4336
ag3
(g7
S'<qwA'
p4337
tp4338
Rp4339
asS'S000001545'
p4340
(lp4341
g3
(g7
S'\xba\x0e:?'
p4342
tp4343
Rp4344
ag3
(g7
S'\xba\x0e:?'
p4345
tp4346
Rp4347
ag3
(g7
S'T\x84F@'
p4348
tp4349
Rp4350
ag3
(g7
S'T\x84F@'
p4351
tp4352
Rp4353
ag3
(g7
S'\x88e\xeb@'
p4354
tp4355
Rp4356
ag3
(g7
S'\x88e\xeb@'
p4357
tp4358
Rp4359
ag3
(g7
S'\x88e\xeb@'
p4360
tp4361
Rp4362
ag3
(g7
S'\x88e\xeb@'
p4363
tp4364
Rp4365
ag3
(g7
S'\xed\xb2\x1bA'
p4366
tp4367
Rp4368
ag3
(g7
S'\xed\xb2\x1bA'
p4369
tp4370
Rp4371
asS'S000000661'
p4372
(lp4373
g3
(g7
S'\xday_='
p4374
tp4375
Rp4376
ag3
(g7
S'\xday_='
p4377
tp4378
Rp4379
ag3
(g7
S'yh\x07>'
p4380
tp4381
Rp4382
ag3
(g7
S'ER(>'
p4383
tp4384
Rp4385
ag3
(g7
S'\xfd\x17\xa4>'
p4386
tp4387
Rp4388
ag3
(g7
S'\xb6\xb8\xb4>'
p4389
tp4390
Rp4391
ag3
(g7
S'\xa4\x1a\xb6>'
p4392
tp4393
Rp4394
ag3
(g7
S'\xff\xbc\xc1>'
p4395
tp4396
Rp4397
ag3
(g7
S'xP\xce>'
p4398
tp4399
Rp4400
ag3
(g7
S'xP\xce>'
p4401
tp4402
Rp4403
ag3
(g7
S'\x82A\x03?'
p4404
tp4405
Rp4406
ag3
(g7
S'\xc8\x00\r?'
p4407
tp4408
Rp4409
ag3
(g7
S'\xd5\x02S?'
p4410
tp4411
Rp4412
ag3
(g7
S'$\r`?'
p4413
tp4414
Rp4415
ag3
(g7
S'#\xa0s?'
p4416
tp4417
Rp4418
ag3
(g7
S'\x1cB\x87?'
p4419
tp4420
Rp4421
ag3
(g7
S'\xc8\x91\x8a?'
p4422
tp4423
Rp4424
ag3
(g7
S'87\x8d?'
p4425
tp4426
Rp4427
ag3
(g7
S'\xdd\xa6\x94?'
p4428
tp4429
Rp4430
ag3
(g7
S'g\x98\x9f?'
p4431
tp4432
Rp4433
ag3
(g7
S'0f\xa7?'
p4434
tp4435
Rp4436
ag3
(g7
S'AC\xa9?'
p4437
tp4438
Rp4439
ag3
(g7
S'\xfe;\xaa?'
p4440
tp4441
Rp4442
ag3
(g7
S'\xfe;\xaa?'
p4443
tp4444
Rp4445
ag3
(g7
S'\xcc\xdb\xaf?'
p4446
tp4447
Rp4448
ag3
(g7
S'\xfc<\xc2?'
p4449
tp4450
Rp4451
ag3
(g7
S':\xf5\xd9?'
p4452
tp4453
Rp4454
ag3
(g7
S'x\xae\xe0?'
p4455
tp4456
Rp4457
ag3
(g7
S'6\x8d\xf1?'
p4458
tp4459
Rp4460
ag3
(g7
S'H\x02\xf2?'
p4461
tp4462
Rp4463
ag3
(g7
S'\xd7"\x01@'
p4464
tp4465
Rp4466
ag3
(g7
S'\xb4\xec\x07@'
p4467
tp4468
Rp4469
ag3
(g7
S'\xc33\r@'
p4470
tp4471
Rp4472
ag3
(g7
S'\x92n\x11@'
p4473
tp4474
Rp4475
ag3
(g7
S'\xbc\xdc\x11@'
p4476
tp4477
Rp4478
ag3
(g7
S'\xbc\xdc\x11@'
p4479
tp4480
Rp4481
ag3
(g7
S'\xd8\x90$@'
p4482
tp4483
Rp4484
ag3
(g7
S'\xd8\x90$@'
p4485
tp4486
Rp4487
ag3
(g7
S'/\x0b%@'
p4488
tp4489
Rp4490
ag3
(g7
S'w\xb8)@'
p4491
tp4492
Rp4493
ag3
(g7
S'^#-@'
p4494
tp4495
Rp4496
ag3
(g7
S'\xa7\xa59@'
p4497
tp4498
Rp4499
ag3
(g7
S'8\xd5:@'
p4500
tp4501
Rp4502
ag3
(g7
S'\xf6\x9d;@'
p4503
tp4504
Rp4505
ag3
(g7
S'\xeb\xf6B@'
p4506
tp4507
Rp4508
ag3
(g7
S'\x13\xd3D@'
p4509
tp4510
Rp4511
ag3
(g7
S'[rG@'
p4512
tp4513
Rp4514
ag3
(g7
S"\x82'L@"
p4515
tp4516
Rp4517
ag3
(g7
S"\x82'L@"
p4518
tp4519
Rp4520
ag3
(g7
S'\x82\xc2L@'
p4521
tp4522
Rp4523
ag3
(g7
S'\xed\xc7L@'
p4524
tp4525
Rp4526
ag3
(g7
S'\x92nQ@'
p4527
tp4528
Rp4529
ag3
(g7
S'\x92nQ@'
p4530
tp4531
Rp4532
ag3
(g7
S'\xbc\xdcQ@'
p4533
tp4534
Rp4535
ag3
(g7
S'\x80\x1dR@'
p4536
tp4537
Rp4538
ag3
(g7
S'\x05\xefU@'
p4539
tp4540
Rp4541
ag3
(g7
S'@`[@'
p4542
tp4543
Rp4544
ag3
(g7
S'@`[@'
p4545
tp4546
Rp4547
ag3
(g7
S'\xb2@_@'
p4548
tp4549
Rp4550
ag3
(g7
S'\xf8\xd1o@'
p4551
tp4552
Rp4553
ag3
(g7
S'\xa0\xa4q@'
p4554
tp4555
Rp4556
ag3
(g7
S'\xc8<x@'
p4557
tp4558
Rp4559
ag3
(g7
S'\xf2\xaax@'
p4560
tp4561
Rp4562
ag3
(g7
S'\x82\xa3z@'
p4563
tp4564
Rp4565
ag3
(g7
S'\xac\x11{@'
p4566
tp4567
Rp4568
ag3
(g7
S'C\xd3\x81@'
p4569
tp4570
Rp4571
ag3
(g7
S'\x1a\n\x88@'
p4572
tp4573
Rp4574
ag3
(g7
S'\xc6\xb6\x8c@'
p4575
tp4576
Rp4577
ag3
(g7
S'`\x88\x97@'
p4578
tp4579
Rp4580
ag3
(g7
S'\x9e<\x9c@'
p4581
tp4582
Rp4583
ag3
(g7
S'\xcb;\x9e@'
p4584
tp4585
Rp4586
ag3
(g7
S'\xcb;\x9e@'
p4587
tp4588
Rp4589
ag3
(g7
S'Q\xf2\xa2@'
p4590
tp4591
Rp4592
ag3
(g7
S'l\xb2\xc8@'
p4593
tp4594
Rp4595
ag3
(g7
S'\x9d\xd4\xd3@'
p4596
tp4597
Rp4598
ag3
(g7
S'53\xde@'
p4599
tp4600
Rp4601
ag3
(g7
S'A\xa7\xe8@'
p4602
tp4603
Rp4604
ag3
(g7
S'P\x9a\xf1@'
p4605
tp4606
Rp4607
ag3
(g7
S'\xc2\xbb\xf3@'
p4608
tp4609
Rp4610
ag3
(g7
S'\xdc\xdb\tA'
p4611
tp4612
Rp4613
ag3
(g7
S'\xe6R\nA'
p4614
tp4615
Rp4616
ag3
(g7
S'P\x95\rA'
p4617
tp4618
Rp4619
ag3
(g7
S'1\xf6\x0fA'
p4620
tp4621
Rp4622
ag3
(g7
S'I\x87\x15A'
p4623
tp4624
Rp4625
asS'S000000471'
p4626
(lp4627
g3
(g7
S'\xdf\xc5\xd2@'
p4628
tp4629
Rp4630
ag3
(g7
S'\xe4\x1c\xed@'
p4631
tp4632
Rp4633
asS'S000003276'
p4634
(lp4635
g3
(g7
S'0\xd6>?'
p4636
tp4637
Rp4638
ag3
(g7
S'\x08mI?'
p4639
tp4640
Rp4641
ag3
(g7
S'}&\x95?'
p4642
tp4643
Rp4644
ag3
(g7
S'$\xa9\xef?'
p4645
tp4646
Rp4647
ag3
(g7
S'%,\x05@'
p4648
tp4649
Rp4650
ag3
(g7
S'\xb6F\x05@'
p4651
tp4652
Rp4653
ag3
(g7
S'6\x16\x0b@'
p4654
tp4655
Rp4656
ag3
(g7
S'\x1a0\x0f@'
p4657
tp4658
Rp4659
ag3
(g7
S's"\x1f@'
p4660
tp4661
Rp4662
ag3
(g7
S'\xe0\xf5O@'
p4663
tp4664
Rp4665
ag3
(g7
S'\xf6\x06f@'
p4666
tp4667
Rp4668
ag3
(g7
S'Gr~@'
p4669
tp4670
Rp4671
ag3
(g7
S'\x18\xb7\x81@'
p4672
tp4673
Rp4674
ag3
(g7
S'\xfe\xd6\x8f@'
p4675
tp4676
Rp4677
ag3
(g7
S'\x93%\x9a@'
p4678
tp4679
Rp4680
ag3
(g7
S'\x83\x81\xc7@'
p4681
tp4682
Rp4683
ag3
(g7
S'VD\xe6@'
p4684
tp4685
Rp4686
ag3
(g7
S'\x82\x00\xec@'
p4687
tp4688
Rp4689
ag3
(g7
S'%\xce\xf6@'
p4690
tp4691
Rp4692
ag3
(g7
S'@\xa6\x0cA'
p4693
tp4694
Rp4695
ag3
(g7
S'\xdd\xf0\x16A'
p4696
tp4697
Rp4698
ag3
(g7
S'd\x97#A'
p4699
tp4700
Rp4701
ag3
(g7
S'\xd4_)A'
p4702
tp4703
Rp4704
asS'S000000986'
p4705
(lp4706
g3
(g7
S'o#\x8c?'
p4707
tp4708
Rp4709
ag3
(g7
S'e\x9b\xbf?'
p4710
tp4711
Rp4712
ag3
(g7
S'\x9c\xc5\xca@'
p4713
tp4714
Rp4715
ag3
(g7
S'\x19\xa3\xda@'
p4716
tp4717
Rp4718
ag3
(g7
S'\x97)\xdc@'
p4719
tp4720
Rp4721
ag3
(g7
S'\xeb\xd0\x0cA'
p4722
tp4723
Rp4724
ag3
(g7
S'\xc3\x17\x17A'
p4725
tp4726
Rp4727
ag3
(g7
S'\xcb\xc8 A'
p4728
tp4729
Rp4730
asS'S000006169'
p4731
(lp4732
g3
(g7
S'k\xc7\x9b>'
p4733
tp4734
Rp4735
ag3
(g7
S'\\\xe3L?'
p4736
tp4737
Rp4738
ag3
(g7
S'v\xdf\xa3?'
p4739
tp4740
Rp4741
ag3
(g7
S'\x06\x80\xb0?'
p4742
tp4743
Rp4744
ag3
(g7
S'\xba|\xf1@'
p4745
tp4746
Rp4747
ag3
(g7
S'\x1a#\x14A'
p4748
tp4749
Rp4750
asS'S000002831'
p4751
(lp4752
g3
(g7
S'o\xe5\xe9@'
p4753
tp4754
Rp4755
asS'S000002624'
p4756
(lp4757
g3
(g7
S'EkI?'
p4758
tp4759
Rp4760
ag3
(g7
S'H\xdc\xc5?'
p4761
tp4762
Rp4763
ag3
(g7
S'\xc8\x83R@'
p4764
tp4765
Rp4766
ag3
(g7
S'\x1d\xd7\x80@'
p4767
tp4768
Rp4769
ag3
(g7
S'\x1dm\x8a@'
p4770
tp4771
Rp4772
ag3
(g7
S']\x9e\xa6@'
p4773
tp4774
Rp4775
ag3
(g7
S'_\xec\xc2@'
p4776
tp4777
Rp4778
ag3
(g7
S'\xde\xd1\xc3@'
p4779
tp4780
Rp4781
ag3
(g7
S'\x87\x1b\xdc@'
p4782
tp4783
Rp4784
ag3
(g7
S'\x9b9\xed@'
p4785
tp4786
Rp4787
ag3
(g7
S'p]\xee@'
p4788
tp4789
Rp4790
ag3
(g7
S'\xe4\xd7\xf2@'
p4791
tp4792
Rp4793
ag3
(g7
S'0v!A'
p4794
tp4795
Rp4796
ag3
(g7
S'\xb6\xd2-A'
p4797
tp4798
Rp4799
asS'S000001392'
p4800
(lp4801
g3
(g7
S'@\t\xeb@'
p4802
tp4803
Rp4804
ag3
(g7
S'\xc2\xf0\x00A'
p4805
tp4806
Rp4807
ag3
(g7
S'D\r\tA'
p4808
tp4809
Rp4810
ag3
(g7
S'D\r\tA'
p4811
tp4812
Rp4813
ag3
(g7
S'\xc5\xa8#A'
p4814
tp4815
Rp4816
asS'S000001393'
p4817
(lp4818
g3
(g7
S'\x13=Y>'
p4819
tp4820
Rp4821
ag3
(g7
S'\xc0\tb>'
p4822
tp4823
Rp4824
ag3
(g7
S'\xf2\xeah?'
p4825
tp4826
Rp4827
ag3
(g7
S'\x19\x83\xf3?'
p4828
tp4829
Rp4830
ag3
(g7
S'_\xd4\x18@'
p4831
tp4832
Rp4833
ag3
(g7
S'\x8f\xa1 @'
p4834
tp4835
Rp4836
ag3
(g7
S'\xbf\xabr@'
p4837
tp4838
Rp4839
ag3
(g7
S'$\xa9\xbe@'
p4840
tp4841
Rp4842
ag3
(g7
S'\x9f\x85\xc8@'
p4843
tp4844
Rp4845
ag3
(g7
S'\xc4.\xe2@'
p4846
tp4847
Rp4848
ag3
(g7
S'\xd3\x9a\x18A'
p4849
tp4850
Rp4851
asS'S000000971'
p4852
(lp4853
g3
(g7
S'w\xbb\xc2@'
p4854
tp4855
Rp4856
ag3
(g7
S'T\xb3\xef@'
p4857
tp4858
Rp4859
asS'S000001012'
p4860
(lp4861
g3
(g7
S'\xb0g>?'
p4862
tp4863
Rp4864
ag3
(g7
S'I\xcd\xe3@'
p4865
tp4866
Rp4867
asS'S000000870'
p4868
(lp4869
g3
(g7
S'\x88e\x8b@'
p4870
tp4871
Rp4872
ag3
(g7
S'\xc4\xb2\xb5@'
p4873
tp4874
Rp4875
ag3
(g7
S')S\x1eA'
p4876
tp4877
Rp4878
asS'S000004646'
p4879
(lp4880
g3
(g7
S'lD\xb3='
p4881
tp4882
Rp4883
ag3
(g7
S'&\xd2\x02>'
p4884
tp4885
Rp4886
ag3
(g7
S'Qy\xa9>'
p4887
tp4888
Rp4889
ag3
(g7
S'm\x92\xd7>'
p4890
tp4891
Rp4892
ag3
(g7
S'XF\x00?'
p4893
tp4894
Rp4895
ag3
(g7
S'u\x83\x97?'
p4896
tp4897
Rp4898
ag3
(g7
S'\xda#\xa2?'
p4899
tp4900
Rp4901
ag3
(g7
S'P\xce\xbf?'
p4902
tp4903
Rp4904
ag3
(g7
S'~\xb8\xd6?'
p4905
tp4906
Rp4907
ag3
(g7
S'\x13\x16\xec?'
p4908
tp4909
Rp4910
ag3
(g7
S'ce\xf0?'
p4911
tp4912
Rp4913
ag3
(g7
S'\x07\xb7\x02@'
p4914
tp4915
Rp4916
ag3
(g7
S'\x87(\x07@'
p4917
tp4918
Rp4919
ag3
(g7
S'\xa2\x9d\x15@'
p4920
tp4921
Rp4922
ag3
(g7
S'Ks(@'
p4923
tp4924
Rp4925
ag3
(g7
S'n\xbfB@'
p4926
tp4927
Rp4928
ag3
(g7
S'\xdb\xf4M@'
p4929
tp4930
Rp4931
ag3
(g7
S',\x18b@'
p4932
tp4933
Rp4934
ag3
(g7
S'\xb0*u@'
p4935
tp4936
Rp4937
ag3
(g7
S'\xd1\x88\x91@'
p4938
tp4939
Rp4940
ag3
(g7
S's\x18\x98@'
p4941
tp4942
Rp4943
ag3
(g7
S'-Z\x9f@'
p4944
tp4945
Rp4946
ag3
(g7
S'F\xf6\xa4@'
p4947
tp4948
Rp4949
asS'S000004640'
p4950
(lp4951
g3
(g7
S'(\xee\x05A'
p4952
tp4953
Rp4954
ag3
(g7
S'(\xee\x05A'
p4955
tp4956
Rp4957
ag3
(g7
S'(\xee\x05A'
p4958
tp4959
Rp4960
ag3
(g7
S'(\xee\x05A'
p4961
tp4962
Rp4963
ag3
(g7
S'\xc7p\x14A'
p4964
tp4965
Rp4966
ag3
(g7
S'\xc7p\x14A'
p4967
tp4968
Rp4969
asS'S000005959'
p4970
(lp4971
g3
(g7
S'\xff\x04\x08A'
p4972
tp4973
Rp4974
asS'S000001668'
p4975
(lp4976
g3
(g7
S'\xa4\xf6\x82>'
p4977
tp4978
Rp4979
ag3
(g7
S'=\xe9\xca?'
p4980
tp4981
Rp4982
ag3
(g7
S'\x93\xcf\x08@'
p4983
tp4984
Rp4985
ag3
(g7
S'8@\x1e@'
p4986
tp4987
Rp4988
ag3
(g7
S'\xde\x81\x1f@'
p4989
tp4990
Rp4991
ag3
(g7
S':\x80\x89@'
p4992
tp4993
Rp4994
ag3
(g7
S'U\xaf\x8f@'
p4995
tp4996
Rp4997
ag3
(g7
S';\xd6\xbe@'
p4998
tp4999
Rp5000
ag3
(g7
S'\x00k\xc3@'
p5001
tp5002
Rp5003
ag3
(g7
S'd\xb4\xe7@'
p5004
tp5005
Rp5006
ag3
(g7
S'\xad\xec\xf5@'
p5007
tp5008
Rp5009
ag3
(g7
S'\x8f\xd2\x08A'
p5010
tp5011
Rp5012
asS'S000004166'
p5013
(lp5014
g3
(g7
S'U\x8e\x07@'
p5015
tp5016
Rp5017
ag3
(g7
S'0\xb6\xeb@'
p5018
tp5019
Rp5020
ag3
(g7
S'oQEA'
p5021
tp5022
Rp5023
asS'S000004794'
p5024
(lp5025
g3
(g7
S'2\x19\xda@'
p5026
tp5027
Rp5028
ag3
(g7
S'2\x19\xda@'
p5029
tp5030
Rp5031
ag3
(g7
S'2\x19\xda@'
p5032
tp5033
Rp5034
ag3
(g7
S'2\x19\xda@'
p5035
tp5036
Rp5037
ag3
(g7
S'\x86\xf7\x19A'
p5038
tp5039
Rp5040
ag3
(g7
S'\x86\xf7\x19A'
p5041
tp5042
Rp5043
asS'S000004618'
p5044
(lp5045
g3
(g7
S'\xb7\x81\x00='
p5046
tp5047
Rp5048
ag3
(g7
S'p\xb1%='
p5049
tp5050
Rp5051
ag3
(g7
S'p\xb1%='
p5052
tp5053
Rp5054
ag3
(g7
S'\nT9='
p5055
tp5056
Rp5057
ag3
(g7
S'Z\xb1\x15>'
p5058
tp5059
Rp5060
ag3
(g7
S'\xac\xdaA>'
p5061
tp5062
Rp5063
ag3
(g7
S'y\x18n>'
p5064
tp5065
Rp5066
ag3
(g7
S'\xd6\x01\x80>'
p5067
tp5068
Rp5069
ag3
(g7
S'\xbd\xae\xa9>'
p5070
tp5071
Rp5072
ag3
(g7
S'\xa1(\xda>'
p5073
tp5074
Rp5075
ag3
(g7
S'*\xc0\xe0>'
p5076
tp5077
Rp5078
ag3
(g7
S'\x97\xfc\xf5>'
p5079
tp5080
Rp5081
ag3
(g7
S'\xad6\t?'
p5082
tp5083
Rp5084
ag3
(g7
S'\xb4n&?'
p5085
tp5086
Rp5087
ag3
(g7
S"\x8b\xde'?"
p5088
tp5089
Rp5090
ag3
(g7
S'Kn6?'
p5091
tp5092
Rp5093
ag3
(g7
S'e\xff\x97?'
p5094
tp5095
Rp5096
ag3
(g7
S'\xd5\xd2\x9a?'
p5097
tp5098
Rp5099
ag3
(g7
S'\xe6+\x9c?'
p5100
tp5101
Rp5102
ag3
(g7
S'\xa4\xc6\xae?'
p5103
tp5104
Rp5105
ag3
(g7
S'\x9b\xf0\xb8?'
p5106
tp5107
Rp5108
ag3
(g7
S'\x9b\xf0\xb8?'
p5109
tp5110
Rp5111
ag3
(g7
S'\xc9\x85\xb9?'
p5112
tp5113
Rp5114
ag3
(g7
S'\xacd\xbd?'
p5115
tp5116
Rp5117
ag3
(g7
S'\xd6\xf2\xc3?'
p5118
tp5119
Rp5120
ag3
(g7
S'^S\xd5?'
p5121
tp5122
Rp5123
ag3
(g7
S'\x866\xe0?'
p5124
tp5125
Rp5126
ag3
(g7
S'\xacc\xe9?'
p5127
tp5128
Rp5129
ag3
(g7
S'\x0c\x9a\x03@'
p5130
tp5131
Rp5132
ag3
(g7
S'\x06\x0f\x0b@'
p5133
tp5134
Rp5135
ag3
(g7
S'/\xa3\x0b@'
p5136
tp5137
Rp5138
ag3
(g7
S'R@\x15@'
p5139
tp5140
Rp5141
ag3
(g7
S'\xad+\x16@'
p5142
tp5143
Rp5144
ag3
(g7
S'\x1bv\x16@'
p5145
tp5146
Rp5147
ag3
(g7
S'\xc7\xe6\x1d@'
p5148
tp5149
Rp5150
ag3
(g7
S'\xa1\x93(@'
p5151
tp5152
Rp5153
ag3
(g7
S'\x85G)@'
p5154
tp5155
Rp5156
ag3
(g7
S'\xc04,@'
p5157
tp5158
Rp5159
ag3
(g7
S'@\x1e/@'
p5160
tp5161
Rp5162
ag3
(g7
S'\xc0E7@'
p5163
tp5164
Rp5165
ag3
(g7
S'd)K@'
p5166
tp5167
Rp5168
ag3
(g7
S'\xd1tR@'
p5169
tp5170
Rp5171
ag3
(g7
S'\x95\x12f@'
p5172
tp5173
Rp5174
ag3
(g7
S'\xbc\xf3j@'
p5175
tp5176
Rp5177
ag3
(g7
S'\xba=n@'
p5178
tp5179
Rp5180
ag3
(g7
S'\x954w@'
p5181
tp5182
Rp5183
ag3
(g7
S'\xa2\xbc\x80@'
p5184
tp5185
Rp5186
ag3
(g7
S'\xf1G\x82@'
p5187
tp5188
Rp5189
ag3
(g7
S'\xe8q\x8a@'
p5190
tp5191
Rp5192
ag3
(g7
S'\xaf\xb7\x8c@'
p5193
tp5194
Rp5195
ag3
(g7
S'!s\x8d@'
p5196
tp5197
Rp5198
ag3
(g7
S'z\x16\x93@'
p5199
tp5200
Rp5201
ag3
(g7
S'P\xc8\x97@'
p5202
tp5203
Rp5204
ag3
(g7
S'\x82B\xa7@'
p5205
tp5206
Rp5207
ag3
(g7
S'S#\xb9@'
p5208
tp5209
Rp5210
ag3
(g7
S'\x16\x9a\xbd@'
p5211
tp5212
Rp5213
ag3
(g7
S'c\x9f\xd8@'
p5214
tp5215
Rp5216
asS'S000001705'
p5217
(lp5218
g3
(g7
S'\xa4\x9b\xca?'
p5219
tp5220
Rp5221
ag3
(g7
S'\xa4FZ@'
p5222
tp5223
Rp5224
ag3
(g7
S'\xe7\x86\x8d@'
p5225
tp5226
Rp5227
ag3
(g7
S'\x1b\x97\x93@'
p5228
tp5229
Rp5230
ag3
(g7
S'\xe0R\xa7@'
p5231
tp5232
Rp5233
ag3
(g7
S'W\xe4\xdd@'
p5234
tp5235
Rp5236
ag3
(g7
S'\x11\x88\x1bA'
p5237
tp5238
Rp5239
ag3
(g7
S'\xf4e%A'
p5240
tp5241
Rp5242
asS'S000002981'
p5243
(lp5244
g3
(g7
S'\xc5\xe0s>'
p5245
tp5246
Rp5247
ag3
(g7
S'YS\xe6>'
p5248
tp5249
Rp5250
ag3
(g7
S'\x15a\xb4?'
p5251
tp5252
Rp5253
ag3
(g7
S'1\x0c\xd6?'
p5254
tp5255
Rp5256
ag3
(g7
S'\xbc\x11\xf8?'
p5257
tp5258
Rp5259
ag3
(g7
S'\xfc\xd0\xfc?'
p5260
tp5261
Rp5262
ag3
(g7
S'\xdd\xf4\x0b@'
p5263
tp5264
Rp5265
ag3
(g7
S'\x9aOL@'
p5266
tp5267
Rp5268
ag3
(g7
S'\xb8\x12^@'
p5269
tp5270
Rp5271
ag3
(g7
S'r\xbc\x90@'
p5272
tp5273
Rp5274
ag3
(g7
S'V\xe7\xa0@'
p5275
tp5276
Rp5277
ag3
(g7
S'\x85\xad\xa7@'
p5278
tp5279
Rp5280
ag3
(g7
S'B\n\xa8@'
p5281
tp5282
Rp5283
asS'S000002829'
p5284
(lp5285
g3
(g7
S'\xc5\xadb>'
p5286
tp5287
Rp5288
ag3
(g7
S')|\x88>'
p5289
tp5290
Rp5291
ag3
(g7
S'%x\x18?'
p5292
tp5293
Rp5294
ag3
(g7
S'\xb2d\xbf?'
p5295
tp5296
Rp5297
ag3
(g7
S'\xf5\xd8\xff?'
p5298
tp5299
Rp5300
ag3
(g7
S'P\xd2\n@'
p5301
tp5302
Rp5303
ag3
(g7
S'\r$\x15@'
p5304
tp5305
Rp5306
ag3
(g7
S'\x0f\xd4!@'
p5307
tp5308
Rp5309
ag3
(g7
S'\x917v@'
p5310
tp5311
Rp5312
ag3
(g7
S'8>\xc2@'
p5313
tp5314
Rp5315
ag3
(g7
S'-\x02\x08A'
p5316
tp5317
Rp5318
ag3
(g7
S'k\x069A'
p5319
tp5320
Rp5321
asS'S000000611'
p5322
(lp5323
g3
(g7
S'v\xcfe>'
p5324
tp5325
Rp5326
ag3
(g7
S'v\xcfe>'
p5327
tp5328
Rp5329
ag3
(g7
S'\x99\x99\x99>'
p5330
tp5331
Rp5332
ag3
(g7
S'\x10\xca\xfa>'
p5333
tp5334
Rp5335
ag3
(g7
S'>R\x17?'
p5336
tp5337
Rp5338
ag3
(g7
S'\xc7\xdc$?'
p5339
tp5340
Rp5341
ag3
(g7
S'\x97\x1a>?'
p5342
tp5343
Rp5344
ag3
(g7
S'\xc8\xb9S?'
p5345
tp5346
Rp5347
ag3
(g7
S'O\x92{?'
p5348
tp5349
Rp5350
ag3
(g7
S'\x08\xac\x83?'
p5351
tp5352
Rp5353
ag3
(g7
S'\x94\xb9\x8b?'
p5354
tp5355
Rp5356
ag3
(g7
S'\x12\xf3\x98?'
p5357
tp5358
Rp5359
ag3
(g7
S'\x1e\x10\x9a?'
p5360
tp5361
Rp5362
ag3
(g7
S'\xc1\xdd\xc2?'
p5363
tp5364
Rp5365
ag3
(g7
S'd\x0c\xd0?'
p5366
tp5367
Rp5368
ag3
(g7
S'm\x1b\xd4?'
p5369
tp5370
Rp5371
ag3
(g7
S'j\xfe\xd7?'
p5372
tp5373
Rp5374
ag3
(g7
S'\xaal\xde?'
p5375
tp5376
Rp5377
ag3
(g7
S'\x17$\xfc?'
p5378
tp5379
Rp5380
ag3
(g7
S'\x10B\x01@'
p5381
tp5382
Rp5383
ag3
(g7
S'G\xec\x01@'
p5384
tp5385
Rp5386
ag3
(g7
S'1\xfe\x16@'
p5387
tp5388
Rp5389
ag3
(g7
S'\xfa\x9a\x1d@'
p5390
tp5391
Rp5392
ag3
(g7
S'\x84) @'
p5393
tp5394
Rp5395
ag3
(g7
S'\x9b\xb25@'
p5396
tp5397
Rp5398
ag3
(g7
S'~\xb9:@'
p5399
tp5400
Rp5401
ag3
(g7
S'7n<@'
p5402
tp5403
Rp5404
ag3
(g7
S'Q[C@'
p5405
tp5406
Rp5407
ag3
(g7
S'U\x9bM@'
p5408
tp5409
Rp5410
ag3
(g7
S'\xcc\xc5w@'
p5411
tp5412
Rp5413
ag3
(g7
S'\xeb\xc2}@'
p5414
tp5415
Rp5416
ag3
(g7
S'[\xd2\x84@'
p5417
tp5418
Rp5419
ag3
(g7
S'@\x1f\x94@'
p5420
tp5421
Rp5422
ag3
(g7
S'\xeb\x81\x98@'
p5423
tp5424
Rp5425
ag3
(g7
S'\xb8\xa7\x9a@'
p5426
tp5427
Rp5428
ag3
(g7
S'\xe6\xe2\x9b@'
p5429
tp5430
Rp5431
ag3
(g7
S'V\n\xa4@'
p5432
tp5433
Rp5434
ag3
(g7
S' \xf9\xb0@'
p5435
tp5436
Rp5437
ag3
(g7
S'\xb8\xa7\xba@'
p5438
tp5439
Rp5440
ag3
(g7
S'1\xbb\xba@'
p5441
tp5442
Rp5443
ag3
(g7
S'\xafQ\x0bA'
p5444
tp5445
Rp5446
ag3
(g7
S'}2%A'
p5447
tp5448
Rp5449
asS'S000002661'
p5450
(lp5451
g3
(g7
S'\xc9\xd1\xa6>'
p5452
tp5453
Rp5454
ag3
(g7
S'\xdd\x0f\x02?'
p5455
tp5456
Rp5457
ag3
(g7
S"\xd3D'?"
p5458
tp5459
Rp5460
ag3
(g7
S"\xd3D'?"
p5461
tp5462
Rp5463
ag3
(g7
S'\x8c\xf29?'
p5464
tp5465
Rp5466
ag3
(g7
S'9\x19\x92?'
p5467
tp5468
Rp5469
ag3
(g7
S'\xe6\x05\x97?'
p5470
tp5471
Rp5472
ag3
(g7
S')N\xbb?'
p5473
tp5474
Rp5475
ag3
(g7
S'!<\xe5?'
p5476
tp5477
Rp5478
ag3
(g7
S'B \xf3?'
p5479
tp5480
Rp5481
ag3
(g7
S'\xc6\xb86@'
p5482
tp5483
Rp5484
ag3
(g7
S'\xc6\xb86@'
p5485
tp5486
Rp5487
ag3
(g7
S'W(b@'
p5488
tp5489
Rp5490
ag3
(g7
S'd\xa9\x88@'
p5491
tp5492
Rp5493
ag3
(g7
S'\xe2$\x93@'
p5494
tp5495
Rp5496
ag3
(g7
S'\xea\x9d\x96@'
p5497
tp5498
Rp5499
ag3
(g7
S'aq\xb3@'
p5500
tp5501
Rp5502
ag3
(g7
S'i\xea\xb6@'
p5503
tp5504
Rp5505
ag3
(g7
S'i\xea\xb6@'
p5506
tp5507
Rp5508
ag3
(g7
S'\xcf\xd7\xd7@'
p5509
tp5510
Rp5511
ag3
(g7
S'\xe8\xb2\xee@'
p5512
tp5513
Rp5514
asS'S000002178'
p5515
(lp5516
g3
(g7
S'i9\x91@'
p5517
tp5518
Rp5519
ag3
(g7
S'\xb1\xd4"A'
p5520
tp5521
Rp5522
ag3
(g7
S'8\xf1$A'
p5523
tp5524
Rp5525
asS'S000005388'
p5526
(lp5527
g3
(g7
S'\xf7\xe0\xdf<'
p5528
tp5529
Rp5530
ag3
(g7
S'L\xb9\xbc='
p5531
tp5532
Rp5533
ag3
(g7
S'\xf3\xaa\xb3?'
p5534
tp5535
Rp5536
ag3
(g7
S'\xfc~\xb4?'
p5537
tp5538
Rp5539
ag3
(g7
S'Z\xd0j@'
p5540
tp5541
Rp5542
ag3
(g7
S'm\x08y@'
p5543
tp5544
Rp5545
ag3
(g7
S'\x13\xf6\x93@'
p5546
tp5547
Rp5548
ag3
(g7
S'\xa6\x13\xfd@'
p5549
tp5550
Rp5551
asS'S000002667'
p5552
(lp5553
g3
(g7
S'\xdf\x8f7='
p5554
tp5555
Rp5556
ag3
(g7
S'%b\x9f>'
p5557
tp5558
Rp5559
ag3
(g7
S'Px\xb3>'
p5560
tp5561
Rp5562
ag3
(g7
S'\x0c\n\xfb>'
p5563
tp5564
Rp5565
ag3
(g7
S'\\\x12\x12?'
p5566
tp5567
Rp5568
ag3
(g7
S'\xcc\xb5(?'
p5569
tp5570
Rp5571
ag3
(g7
S'\x8d1+?'
p5572
tp5573
Rp5574
ag3
(g7
S'\xaa\x9d,?'
p5575
tp5576
Rp5577
ag3
(g7
S'\x8c\xafD?'
p5578
tp5579
Rp5580
ag3
(g7
S'\x19\xdeg?'
p5581
tp5582
Rp5583
ag3
(g7
S'\xc8\xb5n?'
p5584
tp5585
Rp5586
ag3
(g7
S'\x9e\xc5\x82?'
p5587
tp5588
Rp5589
ag3
(g7
S'\xa8\x19\x8a?'
p5590
tp5591
Rp5592
ag3
(g7
S'\xd2\x82\x96?'
p5593
tp5594
Rp5595
ag3
(g7
S'Lk\xb1?'
p5596
tp5597
Rp5598
ag3
(g7
S'\xf2o\xb5?'
p5599
tp5600
Rp5601
ag3
(g7
S'\x84\xb5\xc0?'
p5602
tp5603
Rp5604
ag3
(g7
S'\xedb\xd2?'
p5605
tp5606
Rp5607
ag3
(g7
S'\xdf|\xd5?'
p5608
tp5609
Rp5610
ag3
(g7
S'\x0b$\xdf?'
p5611
tp5612
Rp5613
ag3
(g7
S'G\xc3\x01@'
p5614
tp5615
Rp5616
ag3
(g7
S'\x8eJ\x08@'
p5617
tp5618
Rp5619
ag3
(g7
S'\xea\x95\x1f@'
p5620
tp5621
Rp5622
ag3
(g7
S'\xdd\x00<@'
p5623
tp5624
Rp5625
ag3
(g7
S'\x9f\xe8W@'
p5626
tp5627
Rp5628
ag3
(g7
S"\xc1'X@"
p5629
tp5630
Rp5631
ag3
(g7
S'\x84\xcf^@'
p5632
tp5633
Rp5634
ag3
(g7
S'\x10\xa9u@'
p5635
tp5636
Rp5637
ag3
(g7
S'vA}@'
p5638
tp5639
Rp5640
ag3
(g7
S'\xe6\xb7\x84@'
p5641
tp5642
Rp5643
ag3
(g7
S'\xaee\x88@'
p5644
tp5645
Rp5646
ag3
(g7
S'qF\x8c@'
p5647
tp5648
Rp5649
ag3
(g7
S'\xf1\xe2\x95@'
p5650
tp5651
Rp5652
ag3
(g7
S'\xa8\xdd\x9e@'
p5653
tp5654
Rp5655
ag3
(g7
S'\xfc\x04\xa9@'
p5656
tp5657
Rp5658
ag3
(g7
S'\x8d8\xdf@'
p5659
tp5660
Rp5661
ag3
(g7
S'1\xd3\xe3@'
p5662
tp5663
Rp5664
asS'S000004395'
p5665
(lp5666
g3
(g7
S'\x04\xf4\x83='
p5667
tp5668
Rp5669
ag3
(g7
S'\x05\x86\xdf='
p5670
tp5671
Rp5672
ag3
(g7
S'3c\x18>'
p5673
tp5674
Rp5675
ag3
(g7
S'\x01\x04)>'
p5676
tp5677
Rp5678
ag3
(g7
S'\xc2\x81\xaa>'
p5679
tp5680
Rp5681
ag3
(g7
S'#\xa1\xbd>'
p5682
tp5683
Rp5684
ag3
(g7
S'}x\xc1>'
p5685
tp5686
Rp5687
ag3
(g7
S'\xfa\xfa\xd9>'
p5688
tp5689
Rp5690
ag3
(g7
S"'\xf3\x06?"
p5691
tp5692
Rp5693
ag3
(g7
S'\t\xfa\x07?'
p5694
tp5695
Rp5696
ag3
(g7
S'\x0c\xe0\x0c?'
p5697
tp5698
Rp5699
ag3
(g7
S'y&\r?'
p5700
tp5701
Rp5702
ag3
(g7
S'C\xd6\x0e?'
p5703
tp5704
Rp5705
ag3
(g7
S'\x7f\xfe\x0e?'
p5706
tp5707
Rp5708
ag3
(g7
S'\xad\xd4\x13?'
p5709
tp5710
Rp5711
ag3
(g7
S'A\x1f\x1a?'
p5712
tp5713
Rp5714
ag3
(g7
S'\xae\x85\x1c?'
p5715
tp5716
Rp5717
ag3
(g7
S'\x06B(?'
p5718
tp5719
Rp5720
ag3
(g7
S'\x9f?A?'
p5721
tp5722
Rp5723
ag3
(g7
S'$8L?'
p5724
tp5725
Rp5726
ag3
(g7
S' oN?'
p5727
tp5728
Rp5729
ag3
(g7
S'\xa8fd?'
p5730
tp5731
Rp5732
ag3
(g7
S'+Un?'
p5733
tp5734
Rp5735
ag3
(g7
S'\xec\xea\x80?'
p5736
tp5737
Rp5738
ag3
(g7
S'L\xfb\x84?'
p5739
tp5740
Rp5741
ag3
(g7
S'\xbe\xcb\x85?'
p5742
tp5743
Rp5744
ag3
(g7
S'f\xc6\x99?'
p5745
tp5746
Rp5747
ag3
(g7
S'\xb1v\x9c?'
p5748
tp5749
Rp5750
ag3
(g7
S'\xed+\xa8?'
p5751
tp5752
Rp5753
ag3
(g7
S'\xa5\xab\xa9?'
p5754
tp5755
Rp5756
ag3
(g7
S'\x83F\xae?'
p5757
tp5758
Rp5759
ag3
(g7
S'\x1cK\xae?'
p5760
tp5761
Rp5762
ag3
(g7
S'\xf5\x9a\xb1?'
p5763
tp5764
Rp5765
ag3
(g7
S'\xc4i\xb7?'
p5766
tp5767
Rp5768
ag3
(g7
S'\xfeh\xbb?'
p5769
tp5770
Rp5771
ag3
(g7
S'_\xef\xc0?'
p5772
tp5773
Rp5774
ag3
(g7
S'\x87\x8d\xc3?'
p5775
tp5776
Rp5777
ag3
(g7
S'">\xcf?'
p5778
tp5779
Rp5780
ag3
(g7
S'\xf3\xbf\xd0?'
p5781
tp5782
Rp5783
ag3
(g7
S'p\xd3\xdf?'
p5784
tp5785
Rp5786
ag3
(g7
S'jF\xe7?'
p5787
tp5788
Rp5789
ag3
(g7
S'\xc5\xa1\xe9?'
p5790
tp5791
Rp5792
ag3
(g7
S'\x18\x96\xea?'
p5793
tp5794
Rp5795
ag3
(g7
S'\x01S\xf4?'
p5796
tp5797
Rp5798
ag3
(g7
S'\x8b\xbf\xf4?'
p5799
tp5800
Rp5801
ag3
(g7
S'\xe8X\x00@'
p5802
tp5803
Rp5804
ag3
(g7
S'\x96!\x01@'
p5805
tp5806
Rp5807
ag3
(g7
S'\xbc|\x04@'
p5808
tp5809
Rp5810
ag3
(g7
S'-\x01\r@'
p5811
tp5812
Rp5813
ag3
(g7
S'\x93G\x1c@'
p5814
tp5815
Rp5816
ag3
(g7
S'\xfb2!@'
p5817
tp5818
Rp5819
ag3
(g7
S'\xbf\xf2&@'
p5820
tp5821
Rp5822
ag3
(g7
S'\xc0@,@'
p5823
tp5824
Rp5825
ag3
(g7
S'V\x90,@'
p5826
tp5827
Rp5828
ag3
(g7
S'\xc8\xe6/@'
p5829
tp5830
Rp5831
ag3
(g7
S'\xc1C2@'
p5832
tp5833
Rp5834
ag3
(g7
S'=43@'
p5835
tp5836
Rp5837
ag3
(g7
S'\xe3<;@'
p5838
tp5839
Rp5840
ag3
(g7
S'\xf5c>@'
p5841
tp5842
Rp5843
ag3
(g7
S'\x90.F@'
p5844
tp5845
Rp5846
ag3
(g7
S'\x07\x01K@'
p5847
tp5848
Rp5849
ag3
(g7
S'\xbe\nV@'
p5850
tp5851
Rp5852
ag3
(g7
S'$\xd3Y@'
p5853
tp5854
Rp5855
ag3
(g7
S'gC^@'
p5856
tp5857
Rp5858
ag3
(g7
S'E\xc9^@'
p5859
tp5860
Rp5861
ag3
(g7
S'<6`@'
p5862
tp5863
Rp5864
ag3
(g7
S'V\x15g@'
p5865
tp5866
Rp5867
ag3
(g7
S'\x02\x88t@'
p5868
tp5869
Rp5870
ag3
(g7
S'\xa9\xf9|@'
p5871
tp5872
Rp5873
ag3
(g7
S'7\x0c\x80@'
p5874
tp5875
Rp5876
ag3
(g7
S'(e\x87@'
p5877
tp5878
Rp5879
ag3
(g7
S'\x17}\x8a@'
p5880
tp5881
Rp5882
ag3
(g7
S'\xa9\xc2\x8a@'
p5883
tp5884
Rp5885
ag3
(g7
S'g\xdb\x8c@'
p5886
tp5887
Rp5888
ag3
(g7
S'\xd4\xc6\x97@'
p5889
tp5890
Rp5891
ag3
(g7
S'\xd1\x1c\x98@'
p5892
tp5893
Rp5894
ag3
(g7
S'\xc4\x84\x9c@'
p5895
tp5896
Rp5897
ag3
(g7
S'\xd6-\xa0@'
p5898
tp5899
Rp5900
ag3
(g7
S';V\xa1@'
p5901
tp5902
Rp5903
ag3
(g7
S'\x92E\xa6@'
p5904
tp5905
Rp5906
ag3
(g7
S'Su\xa9@'
p5907
tp5908
Rp5909
ag3
(g7
S'U\xaf\xb2@'
p5910
tp5911
Rp5912
ag3
(g7
S'\x1ao\xb3@'
p5913
tp5914
Rp5915
ag3
(g7
S'S\xea\xba@'
p5916
tp5917
Rp5918
ag3
(g7
S'W\x9e\xbb@'
p5919
tp5920
Rp5921
ag3
(g7
S'\xc6=\xbc@'
p5922
tp5923
Rp5924
ag3
(g7
S'\xb7\xe9\xcb@'
p5925
tp5926
Rp5927
ag3
(g7
S'\xbbh\xcc@'
p5928
tp5929
Rp5930
ag3
(g7
S'\xfa:\xcf@'
p5931
tp5932
Rp5933
ag3
(g7
S'\xdbE\xd0@'
p5934
tp5935
Rp5936
ag3
(g7
S'S\xf0\xd2@'
p5937
tp5938
Rp5939
ag3
(g7
S'\xec\xe3\xd8@'
p5940
tp5941
Rp5942
ag3
(g7
S'\xe1\x7f\xdf@'
p5943
tp5944
Rp5945
ag3
(g7
S'\x88\xad\xdf@'
p5946
tp5947
Rp5948
ag3
(g7
S'6w\xe0@'
p5949
tp5950
Rp5951
ag3
(g7
S'\x8e\xcd\xe9@'
p5952
tp5953
Rp5954
ag3
(g7
S'8\xfa\xeb@'
p5955
tp5956
Rp5957
ag3
(g7
S'\xb1\x05\xfd@'
p5958
tp5959
Rp5960
ag3
(g7
S'\xa9\x84\xff@'
p5961
tp5962
Rp5963
ag3
(g7
S'\x0b\x8d\x02A'
p5964
tp5965
Rp5966
ag3
(g7
S'\xc9:\x05A'
p5967
tp5968
Rp5969
ag3
(g7
S'E`\x05A'
p5970
tp5971
Rp5972
ag3
(g7
S'!\xff\nA'
p5973
tp5974
Rp5975
ag3
(g7
S'\x93\n\x0cA'
p5976
tp5977
Rp5978
ag3
(g7
S'\xd8\xa7\x11A'
p5979
tp5980
Rp5981
ag3
(g7
S'\x81\xf0\x16A'
p5982
tp5983
Rp5984
ag3
(g7
S"Rs'A"
p5985
tp5986
Rp5987
asS'S000005468'
p5988
(lp5989
g3
(g7
S'L\x1bt@'
p5990
tp5991
Rp5992
ag3
(g7
S'\x89\xa8y@'
p5993
tp5994
Rp5995
asS'S000003854'
p5996
(lp5997
g3
(g7
S'\xa1o\xf6@'
p5998
tp5999
Rp6000
asS'S000004256'
p6001
(lp6002
g3
(g7
S'\xc6\x9b\xb8@'
p6003
tp6004
Rp6005
ag3
(g7
S'\xc6\x9b\xb8@'
p6006
tp6007
Rp6008
ag3
(g7
S'\x06\xa1\xd5@'
p6009
tp6010
Rp6011
ag3
(g7
S'\xcf\xd8\xdc@'
p6012
tp6013
Rp6014
ag3
(g7
S'fE\x00A'
p6015
tp6016
Rp6017
asS'S000005258'
p6018
(lp6019
g3
(g7
S'\nc\x1a@'
p6020
tp6021
Rp6022
ag3
(g7
S'~\x1eh@'
p6023
tp6024
Rp6025
ag3
(g7
S'\xca\xe1\xa1@'
p6026
tp6027
Rp6028
ag3
(g7
S'\xda\xa4\x16A'
p6029
tp6030
Rp6031
ag3
(g7
S'jJ"A'
p6032
tp6033
Rp6034
asS'S000003646'
p6035
(lp6036
g3
(g7
S'\x97"\x81@'
p6037
tp6038
Rp6039
ag3
(g7
S'\xa1\xcb\xd0@'
p6040
tp6041
Rp6042
ag3
(g7
S'\xa1\xcb\xd0@'
p6043
tp6044
Rp6045
ag3
(g7
S'\x9b\xc5\xe1@'
p6046
tp6047
Rp6048
ag3
(g7
S'/?\xf4@'
p6049
tp6050
Rp6051
asS'S000001221'
p6052
(lp6053
g3
(g7
S'\xcc\xee\xb2?'
p6054
tp6055
Rp6056
ag3
(g7
S'\xcc\xee\xb2?'
p6057
tp6058
Rp6059
ag3
(g7
S'(\x8a\xe0?'
p6060
tp6061
Rp6062
ag3
(g7
S'\x95\xe0B@'
p6063
tp6064
Rp6065
ag3
(g7
S'\xfc&D@'
p6066
tp6067
Rp6068
ag3
(g7
S'Rh\xa7@'
p6069
tp6070
Rp6071
ag3
(g7
S'Rh\xa7@'
p6072
tp6073
Rp6074
ag3
(g7
S'Rh\xa7@'
p6075
tp6076
Rp6077
ag3
(g7
S'Rh\xa7@'
p6078
tp6079
Rp6080
ag3
(g7
S'|]\xaa@'
p6081
tp6082
Rp6083
ag3
(g7
S'\xf2?\xcc@'
p6084
tp6085
Rp6086
asS'S000004546'
p6087
(lp6088
g3
(g7
S'gf\x12A'
p6089
tp6090
Rp6091
ag3
(g7
S'e\n\x19A'
p6092
tp6093
Rp6094
ag3
(g7
S'\xdc\xa3,A'
p6095
tp6096
Rp6097
asS'S000002576'
p6098
(lp6099
g3
(g7
S'"\x05{>'
p6100
tp6101
Rp6102
ag3
(g7
S'\x08\xa7-?'
p6103
tp6104
Rp6105
ag3
(g7
S'\xc2\x92=?'
p6106
tp6107
Rp6108
ag3
(g7
S'hJc?'
p6109
tp6110
Rp6111
ag3
(g7
S'\x11\x11\xab?'
p6112
tp6113
Rp6114
ag3
(g7
S'\x81\xf9\xac?'
p6115
tp6116
Rp6117
ag3
(g7
S'_D\xae?'
p6118
tp6119
Rp6120
ag3
(g7
S'K\xfb\xdd?'
p6121
tp6122
Rp6123
ag3
(g7
S'f\n\xe0?'
p6124
tp6125
Rp6126
ag3
(g7
S'\x06\xbe\x0f@'
p6127
tp6128
Rp6129
ag3
(g7
S'\xb9\xd5!@'
p6130
tp6131
Rp6132
ag3
(g7
S'_\xef`@'
p6133
tp6134
Rp6135
ag3
(g7
S'\xa1\x9b\x85@'
p6136
tp6137
Rp6138
ag3
(g7
S'\xf6a\xbb@'
p6139
tp6140
Rp6141
ag3
(g7
S'\xff\x19\xcc@'
p6142
tp6143
Rp6144
ag3
(g7
S'\xbd\x1a\xd8@'
p6145
tp6146
Rp6147
ag3
(g7
S'\xfc\xc0\xe4@'
p6148
tp6149
Rp6150
ag3
(g7
S'\x98M\xff@'
p6151
tp6152
Rp6153
ag3
(g7
S'~G\x13A'
p6154
tp6155
Rp6156
ag3
(g7
S'\x1d\x93]A'
p6157
tp6158
Rp6159
asS'S000003481'
p6160
(lp6161
g3
(g7
S'\xc7\x90\x9f<'
p6162
tp6163
Rp6164
ag3
(g7
S'O\x8e\x8f='
p6165
tp6166
Rp6167
ag3
(g7
S'\xfd\x0e\x19>'
p6168
tp6169
Rp6170
ag3
(g7
S'\xb0\rG>'
p6171
tp6172
Rp6173
ag3
(g7
S'\\5o>'
p6174
tp6175
Rp6176
ag3
(g7
S'\xf4F\xe1>'
p6177
tp6178
Rp6179
ag3
(g7
S'<\xfe\xed>'
p6180
tp6181
Rp6182
ag3
(g7
S'\xc8\x96\x0b?'
p6183
tp6184
Rp6185
ag3
(g7
S'\x80\x89$?'
p6186
tp6187
Rp6188
ag3
(g7
S'\\l\x8a?'
p6189
tp6190
Rp6191
ag3
(g7
S'\xdcm\x8f?'
p6192
tp6193
Rp6194
ag3
(g7
S'\xba\xae\x97?'
p6195
tp6196
Rp6197
ag3
(g7
S'\x01\x15\xc4?'
p6198
tp6199
Rp6200
ag3
(g7
S'\xc4\x91\xcc?'
p6201
tp6202
Rp6203
ag3
(g7
S'\xf0\x94\xd4?'
p6204
tp6205
Rp6206
ag3
(g7
S'v0\xe4?'
p6207
tp6208
Rp6209
ag3
(g7
S'\x1a\xb4\x0c@'
p6210
tp6211
Rp6212
ag3
(g7
S'\xe2\x00\x0f@'
p6213
tp6214
Rp6215
ag3
(g7
S'\xbca\x11@'
p6216
tp6217
Rp6218
ag3
(g7
S'E\xb9%@'
p6219
tp6220
Rp6221
ag3
(g7
S'}\xb6C@'
p6222
tp6223
Rp6224
ag3
(g7
S'\xf9\xc8C@'
p6225
tp6226
Rp6227
ag3
(g7
S'\x8c\x0cQ@'
p6228
tp6229
Rp6230
ag3
(g7
S' \xf0c@'
p6231
tp6232
Rp6233
ag3
(g7
S'\x1a\xfcc@'
p6234
tp6235
Rp6236
ag3
(g7
S'\xde\x02h@'
p6237
tp6238
Rp6239
ag3
(g7
S'\x97.\x91@'
p6240
tp6241
Rp6242
ag3
(g7
S'P\xb9\xa4@'
p6243
tp6244
Rp6245
ag3
(g7
S'U\x81\xb9@'
p6246
tp6247
Rp6248
ag3
(g7
S'\r\x8e\xcf@'
p6249
tp6250
Rp6251
ag3
(g7
S'__&A'
p6252
tp6253
Rp6254
asS'S000003003'
p6255
(lp6256
g3
(g7
S'\xe4\xd3@?'
p6257
tp6258
Rp6259
ag3
(g7
S"\x88'\xed?"
p6260
tp6261
Rp6262
ag3
(g7
S'J9\n@'
p6263
tp6264
Rp6265
ag3
(g7
S'\xff\xa4\x15@'
p6266
tp6267
Rp6268
ag3
(g7
S'q\xcfD@'
p6269
tp6270
Rp6271
ag3
(g7
S'\xe9\xe9r@'
p6272
tp6273
Rp6274
ag3
(g7
S'\x82\t\xa0@'
p6275
tp6276
Rp6277
ag3
(g7
S'o\x9e\xce@'
p6278
tp6279
Rp6280
ag3
(g7
S'X\xf9\xef@'
p6281
tp6282
Rp6283
ag3
(g7
S's\x05\x06A'
p6284
tp6285
Rp6286
ag3
(g7
S'\xb8S&A'
p6287
tp6288
Rp6289
ag3
(g7
S'De(A'
p6290
tp6291
Rp6292
asS'S000003625'
p6293
(lp6294
g3
(g7
S'\xcc7C>'
p6295
tp6296
Rp6297
ag3
(g7
S'\x8a\x13\x17@'
p6298
tp6299
Rp6300
ag3
(g7
S'\xc9,\x8c@'
p6301
tp6302
Rp6303
ag3
(g7
S'p(\xc8@'
p6304
tp6305
Rp6306
ag3
(g7
S'\xdf\x1b\xe2@'
p6307
tp6308
Rp6309
ag3
(g7
S'l\x06\xe5@'
p6310
tp6311
Rp6312
ag3
(g7
S'\n\x07\xf9@'
p6313
tp6314
Rp6315
ag3
(g7
S'8\x14\x04A'
p6316
tp6317
Rp6318
ag3
(g7
S'\xce\x89\x0fA'
p6319
tp6320
Rp6321
ag3
(g7
S'<\x01\x12A'
p6322
tp6323
Rp6324
ag3
(g7
S';\xcc&A'
p6325
tp6326
Rp6327
asS'S000002264'
p6328
(lp6329
g3
(g7
S'9Fd?'
p6330
tp6331
Rp6332
ag3
(g7
S'\x80\xe2\xa7?'
p6333
tp6334
Rp6335
ag3
(g7
S'@k\xd4?'
p6336
tp6337
Rp6338
ag3
(g7
S'@k\xd4?'
p6339
tp6340
Rp6341
ag3
(g7
S'@k\xd4?'
p6342
tp6343
Rp6344
ag3
(g7
S'@k\xd4?'
p6345
tp6346
Rp6347
ag3
(g7
S'@k\xd4?'
p6348
tp6349
Rp6350
ag3
(g7
S'@k\xd4?'
p6351
tp6352
Rp6353
ag3
(g7
S'@k\xd4?'
p6354
tp6355
Rp6356
ag3
(g7
S'@k\xd4?'
p6357
tp6358
Rp6359
ag3
(g7
S'@k\xd4?'
p6360
tp6361
Rp6362
ag3
(g7
S'@k\xd4?'
p6363
tp6364
Rp6365
ag3
(g7
S',^\x12@'
p6366
tp6367
Rp6368
ag3
(g7
S',^\x12@'
p6369
tp6370
Rp6371
ag3
(g7
S'\x8c\xa2(@'
p6372
tp6373
Rp6374
ag3
(g7
S'\x8c\xa2(@'
p6375
tp6376
Rp6377
ag3
(g7
S'P\xaf9@'
p6378
tp6379
Rp6380
ag3
(g7
S'P\xaf9@'
p6381
tp6382
Rp6383
ag3
(g7
S'/\xa1O@'
p6384
tp6385
Rp6386
ag3
(g7
S'\xb0\xf3O@'
p6387
tp6388
Rp6389
ag3
(g7
S'\xb0\xf3O@'
p6390
tp6391
Rp6392
ag3
(g7
S'\xb0\xf3O@'
p6393
tp6394
Rp6395
ag3
(g7
S'\x9e\xc6Y@'
p6396
tp6397
Rp6398
ag3
(g7
S'\x8f\xe5e@'
p6399
tp6400
Rp6401
ag3
(g7
S'\x8f\xe5e@'
p6402
tp6403
Rp6404
ag3
(g7
S'\x8f\xe5e@'
p6405
tp6406
Rp6407
ag3
(g7
S'\x8f\xe5e@'
p6408
tp6409
Rp6410
ag3
(g7
S'\x8f\xe5e@'
p6411
tp6412
Rp6413
ag3
(g7
S'\x8f\xe5e@'
p6414
tp6415
Rp6416
ag3
(g7
S'b\xd3j@'
p6417
tp6418
Rp6419
ag3
(g7
S'\xa1b\x80@'
p6420
tp6421
Rp6422
ag3
(g7
S'\xa1b\x80@'
p6423
tp6424
Rp6425
ag3
(g7
S'\xe1\x8b\x80@'
p6426
tp6427
Rp6428
ag3
(g7
S'\xe1\x8b\x80@'
p6429
tp6430
Rp6431
ag3
(g7
S'\xe1\x8b\x80@'
p6432
tp6433
Rp6434
ag3
(g7
S'G\xf4\x85@'
p6435
tp6436
Rp6437
ag3
(g7
S'\xd1\x84\x8b@'
p6438
tp6439
Rp6440
ag3
(g7
S'\xd1\x84\x8b@'
p6441
tp6442
Rp6443
ag3
(g7
S'\xd1\x84\x8b@'
p6444
tp6445
Rp6446
ag3
(g7
S'\xd1\x84\x8b@'
p6447
tp6448
Rp6449
ag3
(g7
S'\xd1\x84\x8b@'
p6450
tp6451
Rp6452
ag3
(g7
S'\xd1\x84\x8b@'
p6453
tp6454
Rp6455
ag3
(g7
S'\xd1\x84\x8b@'
p6456
tp6457
Rp6458
ag3
(g7
S'\xd1\x84\x8b@'
p6459
tp6460
Rp6461
ag3
(g7
S'\xd1\x84\x8b@'
p6462
tp6463
Rp6464
ag3
(g7
S'\xd1\x84\x8b@'
p6465
tp6466
Rp6467
ag3
(g7
S'\xd1\x84\x8b@'
p6468
tp6469
Rp6470
ag3
(g7
S'\xd1\x84\x8b@'
p6471
tp6472
Rp6473
ag3
(g7
S'w\x16\x91@'
p6474
tp6475
Rp6476
ag3
(g7
S"'\xa0\x94@"
p6477
tp6478
Rp6479
ag3
(g7
S"'\xa0\x94@"
p6480
tp6481
Rp6482
ag3
(g7
S"'\xa0\x94@"
p6483
tp6484
Rp6485
ag3
(g7
S"'\xa0\x94@"
p6486
tp6487
Rp6488
ag3
(g7
S'W\xc2\x9f@'
p6489
tp6490
Rp6491
ag3
(g7
S'\xbd*\xa5@'
p6492
tp6493
Rp6494
ag3
(g7
S'G\xbb\xaa@'
p6495
tp6496
Rp6497
ag3
(g7
S'G\xbb\xaa@'
p6498
tp6499
Rp6500
ag3
(g7
S'G\xbb\xaa@'
p6501
tp6502
Rp6503
ag3
(g7
S'02\xad@'
p6504
tp6505
Rp6506
ag3
(g7
S'02\xad@'
p6507
tp6508
Rp6509
ag3
(g7
S'\xedL\xb0@'
p6510
tp6511
Rp6512
ag3
(g7
S' +\xb8@'
p6513
tp6514
Rp6515
ag3
(g7
S' +\xb8@'
p6516
tp6517
Rp6518
ag3
(g7
S' +\xb8@'
p6519
tp6520
Rp6521
ag3
(g7
S' +\xb8@'
p6522
tp6523
Rp6524
ag3
(g7
S'\xc6\xbc\xbd@'
p6525
tp6526
Rp6527
ag3
(g7
S'\xc6\xbc\xbd@'
p6528
tp6529
Rp6530
ag3
(g7
S'PM\xc3@'
p6531
tp6532
Rp6533
ag3
(g7
S'PM\xc3@'
p6534
tp6535
Rp6536
ag3
(g7
S'PM\xc3@'
p6537
tp6538
Rp6539
ag3
(g7
S'PM\xc3@'
p6540
tp6541
Rp6542
ag3
(g7
S'\x7f\xf5\xc3@'
p6543
tp6544
Rp6545
ag3
(g7
S'\xf6\xde\xc8@'
p6546
tp6547
Rp6548
ag3
(g7
S'n\xee\xce@'
p6549
tp6550
Rp6551
ag3
(g7
S'\x88\x87\xdc@'
p6552
tp6553
Rp6554
ag3
(g7
S'\x88\x87\xdc@'
p6555
tp6556
Rp6557
ag3
(g7
S'\x88\x87\xdc@'
p6558
tp6559
Rp6560
ag3
(g7
S'\x88\x87\xdc@'
p6561
tp6562
Rp6563
ag3
(g7
S'\x88\x87\xdc@'
p6564
tp6565
Rp6566
ag3
(g7
S'w\x80\xe7@'
p6567
tp6568
Rp6569
ag3
(g7
S'w\x80\xe7@'
p6570
tp6571
Rp6572
ag3
(g7
S'\xce\x9b\xf0@'
p6573
tp6574
Rp6575
ag3
(g7
S'\xce\x9b\xf0@'
p6576
tp6577
Rp6578
ag3
(g7
S'\xbd\x94\xfb@'
p6579
tp6580
Rp6581
ag3
(g7
S'\xfe\xbd\xfb@'
p6582
tp6583
Rp6584
ag3
(g7
S'\xfe\xbd\xfb@'
p6585
tp6586
Rp6587
ag3
(g7
S'w[\x03A'
p6588
tp6589
Rp6590
ag3
(g7
S'w[\x03A'
p6591
tp6592
Rp6593
ag3
(g7
S'\xeb\x96\x04A'
p6594
tp6595
Rp6596
ag3
(g7
S'c\x13\nA'
p6597
tp6598
Rp6599
ag3
(g7
S'c\x13\nA'
p6600
tp6601
Rp6602
ag3
(g7
S'\x03(\nA'
p6603
tp6604
Rp6605
ag3
(g7
S'\x03(\nA'
p6606
tp6607
Rp6608
ag3
(g7
S'{\xa4\x0fA'
p6609
tp6610
Rp6611
ag3
(g7
S'{\xa4\x0fA'
p6612
tp6613
Rp6614
ag3
(g7
S'{\xa4\x0fA'
p6615
tp6616
Rp6617
asS'S000005942'
p6618
(lp6619
g3
(g7
S'\xb2\x17V='
p6620
tp6621
Rp6622
ag3
(g7
S'F\xdao='
p6623
tp6624
Rp6625
ag3
(g7
S'\x05y\x08>'
p6626
tp6627
Rp6628
ag3
(g7
S'\xd8\xcaX>'
p6629
tp6630
Rp6631
ag3
(g7
S'\x00\x8c\xb8>'
p6632
tp6633
Rp6634
ag3
(g7
S'\xe6C\xcd>'
p6635
tp6636
Rp6637
ag3
(g7
S'(\xde\xd1>'
p6638
tp6639
Rp6640
ag3
(g7
S'\xa4W\xda>'
p6641
tp6642
Rp6643
ag3
(g7
S'\x1a\xc5\xf0>'
p6644
tp6645
Rp6646
ag3
(g7
S'4#\xf6>'
p6647
tp6648
Rp6649
ag3
(g7
S'\x0cZ\x0b?'
p6650
tp6651
Rp6652
ag3
(g7
S'\x1an(?'
p6653
tp6654
Rp6655
ag3
(g7
S'\xc9\x1b+?'
p6656
tp6657
Rp6658
ag3
(g7
S"\x1a'+?"
p6659
tp6660
Rp6661
ag3
(g7
S'\xe1E5?'
p6662
tp6663
Rp6664
ag3
(g7
S'ACK?'
p6665
tp6666
Rp6667
ag3
(g7
S'q\xc5T?'
p6668
tp6669
Rp6670
ag3
(g7
S'N\xe2T?'
p6671
tp6672
Rp6673
ag3
(g7
S'\xc3_d?'
p6674
tp6675
Rp6676
ag3
(g7
S'[\x1cv?'
p6677
tp6678
Rp6679
ag3
(g7
S'\xe7\xad\x82?'
p6680
tp6681
Rp6682
ag3
(g7
S'\x93\xa3\x8a?'
p6683
tp6684
Rp6685
ag3
(g7
S'Q\xbb\x8d?'
p6686
tp6687
Rp6688
ag3
(g7
S'\x95D\x8f?'
p6689
tp6690
Rp6691
ag3
(g7
S'\x14\x1f\x93?'
p6692
tp6693
Rp6694
ag3
(g7
S'\xf3\x85\xa9?'
p6695
tp6696
Rp6697
ag3
(g7
S'.l\xab?'
p6698
tp6699
Rp6700
ag3
(g7
S'Y\r\xad?'
p6701
tp6702
Rp6703
ag3
(g7
S'\xd8\xa8\xb6?'
p6704
tp6705
Rp6706
ag3
(g7
S'\xa0\xb8\xbd?'
p6707
tp6708
Rp6709
ag3
(g7
S'u\x9a\xbe?'
p6710
tp6711
Rp6712
ag3
(g7
S'\x86I\xbf?'
p6713
tp6714
Rp6715
ag3
(g7
S'\xb0\x88\xd9?'
p6716
tp6717
Rp6718
ag3
(g7
S'\xd3\x96\xde?'
p6719
tp6720
Rp6721
ag3
(g7
S'\xc4|\xfa?'
p6722
tp6723
Rp6724
ag3
(g7
S',\xdc\xfa?'
p6725
tp6726
Rp6727
ag3
(g7
S'9\x14\t@'
p6728
tp6729
Rp6730
ag3
(g7
S'\xfe\xdf\x11@'
p6731
tp6732
Rp6733
ag3
(g7
S'h2\x1d@'
p6734
tp6735
Rp6736
ag3
(g7
S'\xf6M\x1d@'
p6737
tp6738
Rp6739
ag3
(g7
S'\xbeD @'
p6740
tp6741
Rp6742
ag3
(g7
S'\x18\x1c#@'
p6743
tp6744
Rp6745
ag3
(g7
S'\xb4\x80-@'
p6746
tp6747
Rp6748
ag3
(g7
S'i2/@'
p6749
tp6750
Rp6751
ag3
(g7
S'J\xcc1@'
p6752
tp6753
Rp6754
ag3
(g7
S'(E2@'
p6755
tp6756
Rp6757
ag3
(g7
S'\xdeS5@'
p6758
tp6759
Rp6760
ag3
(g7
S'Aq@@'
p6761
tp6762
Rp6763
ag3
(g7
S'\x80\xc9G@'
p6764
tp6765
Rp6766
ag3
(g7
S'\xa7!I@'
p6767
tp6768
Rp6769
ag3
(g7
S'\xdb\xb8K@'
p6770
tp6771
Rp6772
ag3
(g7
S'yM\\@'
p6773
tp6774
Rp6775
ag3
(g7
S'\xc4Eq@'
p6776
tp6777
Rp6778
ag3
(g7
S'\xa8\xf1\x7f@'
p6779
tp6780
Rp6781
ag3
(g7
S'UN\x85@'
p6782
tp6783
Rp6784
ag3
(g7
S'<\xaf\x86@'
p6785
tp6786
Rp6787
ag3
(g7
S'V\xd4\x87@'
p6788
tp6789
Rp6790
ag3
(g7
S'a:\x96@'
p6791
tp6792
Rp6793
ag3
(g7
S'\xda\x14\xa3@'
p6794
tp6795
Rp6796
ag3
(g7
S'I=\xba@'
p6797
tp6798
Rp6799
ag3
(g7
S'e\xd6\xc0@'
p6800
tp6801
Rp6802
ag3
(g7
S'zC\xc1@'
p6803
tp6804
Rp6805
ag3
(g7
S'\xd9\x14\xea@'
p6806
tp6807
Rp6808
ag3
(g7
S'\x1b\x83\x0bA'
p6809
tp6810
Rp6811
ag3
(g7
S'\x13\xbf\x1eA'
p6812
tp6813
Rp6814
ag3
(g7
S'\xadj)A'
p6815
tp6816
Rp6817
asS'S000002711'
p6818
(lp6819
g3
(g7
S';\xe3V?'
p6820
tp6821
Rp6822
ag3
(g7
S'U+\xac?'
p6823
tp6824
Rp6825
ag3
(g7
S'6\t,@'
p6826
tp6827
Rp6828
ag3
(g7
S' {,@'
p6829
tp6830
Rp6831
ag3
(g7
S'(\xbcK@'
p6832
tp6833
Rp6834
ag3
(g7
S'\xa0V`@'
p6835
tp6836
Rp6837
ag3
(g7
S'z\x95\x89@'
p6838
tp6839
Rp6840
ag3
(g7
S'\xf2i\xa6@'
p6841
tp6842
Rp6843
ag3
(g7
S'?d\xd8@'
p6844
tp6845
Rp6846
ag3
(g7
S'\xa4\x93\xfb@'
p6847
tp6848
Rp6849
asS'S000000199'
p6850
(lp6851
g3
(g7
S'\x1b\t\xaa>'
p6852
tp6853
Rp6854
ag3
(g7
S'\x138&?'
p6855
tp6856
Rp6857
ag3
(g7
S'Y\xb2\x97?'
p6858
tp6859
Rp6860
ag3
(g7
S'{\x96\xd7?'
p6861
tp6862
Rp6863
ag3
(g7
S'\xc4E\x13@'
p6864
tp6865
Rp6866
ag3
(g7
S'W\xfbH@'
p6867
tp6868
Rp6869
ag3
(g7
S'2\xca\x8b@'
p6870
tp6871
Rp6872
ag3
(g7
S'\xe8h\x92@'
p6873
tp6874
Rp6875
asS'S000004489'
p6876
(lp6877
g3
(g7
S'p%\x97@'
p6878
tp6879
Rp6880
ag3
(g7
S'Ev\xdf@'
p6881
tp6882
Rp6883
ag3
(g7
S'^Y\xf9@'
p6884
tp6885
Rp6886
ag3
(g7
S'\xf4\xdf\x15A'
p6887
tp6888
Rp6889
ag3
(g7
S'\x8fH,A'
p6890
tp6891
Rp6892
ag3
(g7
S'\x04FEA'
p6893
tp6894
Rp6895
asS'S000004893'
p6896
(lp6897
g3
(g7
S'\xba\xe8\xdb@'
p6898
tp6899
Rp6900
ag3
(g7
S'v\xac\x01A'
p6901
tp6902
Rp6903
ag3
(g7
S'b\xd3\x0eA'
p6904
tp6905
Rp6906
ag3
(g7
S'^\x1b\x1cA'
p6907
tp6908
Rp6909
asS'S000002718'
p6910
(lp6911
g3
(g7
S'&A\xb8='
p6912
tp6913
Rp6914
ag3
(g7
S'\xac\x81\xf5='
p6915
tp6916
Rp6917
ag3
(g7
S'\xfa\xb6\xcb>'
p6918
tp6919
Rp6920
ag3
(g7
S'\x12\xd4\x06?'
p6921
tp6922
Rp6923
ag3
(g7
S'\x85\xc1\xae?'
p6924
tp6925
Rp6926
ag3
(g7
S'\xeeD\xf6?'
p6927
tp6928
Rp6929
ag3
(g7
S'M\x07\x0b@'
p6930
tp6931
Rp6932
ag3
(g7
S'd\x9c\r@'
p6933
tp6934
Rp6935
ag3
(g7
S'A\x14\x15@'
p6936
tp6937
Rp6938
ag3
(g7
S'\xba\xc4\x19@'
p6939
tp6940
Rp6941
ag3
(g7
S'Q\xa1H@'
p6942
tp6943
Rp6944
ag3
(g7
S'\xf1gN@'
p6945
tp6946
Rp6947
ag3
(g7
S'`\x02P@'
p6948
tp6949
Rp6950
ag3
(g7
S'P)r@'
p6951
tp6952
Rp6953
ag3
(g7
S'k\\y@'
p6954
tp6955
Rp6956
ag3
(g7
S'E\xaay@'
p6957
tp6958
Rp6959
ag3
(g7
S'E\xaay@'
p6960
tp6961
Rp6962
ag3
(g7
S'\xe9\xf8z@'
p6963
tp6964
Rp6965
ag3
(g7
S'+\xf3\x82@'
p6966
tp6967
Rp6968
ag3
(g7
S'\x85\x11\x86@'
p6969
tp6970
Rp6971
ag3
(g7
S'\xfb\xa6\x87@'
p6972
tp6973
Rp6974
ag3
(g7
S'?\x0c\x89@'
p6975
tp6976
Rp6977
ag3
(g7
S'Ta\x8a@'
p6978
tp6979
Rp6980
ag3
(g7
S'V\xa9\x91@'
p6981
tp6982
Rp6983
ag3
(g7
S'fq\x9c@'
p6984
tp6985
Rp6986
ag3
(g7
S'fq\x9c@'
p6987
tp6988
Rp6989
ag3
(g7
S'7\x8f\xb7@'
p6990
tp6991
Rp6992
ag3
(g7
S'7\x8f\xb7@'
p6993
tp6994
Rp6995
ag3
(g7
S"C'\xb8@"
p6996
tp6997
Rp6998
ag3
(g7
S'\x04\xff\xb8@'
p6999
tp7000
Rp7001
ag3
(g7
S'\x00\x0b\xc9@'
p7002
tp7003
Rp7004
ag3
(g7
S'w\x9c\xd3@'
p7005
tp7006
Rp7007
ag3
(g7
S'\xb9\x90\xe1@'
p7008
tp7009
Rp7010
ag3
(g7
S'\x97\xf8\xe1@'
p7011
tp7012
Rp7013
ag3
(g7
S'\x02\xd8\xe7@'
p7014
tp7015
Rp7016
ag3
(g7
S':o\xed@'
p7017
tp7018
Rp7019
ag3
(g7
S'\xde\xb4\xfd@'
p7020
tp7021
Rp7022
ag3
(g7
S'\xdd.\x00A'
p7023
tp7024
Rp7025
ag3
(g7
S'\xcf\xe7\x01A'
p7026
tp7027
Rp7028
ag3
(g7
S'o\x0f\nA'
p7029
tp7030
Rp7031
ag3
(g7
S'\x05\xe0\x14A'
p7032
tp7033
Rp7034
ag3
(g7
S'\xe9{\x18A'
p7035
tp7036
Rp7037
ag3
(g7
S'\xdb-\x1dA'
p7038
tp7039
Rp7040
ag3
(g7
S'\x8c\x00+A'
p7041
tp7042
Rp7043
ag3
(g7
S'Po+A'
p7044
tp7045
Rp7046
ag3
(g7
S'\xb0\xa9-A'
p7047
tp7048
Rp7049
ag3
(g7
S'\xdb-=A'
p7050
tp7051
Rp7052
asS'S000006219'
p7053
(lp7054
g3
(g7
S'\xc4$/?'
p7055
tp7056
Rp7057
ag3
(g7
S'\x8e\x94)@'
p7058
tp7059
Rp7060
ag3
(g7
S'\xb4@g@'
p7061
tp7062
Rp7063
asS'S000006049'
p7064
(lp7065
g3
(g7
S'\xa7\xe7\x13='
p7066
tp7067
Rp7068
ag3
(g7
S'D\xbd\x1c>'
p7069
tp7070
Rp7071
ag3
(g7
S"k\x92'?"
p7072
tp7073
Rp7074
ag3
(g7
S'\xa4\xb2F?'
p7075
tp7076
Rp7077
ag3
(g7
S'YU\xe9?'
p7078
tp7079
Rp7080
ag3
(g7
S'Uj\x06@'
p7081
tp7082
Rp7083
ag3
(g7
S'\xe7\xe0%@'
p7084
tp7085
Rp7086
ag3
(g7
S'y0(@'
p7087
tp7088
Rp7089
ag3
(g7
S'\x83\xfb@@'
p7090
tp7091
Rp7092
ag3
(g7
S'I\x8dM@'
p7093
tp7094
Rp7095
ag3
(g7
S'\x89\xfeP@'
p7096
tp7097
Rp7098
ag3
(g7
S'\x02\x82v@'
p7099
tp7100
Rp7101
ag3
(g7
S'\xe2\xc2\x85@'
p7102
tp7103
Rp7104
ag3
(g7
S'\xab\xf4\x89@'
p7105
tp7106
Rp7107
ag3
(g7
S'\x151\x95@'
p7108
tp7109
Rp7110
ag3
(g7
S'\xa9v\x99@'
p7111
tp7112
Rp7113
ag3
(g7
S'5W\xa4@'
p7114
tp7115
Rp7116
ag3
(g7
S'\x98\x14\xa6@'
p7117
tp7118
Rp7119
ag3
(g7
S'\xd1k\xa6@'
p7120
tp7121
Rp7122
ag3
(g7
S'n\x0b\xb2@'
p7123
tp7124
Rp7125
ag3
(g7
S'\x14\xe7\xb3@'
p7126
tp7127
Rp7128
ag3
(g7
S'\\\xc7\xbb@'
p7129
tp7130
Rp7131
ag3
(g7
S'\x06{\xca@'
p7132
tp7133
Rp7134
ag3
(g7
S'L\xbd\xce@'
p7135
tp7136
Rp7137
ag3
(g7
S'\x81\xcc\xd2@'
p7138
tp7139
Rp7140
ag3
(g7
S'\x02B\xda@'
p7141
tp7142
Rp7143
ag3
(g7
S'jp\x19A'
p7144
tp7145
Rp7146
ag3
(g7
S'A\xaa\x19A'
p7147
tp7148
Rp7149
asS'S000001873'
p7150
(lp7151
g3
(g7
S'H \xae@'
p7152
tp7153
Rp7154
ag3
(g7
S'N\xa5\xbf@'
p7155
tp7156
Rp7157
ag3
(g7
S'\xc0P\xcc@'
p7158
tp7159
Rp7160
ag3
(g7
S'\xa7\xe1\xd7@'
p7161
tp7162
Rp7163
asS'S000000354'
p7164
(lp7165
g3
(g7
S'\xa6\xfdT>'
p7166
tp7167
Rp7168
ag3
(g7
S'\xdbo\xa4>'
p7169
tp7170
Rp7171
ag3
(g7
S'\xdbo\xa4>'
p7172
tp7173
Rp7174
ag3
(g7
S'\x8f\xddN?'
p7175
tp7176
Rp7177
ag3
(g7
S'C\x97\xce?'
p7178
tp7179
Rp7180
ag3
(g7
S'C\x97\xce?'
p7181
tp7182
Rp7183
ag3
(g7
S'+\xb3\r@'
p7184
tp7185
Rp7186
ag3
(g7
S':P\x16@'
p7187
tp7188
Rp7189
ag3
(g7
S'\x96C\x9d@'
p7190
tp7191
Rp7192
asS'S000000692'
p7193
(lp7194
g3
(g7
S'\x1f\x89\xa9='
p7195
tp7196
Rp7197
ag3
(g7
S'\xaau\xad?'
p7198
tp7199
Rp7200
ag3
(g7
S'\xbb&\xbf?'
p7201
tp7202
Rp7203
ag3
(g7
S'x\xf06@'
p7204
tp7205
Rp7206
ag3
(g7
S'T\xbd?@'
p7207
tp7208
Rp7209
ag3
(g7
S'\x89fJ@'
p7210
tp7211
Rp7212
ag3
(g7
S')"t@'
p7213
tp7214
Rp7215
ag3
(g7
S'\x19x\x81@'
p7216
tp7217
Rp7218
ag3
(g7
S'\x9c\xec\x84@'
p7219
tp7220
Rp7221
ag3
(g7
S'\nS\x89@'
p7222
tp7223
Rp7224
ag3
(g7
S'\xc0s\x9d@'
p7225
tp7226
Rp7227
ag3
(g7
S'\x80\x95\xa3@'
p7228
tp7229
Rp7230
ag3
(g7
S'P\n\xb2@'
p7231
tp7232
Rp7233
ag3
(g7
S'\x88\x0b\xd2@'
p7234
tp7235
Rp7236
ag3
(g7
S';\xc9\xe6@'
p7237
tp7238
Rp7239
ag3
(g7
S'\xfa\xa6\rA'
p7240
tp7241
Rp7242
ag3
(g7
S'\t@\x15A'
p7243
tp7244
Rp7245
ag3
(g7
S'\x98\xcd2A'
p7246
tp7247
Rp7248
asS'S000006256'
p7249
(lp7250
g3
(g7
S'\xbc\xc7\x86<'
p7251
tp7252
Rp7253
ag3
(g7
S'o\xa8\xe9<'
p7254
tp7255
Rp7256
ag3
(g7
S'aH\x06='
p7257
tp7258
Rp7259
ag3
(g7
S'\x0b57='
p7260
tp7261
Rp7262
ag3
(g7
S'\xc2Jl='
p7263
tp7264
Rp7265
ag3
(g7
S'ry\x92='
p7266
tp7267
Rp7268
ag3
(g7
S'\xd9\xc6\xaf='
p7269
tp7270
Rp7271
ag3
(g7
S'\xf2\x88\xb1='
p7272
tp7273
Rp7274
ag3
(g7
S'\xa4\xaa\xd0='
p7275
tp7276
Rp7277
ag3
(g7
S'\x12c\xed='
p7278
tp7279
Rp7280
ag3
(g7
S"\xa5'\t>"
p7281
tp7282
Rp7283
ag3
(g7
S'\xbf{\t>'
p7284
tp7285
Rp7286
ag3
(g7
S'z\xcf\x0e>'
p7287
tp7288
Rp7289
ag3
(g7
S'\x1c\x81&>'
p7290
tp7291
Rp7292
ag3
(g7
S'\x1djC>'
p7293
tp7294
Rp7295
ag3
(g7
S'?\xdaR>'
p7296
tp7297
Rp7298
ag3
(g7
S'\xd9\xf2R>'
p7299
tp7300
Rp7301
ag3
(g7
S'(\xcfW>'
p7302
tp7303
Rp7304
ag3
(g7
S'9C\x8a>'
p7305
tp7306
Rp7307
ag3
(g7
S'\xb8T\xae>'
p7308
tp7309
Rp7310
ag3
(g7
S'\xcf\x86\xb1>'
p7311
tp7312
Rp7313
ag3
(g7
S'\x10\xba\xcf>'
p7314
tp7315
Rp7316
ag3
(g7
S'\x88\xef\xef>'
p7317
tp7318
Rp7319
ag3
(g7
S'\x7f1\xf3>'
p7320
tp7321
Rp7322
ag3
(g7
S'lC\xf4>'
p7323
tp7324
Rp7325
ag3
(g7
S'\xd7\x1d\x07?'
p7326
tp7327
Rp7328
ag3
(g7
S'.\xe0\x0e?'
p7329
tp7330
Rp7331
ag3
(g7
S'\xaf\xfa\x14?'
p7332
tp7333
Rp7334
ag3
(g7
S'*s\x17?'
p7335
tp7336
Rp7337
ag3
(g7
S'n\xdd\x1a?'
p7338
tp7339
Rp7340
ag3
(g7
S'\x9f\t\x1f?'
p7341
tp7342
Rp7343
ag3
(g7
S'\x08\x10\x1f?'
p7344
tp7345
Rp7346
ag3
(g7
S'\x958!?'
p7347
tp7348
Rp7349
ag3
(g7
S'\x92E$?'
p7350
tp7351
Rp7352
ag3
(g7
S'+\xd4%?'
p7353
tp7354
Rp7355
ag3
(g7
S"\xab\x9f'?"
p7356
tp7357
Rp7358
ag3
(g7
S'5jL?'
p7359
tp7360
Rp7361
ag3
(g7
S'\xa8WW?'
p7362
tp7363
Rp7364
ag3
(g7
S'B\xf8Y?'
p7365
tp7366
Rp7367
ag3
(g7
S'\x10XZ?'
p7368
tp7369
Rp7370
ag3
(g7
S'\xd2\xadf?'
p7371
tp7372
Rp7373
ag3
(g7
S'\x92\x1bh?'
p7374
tp7375
Rp7376
ag3
(g7
S'\x9c\xdco?'
p7377
tp7378
Rp7379
ag3
(g7
S'\x92\xbas?'
p7380
tp7381
Rp7382
ag3
(g7
S'\x98\xf7\x81?'
p7383
tp7384
Rp7385
ag3
(g7
S'w&\x84?'
p7386
tp7387
Rp7388
ag3
(g7
S'y\xad\x85?'
p7389
tp7390
Rp7391
ag3
(g7
S'\xeaq\x86?'
p7392
tp7393
Rp7394
ag3
(g7
S'1u\x89?'
p7395
tp7396
Rp7397
ag3
(g7
S'h\xe9\x89?'
p7398
tp7399
Rp7400
ag3
(g7
S'\xc1\x8f\x8a?'
p7401
tp7402
Rp7403
ag3
(g7
S'\xb37\x8e?'
p7404
tp7405
Rp7406
ag3
(g7
S'\x0c\xa6\x8e?'
p7407
tp7408
Rp7409
ag3
(g7
S'\xce\xa5\x91?'
p7410
tp7411
Rp7412
ag3
(g7
S'\t`\x94?'
p7413
tp7414
Rp7415
ag3
(g7
S'\xac\x18\x99?'
p7416
tp7417
Rp7418
ag3
(g7
S'V\xe5\x9d?'
p7419
tp7420
Rp7421
ag3
(g7
S'\xdaS\x9f?'
p7422
tp7423
Rp7424
ag3
(g7
S'\xc4\xc4\xa4?'
p7425
tp7426
Rp7427
ag3
(g7
S'\xfc\xc3\xa9?'
p7428
tp7429
Rp7430
ag3
(g7
S'\x80\xfa\xa9?'
p7431
tp7432
Rp7433
ag3
(g7
S' \xab\xad?'
p7434
tp7435
Rp7436
ag3
(g7
S'3\x88\xb1?'
p7437
tp7438
Rp7439
ag3
(g7
S'\xae<\xb2?'
p7440
tp7441
Rp7442
ag3
(g7
S'\xc8\xdd\xb2?'
p7443
tp7444
Rp7445
ag3
(g7
S'\x0bS\xb8?'
p7446
tp7447
Rp7448
ag3
(g7
S'S\n\xb9?'
p7449
tp7450
Rp7451
ag3
(g7
S'n[\xbd?'
p7452
tp7453
Rp7454
ag3
(g7
S'\xc3\x17\xbe?'
p7455
tp7456
Rp7457
ag3
(g7
S'\xae6\xbf?'
p7458
tp7459
Rp7460
ag3
(g7
S'\x84\xf2\xc0?'
p7461
tp7462
Rp7463
ag3
(g7
S'r\xf4\xc2?'
p7464
tp7465
Rp7466
ag3
(g7
S'<)\xc4?'
p7467
tp7468
Rp7469
ag3
(g7
S'B\xa6\xc4?'
p7470
tp7471
Rp7472
ag3
(g7
S'`\xa1\xc7?'
p7473
tp7474
Rp7475
ag3
(g7
S'\x12K\xcb?'
p7476
tp7477
Rp7478
ag3
(g7
S'\x99\xd0\xd4?'
p7479
tp7480
Rp7481
ag3
(g7
S']`\xd8?'
p7482
tp7483
Rp7484
ag3
(g7
S'9\xaa\xef?'
p7485
tp7486
Rp7487
ag3
(g7
S'L\x19\xf4?'
p7488
tp7489
Rp7490
ag3
(g7
S'\x14\x0c\xf5?'
p7491
tp7492
Rp7493
ag3
(g7
S'\x98\xc2\xfa?'
p7494
tp7495
Rp7496
ag3
(g7
S'\xe6]\xff?'
p7497
tp7498
Rp7499
ag3
(g7
S'\xb9l\x00@'
p7500
tp7501
Rp7502
ag3
(g7
S'\x89:\x07@'
p7503
tp7504
Rp7505
ag3
(g7
S'\xdbA\x0c@'
p7506
tp7507
Rp7508
ag3
(g7
S'\x01\xe4\r@'
p7509
tp7510
Rp7511
ag3
(g7
S'\x1d\xea\x0e@'
p7512
tp7513
Rp7514
ag3
(g7
S'\x0eO\x12@'
p7515
tp7516
Rp7517
ag3
(g7
S'\xaf@\x13@'
p7518
tp7519
Rp7520
ag3
(g7
S'6/\x18@'
p7521
tp7522
Rp7523
ag3
(g7
S'2\x19\x1a@'
p7524
tp7525
Rp7526
ag3
(g7
S'\xf8C\x1d@'
p7527
tp7528
Rp7529
ag3
(g7
S'\xc8\x0c\x1e@'
p7530
tp7531
Rp7532
ag3
(g7
S'\x8ev @'
p7533
tp7534
Rp7535
ag3
(g7
S'\x03y!@'
p7536
tp7537
Rp7538
ag3
(g7
S'D\xf0!@'
p7539
tp7540
Rp7541
ag3
(g7
S't\x90"@'
p7542
tp7543
Rp7544
ag3
(g7
S'\xe6\xe5$@'
p7545
tp7546
Rp7547
ag3
(g7
S'\x0f\xf9$@'
p7548
tp7549
Rp7550
ag3
(g7
S'\x9bh&@'
p7551
tp7552
Rp7553
ag3
(g7
S"\x1f\x9a'@"
p7554
tp7555
Rp7556
ag3
(g7
S'\xbb\xc9*@'
p7557
tp7558
Rp7559
ag3
(g7
S'\xff\xe0+@'
p7560
tp7561
Rp7562
ag3
(g7
S'\xe1\xf3,@'
p7563
tp7564
Rp7565
ag3
(g7
S'u!-@'
p7566
tp7567
Rp7568
ag3
(g7
S'5\x0b/@'
p7569
tp7570
Rp7571
ag3
(g7
S'P\xc42@'
p7572
tp7573
Rp7574
ag3
(g7
S'\xb9\x1e6@'
p7575
tp7576
Rp7577
ag3
(g7
S';39@'
p7578
tp7579
Rp7580
ag3
(g7
S',\xcf9@'
p7581
tp7582
Rp7583
ag3
(g7
S'\x910=@'
p7584
tp7585
Rp7586
ag3
(g7
S'\x13E?@'
p7587
tp7588
Rp7589
ag3
(g7
S'b9B@'
p7590
tp7591
Rp7592
ag3
(g7
S'\x81\xdfD@'
p7593
tp7594
Rp7595
ag3
(g7
S'\xddMF@'
p7596
tp7597
Rp7598
ag3
(g7
S'\xd0\x0cG@'
p7599
tp7600
Rp7601
ag3
(g7
S'+dT@'
p7602
tp7603
Rp7604
ag3
(g7
S'\n\xb0X@'
p7605
tp7606
Rp7607
ag3
(g7
S'\x14\xdbZ@'
p7608
tp7609
Rp7610
ag3
(g7
S'#o`@'
p7611
tp7612
Rp7613
ag3
(g7
S'\x1d\x8fd@'
p7614
tp7615
Rp7616
ag3
(g7
S'Szh@'
p7617
tp7618
Rp7619
ag3
(g7
S'g\x9fr@'
p7620
tp7621
Rp7622
ag3
(g7
S'\xc7\xd7w@'
p7623
tp7624
Rp7625
ag3
(g7
S'\xc4\xf9|@'
p7626
tp7627
Rp7628
ag3
(g7
S'*\x1f\x84@'
p7629
tp7630
Rp7631
ag3
(g7
S'\xb7\x87\x84@'
p7632
tp7633
Rp7634
ag3
(g7
S'8\xde\x88@'
p7635
tp7636
Rp7637
ag3
(g7
S'\xdb\xce\x8b@'
p7638
tp7639
Rp7640
ag3
(g7
S'\xdf\xa0\x8f@'
p7641
tp7642
Rp7643
ag3
(g7
S'\xb4\xd8\x90@'
p7644
tp7645
Rp7646
ag3
(g7
S'\xb1\x8c\x92@'
p7647
tp7648
Rp7649
ag3
(g7
S'y+\x93@'
p7650
tp7651
Rp7652
ag3
(g7
S'\x88\x90\x93@'
p7653
tp7654
Rp7655
ag3
(g7
S'9\xe6\x9a@'
p7656
tp7657
Rp7658
ag3
(g7
S'\xe5\x1c\x9d@'
p7659
tp7660
Rp7661
ag3
(g7
S'\x83\x84\x9e@'
p7662
tp7663
Rp7664
ag3
(g7
S'\xfe\xff\xa1@'
p7665
tp7666
Rp7667
ag3
(g7
S'\xa3\xfd\xa4@'
p7668
tp7669
Rp7670
ag3
(g7
S'J*\xa5@'
p7671
tp7672
Rp7673
ag3
(g7
S'\x90!\xa7@'
p7674
tp7675
Rp7676
ag3
(g7
S'S\xc1\xac@'
p7677
tp7678
Rp7679
ag3
(g7
S'\xaa\xcb\xae@'
p7680
tp7681
Rp7682
ag3
(g7
S'\x8fN\xb3@'
p7683
tp7684
Rp7685
ag3
(g7
S'\x9f\x15\xb4@'
p7686
tp7687
Rp7688
ag3
(g7
S'\xc1\xb2\xb7@'
p7689
tp7690
Rp7691
ag3
(g7
S'U\xd9\xb9@'
p7692
tp7693
Rp7694
ag3
(g7
S'\xfe\xf8\xba@'
p7695
tp7696
Rp7697
ag3
(g7
S'\x13x\xbd@'
p7698
tp7699
Rp7700
ag3
(g7
S'p\xa0\xc6@'
p7701
tp7702
Rp7703
ag3
(g7
S'\xf5\x18\xd2@'
p7704
tp7705
Rp7706
ag3
(g7
S'\x08X\xd6@'
p7707
tp7708
Rp7709
ag3
(g7
S'3\x1b\xe2@'
p7710
tp7711
Rp7712
ag3
(g7
S'[q\xea@'
p7713
tp7714
Rp7715
ag3
(g7
S'\xb5;\x03A'
p7716
tp7717
Rp7718
ag3
(g7
S'\x1f\x15\x11A'
p7719
tp7720
Rp7721
ag3
(g7
S'=\xec\x13A'
p7722
tp7723
Rp7724
ag3
(g7
S'_\xb2CA'
p7725
tp7726
Rp7727
asS'S000005864'
p7728
(lp7729
g3
(g7
S'\xadk~@'
p7730
tp7731
Rp7732
asS'S000004088'
p7733
(lp7734
g3
(g7
S'\xe7\x8d\x17A'
p7735
tp7736
Rp7737
asS'S000004246'
p7738
(lp7739
g3
(g7
S'\x19J\xb5?'
p7740
tp7741
Rp7742
ag3
(g7
S'\xca\xb7E@'
p7743
tp7744
Rp7745
ag3
(g7
S'\xef(i@'
p7746
tp7747
Rp7748
ag3
(g7
S'\xa3\xad\xa2@'
p7749
tp7750
Rp7751
ag3
(g7
S'\xa3\xad\xa2@'
p7752
tp7753
Rp7754
ag3
(g7
S'\xa3\xad\xa2@'
p7755
tp7756
Rp7757
ag3
(g7
S'\xa3\xad\xa2@'
p7758
tp7759
Rp7760
asS'S000004003'
p7761
(lp7762
g3
(g7
S'\xd1o\x1e='
p7763
tp7764
Rp7765
ag3
(g7
S'\x8b\x7f{='
p7766
tp7767
Rp7768
ag3
(g7
S'(e\x88>'
p7769
tp7770
Rp7771
ag3
(g7
S'\x86\xa4\x97>'
p7772
tp7773
Rp7774
ag3
(g7
S'\xf7\x19\xa9>'
p7775
tp7776
Rp7777
ag3
(g7
S'\xfb\xf0\xc5>'
p7778
tp7779
Rp7780
ag3
(g7
S'\x87;\xcc>'
p7781
tp7782
Rp7783
ag3
(g7
S'I\x1a\xd9>'
p7784
tp7785
Rp7786
ag3
(g7
S'eJ\n?'
p7787
tp7788
Rp7789
ag3
(g7
S'\xa4\x19\x11?'
p7790
tp7791
Rp7792
ag3
(g7
S'[\x1e"?'
p7793
tp7794
Rp7795
ag3
(g7
S'\xe6\x13#?'
p7796
tp7797
Rp7798
ag3
(g7
S' \xac1?'
p7799
tp7800
Rp7801
ag3
(g7
S'\xe4\xcf9?'
p7802
tp7803
Rp7804
ag3
(g7
S'\t\xa0@?'
p7805
tp7806
Rp7807
ag3
(g7
S'\xcdbV?'
p7808
tp7809
Rp7810
ag3
(g7
S'\x93\xf5d?'
p7811
tp7812
Rp7813
ag3
(g7
S'\xbb\x1en?'
p7814
tp7815
Rp7816
ag3
(g7
S'\xfa\xa3\x84?'
p7817
tp7818
Rp7819
ag3
(g7
S'\x7f\xf3\x84?'
p7820
tp7821
Rp7822
ag3
(g7
S'j\x85\x87?'
p7823
tp7824
Rp7825
ag3
(g7
S'\xfc\xdb\x87?'
p7826
tp7827
Rp7828
ag3
(g7
S'\xf3|\x8d?'
p7829
tp7830
Rp7831
ag3
(g7
S'"\x84\x98?'
p7832
tp7833
Rp7834
ag3
(g7
S'\xe2\xfb\x9d?'
p7835
tp7836
Rp7837
ag3
(g7
S'>t\xad?'
p7838
tp7839
Rp7840
ag3
(g7
S'\xad\t\xb4?'
p7841
tp7842
Rp7843
ag3
(g7
S'\xf5%\xb6?'
p7844
tp7845
Rp7846
ag3
(g7
S'\x14\x01\xb8?'
p7847
tp7848
Rp7849
ag3
(g7
S'm{\xb8?'
p7850
tp7851
Rp7852
ag3
(g7
S'(\x92\xb8?'
p7853
tp7854
Rp7855
ag3
(g7
S'o\xfe\xbd?'
p7856
tp7857
Rp7858
ag3
(g7
S'b~\xd6?'
p7859
tp7860
Rp7861
ag3
(g7
S'\xaa\xfc\xda?'
p7862
tp7863
Rp7864
ag3
(g7
S'\xeb\x18\xe1?'
p7865
tp7866
Rp7867
ag3
(g7
S'\xee\xaf\xe7?'
p7868
tp7869
Rp7870
ag3
(g7
S'd\xce\xef?'
p7871
tp7872
Rp7873
ag3
(g7
S'|\x08\xf9?'
p7874
tp7875
Rp7876
ag3
(g7
S'\xd8\x00\xfe?'
p7877
tp7878
Rp7879
ag3
(g7
S'\xa4D\x03@'
p7880
tp7881
Rp7882
ag3
(g7
S'i>\x0e@'
p7883
tp7884
Rp7885
ag3
(g7
S'\xc7\xbd\x14@'
p7886
tp7887
Rp7888
ag3
(g7
S'\xa0\xd7\x17@'
p7889
tp7890
Rp7891
ag3
(g7
S'\xf1\xfb\x1d@'
p7892
tp7893
Rp7894
ag3
(g7
S'\x98G\x1f@'
p7895
tp7896
Rp7897
ag3
(g7
S'\xa59/@'
p7898
tp7899
Rp7900
ag3
(g7
S'[$2@'
p7901
tp7902
Rp7903
ag3
(g7
S'\x90U3@'
p7904
tp7905
Rp7906
ag3
(g7
S'Hn9@'
p7907
tp7908
Rp7909
ag3
(g7
S'\x0c\xa2;@'
p7910
tp7911
Rp7912
ag3
(g7
S'\xe8$>@'
p7913
tp7914
Rp7915
ag3
(g7
S'XSE@'
p7916
tp7917
Rp7918
ag3
(g7
S'\x8b\x1bO@'
p7919
tp7920
Rp7921
ag3
(g7
S'\x062V@'
p7922
tp7923
Rp7924
ag3
(g7
S'\xaeR^@'
p7925
tp7926
Rp7927
ag3
(g7
S'\xeb.d@'
p7928
tp7929
Rp7930
ag3
(g7
S'\x7f\xfel@'
p7931
tp7932
Rp7933
ag3
(g7
S'\xfa\x9bv@'
p7934
tp7935
Rp7936
ag3
(g7
S'WBw@'
p7937
tp7938
Rp7939
ag3
(g7
S'\xa8\xe2x@'
p7940
tp7941
Rp7942
ag3
(g7
S'\xd7\x8cz@'
p7943
tp7944
Rp7945
ag3
(g7
S'\x04\x01\x87@'
p7946
tp7947
Rp7948
ag3
(g7
S'a\x8c\x87@'
p7949
tp7950
Rp7951
ag3
(g7
S'\t\x89\x90@'
p7952
tp7953
Rp7954
ag3
(g7
S'\xe7\x16\x9d@'
p7955
tp7956
Rp7957
ag3
(g7
S'\x89\xe1\xa7@'
p7958
tp7959
Rp7960
ag3
(g7
S'\xae\xde\xa8@'
p7961
tp7962
Rp7963
ag3
(g7
S'V\xc9\xb2@'
p7964
tp7965
Rp7966
ag3
(g7
S'v+\xb6@'
p7967
tp7968
Rp7969
ag3
(g7
S'\x13\x15\xbe@'
p7970
tp7971
Rp7972
ag3
(g7
S'\x1al\x0eA'
p7973
tp7974
Rp7975
ag3
(g7
S'9/\x14A'
p7976
tp7977
Rp7978
as.