(dp0
S'S000001592'
p1
(lp2
cnumpy.core.multiarray
scalar
p3
(cnumpy
dtype
p4
(S'f4'
p5
I0
I1
tp6
Rp7
(I3
S'<'
p8
NNNI-1
I-1
I0
tp9
bS'\x82!6A'
p10
tp11
Rp12
ag3
(g7
S'\x93y;A'
p13
tp14
Rp15
asS'S000001593'
p16
(lp17
g3
(g7
S'\n}\rA'
p18
tp19
Rp20
asS'S000002253'
p21
(lp22
g3
(g7
S'\xc0jQA'
p23
tp24
Rp25
asS'S000001597'
p26
(lp27
g3
(g7
S'GD1A'
p28
tp29
Rp30
asS'S000005971'
p31
(lp32
g3
(g7
S'\xcbs:A'
p33
tp34
Rp35
asS'S000005754'
p36
(lp37
g3
(g7
S'I[<A'
p38
tp39
Rp40
asS'S000000631'
p41
(lp42
g3
(g7
S'\xbf?:A'
p43
tp44
Rp45
asS'S000004621'
p46
(lp47
g3
(g7
S'\x88\x8cBA'
p48
tp49
Rp50
asS'S000005619'
p51
(lp52
g3
(g7
S'\x93\xaeFA'
p53
tp54
Rp55
asS'S000005751'
p56
(lp57
g3
(g7
S'\xe8Y2A'
p58
tp59
Rp60
ag3
(g7
S'IE7A'
p61
tp62
Rp63
asS'S000005752'
p64
(lp65
g3
(g7
S'\xdasOA'
p66
tp67
Rp68
ag3
(g7
S'\x1c2QA'
p69
tp70
Rp71
asS'S000005753'
p72
(lp73
g3
(g7
S'\xdasOA'
p74
tp75
Rp76
ag3
(g7
S'\x1c2QA'
p77
tp78
Rp79
asS'S000001603'
p80
(lp81
g3
(g7
S'\xcb,3A'
p82
tp83
Rp84
ag3
(g7
S'\x0eKWA'
p85
tp86
Rp87
asS'S000000203'
p88
(lp89
g3
(g7
S'\xa1\x00-A'
p90
tp91
Rp92
asS'S000002486'
p93
(lp94
g3
(g7
S'\x819KA'
p95
tp96
Rp97
asS'S000000205'
p98
(lp99
g3
(g7
S'W\x87$A'
p100
tp101
Rp102
asS'S000000207'
p103
(lp104
g3
(g7
S'W\x87$A'
p105
tp106
Rp107
asS'S000007222'
p108
(lp109
g3
(g7
S'E\xe8\x17A'
p110
tp111
Rp112
ag3
(g7
S'o\xc5;A'
p113
tp114
Rp115
ag3
(g7
S'-qUA'
p116
tp117
Rp118
asS'S000000208'
p119
(lp120
g3
(g7
S'Q\x90"A'
p121
tp122
Rp123
ag3
(g7
S'\x8f EA'
p124
tp125
Rp126
asS'S000001609'
p127
(lp128
g3
(g7
S'\xd7=>A'
p129
tp130
Rp131
ag3
(g7
S'\xc9\x17AA'
p132
tp133
Rp134
asS'S000002840'
p135
(lp136
g3
(g7
S'\xf7}QA'
p137
tp138
Rp139
ag3
(g7
S'\xcc\x8cUA'
p140
tp141
Rp142
asS'S000002843'
p143
(lp144
g3
(g7
S'\x80 0A'
p145
tp146
Rp147
asS'S000005610'
p148
(lp149
g3
(g7
S'IE7A'
p150
tp151
Rp152
asS'S000028541'
p153
(lp154
g3
(g7
S'b\xf7YA'
p155
tp156
Rp157
asS'S000028542'
p158
(lp159
g3
(g7
S'D\x8c\x1eA'
p160
tp161
Rp162
asS'S000028546'
p163
(lp164
g3
(g7
S'\x95\x91<A'
p165
tp166
Rp167
asS'S000005687'
p168
(lp169
g3
(g7
S'\xdel=A'
p170
tp171
Rp172
asS'S000005684'
p173
(lp174
g3
(g7
S'\x14\xaaNA'
p175
tp176
Rp177
asS'S000005682'
p178
(lp179
g3
(g7
S'\x14\xaaNA'
p180
tp181
Rp182
asS'S000003250'
p183
(lp184
g3
(g7
S'U++A'
p185
tp186
Rp187
asS'S000005681'
p188
(lp189
g3
(g7
S'\x8b\r)A'
p190
tp191
Rp192
asS'S000000630'
p193
(lp194
g3
(g7
S'x\xc4_A'
p195
tp196
Rp197
asS'S000005274'
p198
(lp199
g3
(g7
S'\x85\xc7LA'
p200
tp201
Rp202
asS'S000005273'
p203
(lp204
g3
(g7
S':\xa0+A'
p205
tp206
Rp207
asS'S000001288'
p208
(lp209
g3
(g7
S'\xd1\xdeFA'
p210
tp211
Rp212
asS'S000002419'
p213
(lp214
g3
(g7
S'\x93\xaeFA'
p215
tp216
Rp217
asS'S000001287'
p218
(lp219
g3
(g7
S'\xd1\xdeFA'
p220
tp221
Rp222
asS'S000004673'
p223
(lp224
g3
(g7
S'\xd1\xfdLA'
p225
tp226
Rp227
ag3
(g7
S'+wTA'
p228
tp229
Rp230
asS'S000004674'
p231
(lp232
g3
(g7
S'\xfbn%A'
p233
tp234
Rp235
ag3
(g7
S'\x0c\xd9&A'
p236
tp237
Rp238
asS'S000001283'
p239
(lp240
g3
(g7
S'\xd9\x13-A'
p241
tp242
Rp243
asS'S000005371'
p244
(lp245
g3
(g7
S'\xb8\x17@A'
p246
tp247
Rp248
asS'S000003239'
p249
(lp250
g3
(g7
S'\x80 0A'
p251
tp252
Rp253
asS'S000028645'
p254
(lp255
g3
(g7
S'\x18z>A'
p256
tp257
Rp258
asS'S000002737'
p259
(lp260
g3
(g7
S'Rs\x18A'
p261
tp262
Rp263
asS'S000003237'
p264
(lp265
g3
(g7
S'\x80 0A'
p266
tp267
Rp268
asS'S000005186'
p269
(lp270
g3
(g7
S'\xa0~5A'
p271
tp272
Rp273
asS'S000006311'
p274
(lp275
g3
(g7
S'\xfb9\x1aA'
p276
tp277
Rp278
asS'S000003230'
p279
(lp280
g3
(g7
S'\xe4\x1eQA'
p281
tp282
Rp283
asS'S000005106'
p284
(lp285
g3
(g7
S'\xe1@@A'
p286
tp287
Rp288
asS'S000005299'
p289
(lp290
g3
(g7
S'\xe9\x80 A'
p291
tp292
Rp293
asS'S000001105'
p294
(lp295
g3
(g7
S'\x1f\x8a[A'
p296
tp297
Rp298
asS'S000006250'
p299
(lp300
g3
(g7
S'\x819KA'
p301
tp302
Rp303
asS'S000005188'
p304
(lp305
g3
(g7
S'\xde\x88-A'
p306
tp307
Rp308
ag3
(g7
S'\x97\xd1EA'
p309
tp310
Rp311
asS'S000001857'
p312
(lp313
g3
(g7
S'\x1e\xd3NA'
p314
tp315
Rp316
asS'S000001856'
p317
(lp318
g3
(g7
S'\xf7}QA'
p319
tp320
Rp321
ag3
(g7
S'\xcc\x8cUA'
p322
tp323
Rp324
asS'S000001505'
p325
(lp326
g3
(g7
S'U++A'
p327
tp328
Rp329
asS'S000000701'
p330
(lp331
g3
(g7
S'\x94N>A'
p332
tp333
Rp334
ag3
(g7
S'\xe4\x1eQA'
p335
tp336
Rp337
asS'S000001506'
p338
(lp339
g3
(g7
S'\x19\xa5UA'
p340
tp341
Rp342
asS'S000001698'
p343
(lp344
g3
(g7
S'\xbc\x08\x14A'
p345
tp346
Rp347
ag3
(g7
S'\x88\x8cBA'
p348
tp349
Rp350
asS'S000004033'
p351
(lp352
g3
(g7
S'\x94N>A'
p353
tp354
Rp355
asS'S000001911'
p356
(lp357
g3
(g7
S'\xe8Y2A'
p358
tp359
Rp360
ag3
(g7
S'\x85\x92AA'
p361
tp362
Rp363
ag3
(g7
S',\xbaHA'
p364
tp365
Rp366
asS'S000001690'
p367
(lp368
g3
(g7
S'\xa258A'
p369
tp370
Rp371
asS'S000001692'
p372
(lp373
g3
(g7
S'\xa258A'
p374
tp375
Rp376
asS'S000000339'
p377
(lp378
g3
(g7
S'\x9a\r>A'
p379
tp380
Rp381
asS'S000000338'
p382
(lp383
g3
(g7
S'\x9a\r>A'
p384
tp385
Rp386
asS'S000005817'
p387
(lp388
g3
(g7
S'\xf6@,A'
p389
tp390
Rp391
asS'S000005193'
p392
(lp393
g3
(g7
S'TH5A'
p394
tp395
Rp396
asS'S000007229'
p397
(lp398
g3
(g7
S'\x91x5A'
p399
tp400
Rp401
asS'S000003734'
p402
(lp403
g3
(g7
S'\xa258A'
p404
tp405
Rp406
ag3
(g7
S'\x1c\xd2HA'
p407
tp408
Rp409
asS'S000003735'
p410
(lp411
g3
(g7
S'\xa258A'
p412
tp413
Rp414
ag3
(g7
S'\x1c\xd2HA'
p415
tp416
Rp417
asS'S000000437'
p418
(lp419
g3
(g7
S'{\xab/A'
p420
tp421
Rp422
asS'S000002849'
p423
(lp424
g3
(g7
S'\x819KA'
p425
tp426
Rp427
asS'S000005199'
p428
(lp429
g3
(g7
S'z\xa5HA'
p430
tp431
Rp432
asS'S000004065'
p433
(lp434
g3
(g7
S'\xd3\xdfLA'
p435
tp436
Rp437
asS'S000006030'
p438
(lp439
g3
(g7
S'\x96\xed5A'
p440
tp441
Rp442
asS'S000003123'
p443
(lp444
g3
(g7
S'\xe5@+A'
p445
tp446
Rp447
asS'S000005755'
p448
(lp449
g3
(g7
S'I[<A'
p450
tp451
Rp452
asS'S000003124'
p453
(lp454
g3
(g7
S'\x92\x97;A'
p455
tp456
Rp457
asS'S000002844'
p458
(lp459
g3
(g7
S'\x80 0A'
p460
tp461
Rp462
asS'S000003281'
p463
(lp464
g3
(g7
S'\x94N>A'
p465
tp466
Rp467
asS'S000005853'
p468
(lp469
g3
(g7
S'c\xd8BA'
p470
tp471
Rp472
asS'S000005998'
p473
(lp474
g3
(g7
S'\xd9\x13-A'
p475
tp476
Rp477
asS'S000000142'
p478
(lp479
g3
(g7
S'\xfe\xf1,A'
p480
tp481
Rp482
asS'S000000143'
p483
(lp484
g3
(g7
S'\xfe\xf1,A'
p485
tp486
Rp487
asS'S000000140'
p488
(lp489
g3
(g7
S'\xa1\x00-A'
p490
tp491
Rp492
asS'S000000141'
p493
(lp494
g3
(g7
S'\xa1\x00-A'
p495
tp496
Rp497
asS'S000005993'
p498
(lp499
g3
(g7
S'\xe0#JA'
p500
tp501
Rp502
asS'S000000538'
p503
(lp504
g3
(g7
S'j\xddeA'
p505
tp506
Rp507
asS'S000001821'
p508
(lp509
g3
(g7
S'9^NA'
p510
tp511
Rp512
asS'S000005996'
p513
(lp514
g3
(g7
S'\xf0@UA'
p515
tp516
Rp517
asS'S000002942'
p518
(lp519
g3
(g7
S'\xc6\xfe9A'
p520
tp521
Rp522
asS'S000004524'
p523
(lp524
g3
(g7
S'\xcb,3A'
p525
tp526
Rp527
asS'S000004034'
p528
(lp529
g3
(g7
S'\xcb,3A'
p530
tp531
Rp532
asS'S000004035'
p533
(lp534
g3
(g7
S'W\x87$A'
p535
tp536
Rp537
asS'S000001438'
p538
(lp539
g3
(g7
S'\x91x5A'
p540
tp541
Rp542
ag3
(g7
S'\xe4\x1eQA'
p543
tp544
Rp545
asS'S000001003'
p546
(lp547
g3
(g7
S'\xf4F+A'
p548
tp549
Rp550
asS'S000004917'
p551
(lp552
g3
(g7
S'\x07\\\x1eA'
p553
tp554
Rp555
asS'S000002140'
p556
(lp557
g3
(g7
S'\xdc\xcb?A'
p558
tp559
Rp560
ag3
(g7
S'\x87\xaaBA'
p561
tp562
Rp563
ag3
(g7
S'\xceQKA'
p564
tp565
Rp566
asS'S000004039'
p567
(lp568
g3
(g7
S'\x91x5A'
p569
tp570
Rp571
asS'S000000210'
p572
(lp573
g3
(g7
S'Q\x90"A'
p574
tp575
Rp576
ag3
(g7
S'\x8f EA'
p577
tp578
Rp579
asS'S000003344'
p580
(lp581
g3
(g7
S'E\xa3)A'
p582
tp583
Rp584
asS'S000004879'
p585
(lp586
g3
(g7
S'\xa2\xda.A'
p587
tp588
Rp589
asS'S000006109'
p590
(lp591
g3
(g7
S"'\xbfAA"
p592
tp593
Rp594
asS'S000001241'
p595
(lp596
g3
(g7
S'\xd3\xdfLA'
p597
tp598
Rp599
asS'S000000129'
p600
(lp601
g3
(g7
S'S\xcf\x11A'
p602
tp603
Rp604
ag3
(g7
S'\x80\x04@A'
p605
tp606
Rp607
asS'S000003114'
p608
(lp609
g3
(g7
S'\x88\xabHA'
p610
tp611
Rp612
asS'S000001205'
p613
(lp614
g3
(g7
S'\x8e\xc0"A'
p615
tp616
Rp617
asS'S000005534'
p618
(lp619
g3
(g7
S'b\xf7YA'
p620
tp621
Rp622
asS'S000005535'
p623
(lp624
g3
(g7
S'\xe2Y[A'
p625
tp626
Rp627
asS'S000005867'
p628
(lp629
g3
(g7
S'\x1c\xd2HA'
p630
tp631
Rp632
asS'S000003946'
p633
(lp634
g3
(g7
S'Wa<A'
p635
tp636
Rp637
asS'S000003945'
p638
(lp639
g3
(g7
S'\xdc\xcb?A'
p640
tp641
Rp642
asS'S000003944'
p643
(lp644
g3
(g7
S'\xdc\xcb?A'
p645
tp646
Rp647
asS'S000006539'
p648
(lp649
g3
(g7
S'\x84\xd4/A'
p650
tp651
Rp652
asS'S000003942'
p653
(lp654
g3
(g7
S'\xd9>DA'
p655
tp656
Rp657
asS'S000003941'
p658
(lp659
g3
(g7
S'/r[A'
p660
tp661
Rp662
asS'S000004320'
p663
(lp664
g3
(g7
S'7\xbc/A'
p665
tp666
Rp667
asS'S000004758'
p668
(lp669
g3
(g7
S'\xa2\xda.A'
p670
tp671
Rp672
asS'S000004326'
p673
(lp674
g3
(g7
S'\xdasOA'
p675
tp676
Rp677
ag3
(g7
S'\x1f\x8a[A'
p678
tp679
Rp680
asS'S000001137'
p681
(lp682
g3
(g7
S'\x1c2QA'
p683
tp684
Rp685
asS'S000004459'
p686
(lp687
g3
(g7
S'Y\xbd5A'
p688
tp689
Rp690
asS'S000004328'
p691
(lp692
g3
(g7
S'{\xab/A'
p693
tp694
Rp695
asS'S000005241'
p696
(lp697
g3
(g7
S'2Y+A'
p698
tp699
Rp700
asS'S000002592'
p701
(lp702
g3
(g7
S'\xf0\x0bJA'
p703
tp704
Rp705
asS'S000004016'
p706
(lp707
g3
(g7
S'\t!\x14A'
p708
tp709
Rp710
ag3
(g7
S'\xfe&8A'
p711
tp712
Rp713
asS'S000001318'
p714
(lp715
g3
(g7
S'o\xc5;A'
p716
tp717
Rp718
asS'S000005320'
p719
(lp720
g3
(g7
S'\xdasOA'
p721
tp722
Rp723
asS'S000002443'
p724
(lp725
g3
(g7
S'TH5A'
p726
tp727
Rp728
asS'S000005324'
p729
(lp730
g3
(g7
S'+wTA'
p731
tp732
Rp733
asS'S000002447'
p734
(lp735
g3
(g7
S'\x956)A'
p736
tp737
Rp738
asS'S000005326'
p739
(lp740
g3
(g7
S';tBA'
p741
tp742
Rp743
asS'S000004142'
p744
(lp745
g3
(g7
S'\xde\x88-A'
p746
tp747
Rp748
asS'S000002448'
p749
(lp750
g3
(g7
S'\x956)A'
p751
tp752
Rp753
asS'S000001312'
p754
(lp755
g3
(g7
S'\xdf\xa1HA'
p756
tp757
Rp758
asS'S000000246'
p759
(lp760
g3
(g7
S'\xe1@@A'
p761
tp762
Rp763
asS'S000000240'
p764
(lp765
g3
(g7
S'\x96\x92BA'
p766
tp767
Rp768
asS'S000001093'
p769
(lp770
g3
(g7
S'\x94\xf34A'
p771
tp772
Rp773
asS'S000001489'
p774
(lp775
g3
(g7
S'\xa5\xb8?A'
p776
tp777
Rp778
asS'S000000566'
p779
(lp780
g3
(g7
S'\xa2\xda.A'
p781
tp782
Rp783
asS'S000004646'
p784
(lp785
g3
(g7
S'\xc9\x17AA'
p786
tp787
Rp788
asS'S000001724'
p789
(lp790
g3
(g7
S'\xcb,3A'
p791
tp792
Rp793
asS'S000007592'
p794
(lp795
g3
(g7
S'\x91x5A'
p796
tp797
Rp798
asS'S000007593'
p799
(lp800
g3
(g7
S'Tt\x1eA'
p801
tp802
Rp803
asS'S000004295'
p804
(lp805
g3
(g7
S'4\xd4*A'
p806
tp807
Rp808
ag3
(g7
S'\xd1\xdeFA'
p809
tp810
Rp811
asS'S000000568'
p812
(lp813
g3
(g7
S'\x88\x06<A'
p814
tp815
Rp816
asS'S000000569'
p817
(lp818
g3
(g7
S'\x88\x06<A'
p819
tp820
Rp821
asS'S000000914'
p822
(lp823
g3
(g7
S'L?8A'
p824
tp825
Rp826
ag3
(g7
S'9^NA'
p827
tp828
Rp829
asS'S000006629'
p830
(lp831
g3
(g7
S'\x92\x97;A'
p832
tp833
Rp834
ag3
(g7
S'\xceQKA'
p835
tp836
Rp837
asS'S000006744'
p838
(lp839
g3
(g7
S'\xad"1A'
p840
tp841
Rp842
asS'S000006622'
p843
(lp844
g3
(g7
S"\xf3'%A"
p845
tp846
Rp847
asS'S000006748'
p848
(lp849
g3
(g7
S'\xa258A'
p850
tp851
Rp852
asS'S000000961'
p853
(lp854
g3
(g7
S'Y\x88*A'
p855
tp856
Rp857
asS'S000003831'
p858
(lp859
g3
(g7
S'\xc5\xf8RA'
p860
tp861
Rp862
asS'S000003839'
p863
(lp864
g3
(g7
S'Rs\x18A'
p865
tp866
Rp867
ag3
(g7
S')\xe71A'
p868
tp869
Rp870
ag3
(g7
S'\xd3\xdfLA'
p871
tp872
Rp873
asS'S000003838'
p874
(lp875
g3
(g7
S')\xe71A'
p876
tp877
Rp878
asS'S000005408'
p879
(lp880
g3
(g7
S'2\x8e6A'
p881
tp882
Rp883
asS'S000005030'
p884
(lp885
g3
(g7
S'\x90\xf63A'
p886
tp887
Rp888
asS'S000000805'
p889
(lp890
g3
(g7
S'\xd7=>A'
p891
tp892
Rp893
asS'S000003935'
p894
(lp895
g3
(g7
S')\xe71A'
p896
tp897
Rp898
asS'S000002208'
p899
(lp900
g3
(g7
S'\xdc,4A'
p901
tp902
Rp903
asS'S000005884'
p904
(lp905
g3
(g7
S':?7A'
p906
tp907
Rp908
asS'S000005271'
p909
(lp910
g3
(g7
S':\xa0+A'
p911
tp912
Rp913
asS'S000005143'
p914
(lp915
g3
(g7
S'5\xa6;A'
p916
tp917
Rp918
asS'S000002367'
p919
(lp920
g3
(g7
S'\x90;"A'
p921
tp922
Rp923
asS'S000002203'
p924
(lp925
g3
(g7
S'\x9f;7A'
p926
tp927
Rp928
asS'S000005665'
p929
(lp930
g3
(g7
S'p\xdd<A'
p931
tp932
Rp933
asS'S000005666'
p934
(lp935
g3
(g7
S'\x1c2QA'
p936
tp937
Rp938
asS'S000002207'
p939
(lp940
g3
(g7
S'\xc3\xf7LA'
p941
tp942
Rp943
asS'S000001545'
p944
(lp945
g3
(g7
S'K\xa10A'
p946
tp947
Rp948
asS'S000000664'
p949
(lp950
g3
(g7
S'\x0eKWA'
p951
tp952
Rp953
asS'S000000151'
p954
(lp955
g3
(g7
S'\x1c2QA'
p956
tp957
Rp958
asS'S000000669'
p959
(lp960
g3
(g7
S'M\x9b1A'
p961
tp962
Rp963
ag3
(g7
S'\xd7=>A'
p964
tp965
Rp966
asS'S000000981'
p967
(lp968
g3
(g7
S'\xdf\xe4FA'
p969
tp970
Rp971
asS'S000000986'
p972
(lp973
g3
(g7
S'\x06=\x18A'
p974
tp975
Rp976
asS'S000000987'
p977
(lp978
g3
(g7
S'\x06=\x18A'
p979
tp980
Rp981
asS'S000000150'
p982
(lp983
g3
(g7
S'\x1c2QA'
p984
tp985
Rp986
asS'S000028691'
p987
(lp988
g3
(g7
S'o\xfaFA'
p989
tp990
Rp991
ag3
(g7
S'o\xfaFA'
p992
tp993
Rp994
asS'S000028692'
p995
(lp996
g3
(g7
S'\x1c\xd2HA'
p997
tp998
Rp999
asS'S000028696'
p1000
(lp1001
g3
(g7
S'\xd9\x13-A'
p1002
tp1003
Rp1004
asS'S000028698'
p1005
(lp1006
g3
(g7
S'\xd3\x7fDA'
p1007
tp1008
Rp1009
asS'S000028510'
p1010
(lp1011
g3
(g7
S'\x1f\x8a[A'
p1012
tp1013
Rp1014
asS'S000002839'
p1015
(lp1016
g3
(g7
S'?^%A'
p1017
tp1018
Rp1019
ag3
(g7
S'\xf7}QA'
p1020
tp1021
Rp1022
ag3
(g7
S'\xcc\x8cUA'
p1023
tp1024
Rp1025
asS'S000002681'
p1026
(lp1027
g3
(g7
S'\xd1\xdeFA'
p1028
tp1029
Rp1030
asS'S000002566'
p1031
(lp1032
g3
(g7
S'\xa2\xf3IA'
p1033
tp1034
Rp1035
asS'S000005711'
p1036
(lp1037
g3
(g7
S'9^NA'
p1038
tp1039
Rp1040
asS'S000005712'
p1041
(lp1042
g3
(g7
S'9^NA'
p1043
tp1044
Rp1045
asS'S000002565'
p1046
(lp1047
g3
(g7
S'\xc0jQA'
p1048
tp1049
Rp1050
asS'S000005715'
p1051
(lp1052
g3
(g7
S'\x0bp*A'
p1053
tp1054
Rp1055
asS'S000006361'
p1056
(lp1057
g3
(g7
S'o\xc5;A'
p1058
tp1059
Rp1060
asS'S000002701'
p1061
(lp1062
g3
(g7
S'E\xa3)A'
p1063
tp1064
Rp1065
asS'S000005819'
p1066
(lp1067
g3
(g7
S'S\xcf\x11A'
p1068
tp1069
Rp1070
ag3
(g7
S'5\xa6;A'
p1071
tp1072
Rp1073
asS'S000000010'
p1074
(lp1075
g3
(g7
S'\xa5\xb8?A'
p1076
tp1077
Rp1078
asS'S000006363'
p1079
(lp1080
g3
(g7
S'\x8f EA'
p1081
tp1082
Rp1083
asS'S000028852'
p1084
(lp1085
g3
(g7
S'q\xbf<A'
p1086
tp1087
Rp1088
asS'S000000183'
p1089
(lp1090
g3
(g7
S'\xce\xe4EA'
p1091
tp1092
Rp1093
asS'S000002705'
p1094
(lp1095
g3
(g7
S'2Y+A'
p1096
tp1097
Rp1098
asS'S000006360'
p1099
(lp1100
g3
(g7
S'o\xc5;A'
p1101
tp1102
Rp1103
asS'S000000012'
p1104
(lp1105
g3
(g7
S'\xa5\xb8?A'
p1106
tp1107
Rp1108
asS'S000003242'
p1109
(lp1110
g3
(g7
S'\xfe&8A'
p1111
tp1112
Rp1113
asS'S000005818'
p1114
(lp1115
g3
(g7
S'S\xcf\x11A'
p1116
tp1117
Rp1118
asS'S000001313'
p1119
(lp1120
g3
(g7
S'\xdf\xa1HA'
p1121
tp1122
Rp1123
asS'S000005816'
p1124
(lp1125
g3
(g7
S'\xf6@,A'
p1126
tp1127
Rp1128
asS'S000001050'
p1129
(lp1130
g3
(g7
S'W,1A'
p1131
tp1132
Rp1133
asS'S000005812'
p1134
(lp1135
g3
(g7
S'Y\x88*A'
p1136
tp1137
Rp1138
asS'S000005811'
p1139
(lp1140
g3
(g7
S'Y\x88*A'
p1141
tp1142
Rp1143
asS'S000005810'
p1144
(lp1145
g3
(g7
S'\xad"1A'
p1146
tp1147
Rp1148
asS'S000000349'
p1149
(lp1150
g3
(g7
S'\x96\xed5A'
p1151
tp1152
Rp1153
asS'S000000344'
p1154
(lp1155
g3
(g7
S'\xdel=A'
p1156
tp1157
Rp1158
asS'S000000439'
p1159
(lp1160
g3
(g7
S'\x88\xabHA'
p1161
tp1162
Rp1163
asS'S000000340'
p1164
(lp1165
g3
(g7
S'>X>A'
p1166
tp1167
Rp1168
asS'S000000341'
p1169
(lp1170
g3
(g7
S'\xee\nDA'
p1171
tp1172
Rp1173
asS'S000000523'
p1174
(lp1175
g3
(g7
S'\xf7}QA'
p1176
tp1177
Rp1178
ag3
(g7
S'\xcc\x8cUA'
p1179
tp1180
Rp1181
asS'S000000876'
p1182
(lp1183
g3
(g7
S'\x8f\xdf(A'
p1184
tp1185
Rp1186
asS'S000003593'
p1187
(lp1188
g3
(g7
S'\x05eKA'
p1189
tp1190
Rp1191
asS'S000003647'
p1192
(lp1193
g3
(g7
S'Y\xbd5A'
p1194
tp1195
Rp1196
asS'S000003767'
p1197
(lp1198
g3
(g7
S'v\xed5A'
p1199
tp1200
Rp1201
asS'S000000434'
p1202
(lp1203
g3
(g7
S'\x9f;7A'
p1204
tp1205
Rp1206
asS'S000005728'
p1207
(lp1208
g3
(g7
S'\xa2\xda.A'
p1209
tp1210
Rp1211
asS'S000004815'
p1212
(lp1213
g3
(g7
S':?7A'
p1214
tp1215
Rp1216
asS'S000003386'
p1217
(lp1218
g3
(g7
S'g%SA'
p1219
tp1220
Rp1221
asS'S000006140'
p1222
(lp1223
g3
(g7
S'\x0e5 A'
p1224
tp1225
Rp1226
asS'S000006142'
p1227
(lp1228
g3
(g7
S'\xfd\xca\x1eA'
p1229
tp1230
Rp1231
asS'S000005785'
p1232
(lp1233
g3
(g7
S'9^NA'
p1234
tp1235
Rp1236
asS'S000000430'
p1237
(lp1238
g3
(g7
S'\xd3\xdfLA'
p1239
tp1240
Rp1241
asS'S000003599'
p1242
(lp1243
g3
(g7
S'S\xcf\x11A'
p1244
tp1245
Rp1246
asS'S000003982'
p1247
(lp1248
g3
(g7
S'\xdc\xcb?A'
p1249
tp1250
Rp1251
asS'S000003548'
p1252
(lp1253
g3
(g7
S'\x80\xd9(A'
p1254
tp1255
Rp1256
ag3
(g7
S'U++A'
p1257
tp1258
Rp1259
asS'S000003987'
p1260
(lp1261
g3
(g7
S'\x91x5A'
p1262
tp1263
Rp1264
asS'S000005868'
p1265
(lp1266
g3
(g7
S'\x1c\xd2HA'
p1267
tp1268
Rp1269
asS'S000004084'
p1270
(lp1271
g3
(g7
S'\xa0~5A'
p1272
tp1273
Rp1274
asS'S000004081'
p1275
(lp1276
g3
(g7
S'\x80\xd9(A'
p1277
tp1278
Rp1279
asS'S000001508'
p1280
(lp1281
g3
(g7
S'\x19\xa5UA'
p1282
tp1283
Rp1284
asS'S000004366'
p1285
(lp1286
g3
(g7
S'\xcbWJA'
p1287
tp1288
Rp1289
asS'S000000110'
p1290
(lp1291
g3
(g7
S':?7A'
p1292
tp1293
Rp1294
asS'S000004365'
p1295
(lp1296
g3
(g7
S'\xcbWJA'
p1297
tp1298
Rp1299
asS'S000003856'
p1300
(lp1301
g3
(g7
S'\xc3\xf7LA'
p1302
tp1303
Rp1304
asS'S000002177'
p1305
(lp1306
g3
(g7
S'U++A'
p1307
tp1308
Rp1309
asS'S000004715'
p1310
(lp1311
g3
(g7
S'\x83\xf2/A'
p1312
tp1313
Rp1314
asS'S000004714'
p1315
(lp1316
g3
(g7
S'T\x10`A'
p1317
tp1318
Rp1319
ag3
(g7
S'T\x10`A'
p1320
tp1321
Rp1322
asS'S000004712'
p1323
(lp1324
g3
(g7
S'\x80\xd9(A'
p1325
tp1326
Rp1327
asS'S000003494'
p1328
(lp1329
g3
(g7
S'\xdc\xcb?A'
p1330
tp1331
Rp1332
asS'S000003491'
p1333
(lp1334
g3
(g7
S'\xa258A'
p1335
tp1336
Rp1337
asS'S000003490'
p1338
(lp1339
g3
(g7
S'H&1A'
p1340
tp1341
Rp1342
asS'S000003492'
p1343
(lp1344
g3
(g7
S'H&1A'
p1345
tp1346
Rp1347
asS'S000005597'
p1348
(lp1349
g3
(g7
S':?7A'
p1350
tp1351
Rp1352
asS'S000005047'
p1353
(lp1354
g3
(g7
S'}&/A'
p1355
tp1356
Rp1357
asS'S000004102'
p1358
(lp1359
g3
(g7
S'Tt\x1eA'
p1360
tp1361
Rp1362
ag3
(g7
S'\xa0~5A'
p1363
tp1364
Rp1365
asS'S000005593'
p1366
(lp1367
g3
(g7
S'1w+A'
p1368
tp1369
Rp1370
asS'S000005590'
p1371
(lp1372
g3
(g7
S'\xba\x11AA'
p1373
tp1374
Rp1375
asS'S000001401'
p1376
(lp1377
g3
(g7
S'\xee\nDA'
p1378
tp1379
Rp1380
asS'S000001765'
p1381
(lp1382
g3
(g7
S'-qUA'
p1383
tp1384
Rp1385
asS'S000001764'
p1386
(lp1387
g3
(g7
S'\xa1\x00-A'
p1388
tp1389
Rp1390
asS'S000000838'
p1391
(lp1392
g3
(g7
S'o\xfaFA'
p1393
tp1394
Rp1395
ag3
(g7
S'o\xfaFA'
p1396
tp1397
Rp1398
asS'S000000839'
p1399
(lp1400
g3
(g7
S'\xc0jQA'
p1401
tp1402
Rp1403
asS'S000005048'
p1404
(lp1405
g3
(g7
S'}&/A'
p1406
tp1407
Rp1408
asS'S000001763'
p1409
(lp1410
g3
(g7
S'\x0e5 A'
p1411
tp1412
Rp1413
asS'S000001762'
p1414
(lp1415
g3
(g7
S'\x0e5 A'
p1416
tp1417
Rp1418
ag3
(g7
S'\xa1\x00-A'
p1419
tp1420
Rp1421
asS'S000002417'
p1422
(lp1423
g3
(g7
S'\xee\nDA'
p1424
tp1425
Rp1426
asS'S000004889'
p1427
(lp1428
g3
(g7
S'\xe4\x1eQA'
p1429
tp1430
Rp1431
asS'S000004888'
p1432
(lp1433
g3
(g7
S'Y\x88*A'
p1434
tp1435
Rp1436
ag3
(g7
S'p\xdd<A'
p1437
tp1438
Rp1439
ag3
(g7
S'\xe4\x1eQA'
p1440
tp1441
Rp1442
asS'S000002359'
p1443
(lp1444
g3
(g7
S'\x0eKWA'
p1445
tp1446
Rp1447
asS'S000004885'
p1448
(lp1449
g3
(g7
S'\xd9\x13-A'
p1450
tp1451
Rp1452
asS'S000004968'
p1453
(lp1454
g3
(g7
S'\t\xbdUA'
p1455
tp1456
Rp1457
asS'S000003440'
p1458
(lp1459
g3
(g7
S'\xa0~5A'
p1460
tp1461
Rp1462
asS'S000002661'
p1463
(lp1464
g3
(g7
S'j\xddeA'
p1465
tp1466
Rp1467
asS'S000003441'
p1468
(lp1469
g3
(g7
S'\x87\xaaBA'
p1470
tp1471
Rp1472
asS'S000004927'
p1473
(lp1474
g3
(g7
S'{\xab/A'
p1475
tp1476
Rp1477
ag3
(g7
S'\xee\nDA'
p1478
tp1479
Rp1480
asS'S000006668'
p1481
(lp1482
g3
(g7
S'\xfc\x95\x13A'
p1483
tp1484
Rp1485
asS'S000004560'
p1486
(lp1487
g3
(g7
S'\x1c2QA'
p1488
tp1489
Rp1490
asS'S000004561'
p1491
(lp1492
g3
(g7
S'\x1c2QA'
p1493
tp1494
Rp1495
asS'S000001169'
p1496
(lp1497
g3
(g7
S'Y\xbd5A'
p1498
tp1499
Rp1500
asS'S000005014'
p1501
(lp1502
g3
(g7
S'U++A'
p1503
tp1504
Rp1505
asS'S000004564'
p1506
(lp1507
g3
(g7
S'\x8e\xc0"A'
p1508
tp1509
Rp1510
asS'S000004566'
p1511
(lp1512
g3
(g7
S'\xd3\xdfLA'
p1513
tp1514
Rp1515
asS'S000004569'
p1516
(lp1517
g3
(g7
S'\xd3\xdfLA'
p1518
tp1519
Rp1520
asS'S000004407'
p1521
(lp1522
g3
(g7
S'\x1f\x8a[A'
p1523
tp1524
Rp1525
asS'S000004406'
p1526
(lp1527
g3
(g7
S'\x1f\x8a[A'
p1528
tp1529
Rp1530
asS'S000003366'
p1531
(lp1532
g3
(g7
S'Y\xbd5A'
p1533
tp1534
Rp1535
asS'S000003919'
p1536
(lp1537
g3
(g7
S'U++A'
p1538
tp1539
Rp1540
asS'S000001580'
p1541
(lp1542
g3
(g7
S'\xd3\x7fDA'
p1543
tp1544
Rp1545
asS'S000004618'
p1546
(lp1547
g3
(g7
S'\xc3\xf7LA'
p1548
tp1549
Rp1550
asS'S000004619'
p1551
(lp1552
g3
(g7
S'\x19W$A'
p1553
tp1554
Rp1555
ag3
(g7
S'\xc3\xf7LA'
p1556
tp1557
Rp1558
ag3
(g7
S'\xf0@UA'
p1559
tp1560
Rp1561
asS'S000005747'
p1562
(lp1563
g3
(g7
S'\x88\xabHA'
p1564
tp1565
Rp1566
asS'S000000629'
p1567
(lp1568
g3
(g7
S'\x91x5A'
p1569
tp1570
Rp1571
asS'S000005219'
p1572
(lp1573
g3
(g7
S'\x8f\xdf(A'
p1574
tp1575
Rp1576
asS'S000002127'
p1577
(lp1578
g3
(g7
S'\x85\x92AA'
p1579
tp1580
Rp1581
asS'S000004549'
p1582
(lp1583
g3
(g7
S'IzBA'
p1584
tp1585
Rp1586
asS'S000002350'
p1587
(lp1588
g3
(g7
S'/r[A'
p1589
tp1590
Rp1591
asS'S000002870'
p1592
(lp1593
g3
(g7
S'\xdc\xcb?A'
p1594
tp1595
Rp1596
asS'S000001610'
p1597
(lp1598
g3
(g7
S'\x80\xd9(A'
p1599
tp1600
Rp1601
asS'S000004588'
p1602
(lp1603
g3
(g7
S'\xbc\x12GA'
p1604
tp1605
Rp1606
asS'S000001612'
p1607
(lp1608
g3
(g7
S'\x85N)A'
p1609
tp1610
Rp1611
asS'S000000111'
p1612
(lp1613
g3
(g7
S'\xf7g\x1aA'
p1614
tp1615
Rp1616
ag3
(g7
S'>X>A'
p1617
tp1618
Rp1619
asS'S000004582'
p1620
(lp1621
g3
(g7
S'\x1c2QA'
p1622
tp1623
Rp1624
asS'S000004583'
p1625
(lp1626
g3
(g7
S'\xcb,3A'
p1627
tp1628
Rp1629
asS'S000004580'
p1630
(lp1631
g3
(g7
S'\x1c2QA'
p1632
tp1633
Rp1634
asS'S000007235'
p1635
(lp1636
g3
(g7
S'\x80\xd9(A'
p1637
tp1638
Rp1639
asS'S000004584'
p1640
(lp1641
g3
(g7
S'\tV\x1fA'
p1642
tp1643
Rp1644
asS'S000001396'
p1645
(lp1646
g3
(g7
S'\x91x5A'
p1647
tp1648
Rp1649
asS'S000028551'
p1650
(lp1651
g3
(g7
S'A\x946A'
p1652
tp1653
Rp1654
asS'S000006711'
p1655
(lp1656
g3
(g7
S'9^NA'
p1657
tp1658
Rp1659
asS'S000005691'
p1660
(lp1661
g3
(g7
S'\x9a\r>A'
p1662
tp1663
Rp1664
asS'S000007628'
p1665
(lp1666
g3
(g7
S'b\xf7YA'
p1667
tp1668
Rp1669
ag3
(g7
S'\xe2Y[A'
p1670
tp1671
Rp1672
asS'S000028558'
p1673
(lp1674
g3
(g7
S'?^%A'
p1675
tp1676
Rp1677
asS'S000005477'
p1678
(lp1679
g3
(g7
S'\x0eKWA'
p1680
tp1681
Rp1682
asS'S000000939'
p1683
(lp1684
g3
(g7
S'\xe8Y2A'
p1685
tp1686
Rp1687
ag3
(g7
S'\xf0\x0bJA'
p1688
tp1689
Rp1690
asS'S000004707'
p1691
(lp1692
g3
(g7
S'\xc0jQA'
p1693
tp1694
Rp1695
asS'S000004669'
p1696
(lp1697
g3
(g7
S'\xa1\x00-A'
p1698
tp1699
Rp1700
asS'S000001294'
p1701
(lp1702
g3
(g7
S'\xf7}QA'
p1703
tp1704
Rp1705
ag3
(g7
S'\xcc\x8cUA'
p1706
tp1707
Rp1708
asS'S000003800'
p1709
(lp1710
g3
(g7
S'\x18\xfb*A'
p1711
tp1712
Rp1713
asS'S000003801'
p1714
(lp1715
g3
(g7
S'\x1e\xd3NA'
p1716
tp1717
Rp1718
asS'S000003806'
p1719
(lp1720
g3
(g7
S'\x97\x06QA'
p1721
tp1722
Rp1723
asS'S000003807'
p1724
(lp1725
g3
(g7
S'\x97\x06QA'
p1726
tp1727
Rp1728
asS'S000001292'
p1729
(lp1730
g3
(g7
S'\x80\xd9(A'
p1731
tp1732
Rp1733
asS'S000003752'
p1734
(lp1735
g3
(g7
S'r96A'
p1736
tp1737
Rp1738
asS'S000003750'
p1739
(lp1740
g3
(g7
S'r96A'
p1741
tp1742
Rp1743
asS'S000004185'
p1744
(lp1745
g3
(g7
S'\xba\x11AA'
p1746
tp1747
Rp1748
asS'S000028632'
p1749
(lp1750
g3
(g7
S'E\xa3)A'
p1751
tp1752
Rp1753
ag3
(g7
S'\x1c2QA'
p1754
tp1755
Rp1756
asS'S000001929'
p1757
(lp1758
g3
(g7
S'H&1A'
p1759
tp1760
Rp1761
ag3
(g7
S'\x82\x0f:A'
p1762
tp1763
Rp1764
asS'S000003206'
p1765
(lp1766
g3
(g7
S'?^%A'
p1767
tp1768
Rp1769
asS'S000003207'
p1770
(lp1771
g3
(g7
S',\xbaHA'
p1772
tp1773
Rp1774
asS'S000005134'
p1775
(lp1776
g3
(g7
S'\x819KA'
p1777
tp1778
Rp1779
asS'S000002332'
p1780
(lp1781
g3
(g7
S'\xfe\xf1,A'
p1782
tp1783
Rp1784
asS'S000003759'
p1785
(lp1786
g3
(g7
S'\x91x5A'
p1787
tp1788
Rp1789
ag3
(g7
S'\xe4\x1eQA'
p1790
tp1791
Rp1792
asS'S000000308'
p1793
(lp1794
g3
(g7
S'+wTA'
p1795
tp1796
Rp1797
asS'S000002624'
p1798
(lp1799
g3
(g7
S'\xfe\xf1,A'
p1800
tp1801
Rp1802
asS'S000002627'
p1803
(lp1804
g3
(g7
S'\x80\x04@A'
p1805
tp1806
Rp1807
asS'S000002237'
p1808
(lp1809
g3
(g7
S'Y\x88*A'
p1810
tp1811
Rp1812
ag3
(g7
S'\xb8\x17@A'
p1813
tp1814
Rp1815
asS'S000002584'
p1816
(lp1817
g3
(g7
S'\x85N)A'
p1818
tp1819
Rp1820
asS'S000002585'
p1821
(lp1822
g3
(g7
S'v\xed5A'
p1823
tp1824
Rp1825
asS'S000000718'
p1826
(lp1827
g3
(g7
S'\xd7=>A'
p1828
tp1829
Rp1830
asS'S000000980'
p1831
(lp1832
g3
(g7
S'L?8A'
p1833
tp1834
Rp1835
asS'S000002628'
p1836
(lp1837
g3
(g7
S'\x80\x04@A'
p1838
tp1839
Rp1840
asS'S000003384'
p1841
(lp1842
g3
(g7
S'\xecS7A'
p1843
tp1844
Rp1845
asS'S000001901'
p1846
(lp1847
g3
(g7
S'b\xcf&A'
p1848
tp1849
Rp1850
asS'S000001903'
p1851
(lp1852
g3
(g7
S'\x9a\r>A'
p1853
tp1854
Rp1855
asS'S000001902'
p1856
(lp1857
g3
(g7
S'b\xcf&A'
p1858
tp1859
Rp1860
asS'S000003389'
p1861
(lp1862
g3
(g7
S'1w+A'
p1863
tp1864
Rp1865
asS'S000005191'
p1866
(lp1867
g3
(g7
S'TH5A'
p1868
tp1869
Rp1870
asS'S000005185'
p1871
(lp1872
g3
(g7
S'\xdf\xa1HA'
p1873
tp1874
Rp1875
asS'S000001558'
p1876
(lp1877
g3
(g7
S'3\xad<A'
p1878
tp1879
Rp1880
ag3
(g7
S'\xae+MA'
p1881
tp1882
Rp1883
asS'S000028525'
p1884
(lp1885
g3
(g7
S"\xf3'%A"
p1886
tp1887
Rp1888
ag3
(g7
S'\x1c2QA'
p1889
tp1890
Rp1891
asS'S000005621'
p1892
(lp1893
g3
(g7
S'\xbc\x08\x14A'
p1894
tp1895
Rp1896
asS'S000005622'
p1897
(lp1898
g3
(g7
S'\xbc\x08\x14A'
p1899
tp1900
Rp1901
asS'S000001072'
p1902
(lp1903
g3
(g7
S'I[<A'
p1904
tp1905
Rp1906
asS'S000006029'
p1907
(lp1908
g3
(g7
S'\x96\xed5A'
p1909
tp1910
Rp1911
asS'S000006027'
p1912
(lp1913
g3
(g7
S'\xde\x88-A'
p1914
tp1915
Rp1916
asS'S000003506'
p1917
(lp1918
g3
(g7
S'\x93\x193A'
p1919
tp1920
Rp1921
asS'S000004479'
p1922
(lp1923
g3
(g7
S'\x80\xd9(A'
p1924
tp1925
Rp1926
asS'S000006434'
p1927
(lp1928
g3
(g7
S"\xf3'%A"
p1929
tp1930
Rp1931
ag3
(g7
S'\xeaR1A'
p1932
tp1933
Rp1934
asS'S000003110'
p1935
(lp1936
g3
(g7
S'\xdc\xcb?A'
p1937
tp1938
Rp1939
asS'S000006431'
p1940
(lp1941
g3
(g7
S'\xe2Y[A'
p1942
tp1943
Rp1944
asS'S000003112'
p1945
(lp1946
g3
(g7
S'\xa2\xda.A'
p1947
tp1948
Rp1949
asS'S000003113'
p1950
(lp1951
g3
(g7
S'\x88\xabHA'
p1952
tp1953
Rp1954
asS'S000005595'
p1955
(lp1956
g3
(g7
S'1w+A'
p1957
tp1958
Rp1959
asS'S000002750'
p1960
(lp1961
g3
(g7
S'U\xd0\x17A'
p1962
tp1963
Rp1964
asS'S000002753'
p1965
(lp1966
g3
(g7
S'C\xa9(A'
p1967
tp1968
Rp1969
asS'S000006438'
p1970
(lp1971
g3
(g7
S'H\x1e)A'
p1972
tp1973
Rp1974
asS'S000005989'
p1975
(lp1976
g3
(g7
S'\xc6\xfe9A'
p1977
tp1978
Rp1979
asS'S000000154'
p1980
(lp1981
g3
(g7
S'\x92\x97;A'
p1982
tp1983
Rp1984
asS'S000005824'
p1985
(lp1986
g3
(g7
S'x\xc4_A'
p1987
tp1988
Rp1989
asS'S000000156'
p1990
(lp1991
g3
(g7
S'!\x8baA'
p1992
tp1993
Rp1994
asS'S000000018'
p1995
(lp1996
g3
(g7
S'IE7A'
p1997
tp1998
Rp1999
asS'S000000019'
p2000
(lp2001
g3
(g7
S'\xd1\xdeFA'
p2002
tp2003
Rp2004
asS'S000003964'
p2005
(lp2006
g3
(g7
S'\x91x5A'
p2007
tp2008
Rp2009
asS'S000000017'
p2010
(lp2011
g3
(g7
S'IE7A'
p2012
tp2013
Rp2014
asS'S000005985'
p2015
(lp2016
g3
(g7
S'\xdc\xcb?A'
p2017
tp2018
Rp2019
asS'S000005984'
p2020
(lp2021
g3
(g7
S'\xdc\xcb?A'
p2022
tp2023
Rp2024
asS'S000005987'
p2025
(lp2026
g3
(g7
S'\xc6\xfe9A'
p2027
tp2028
Rp2029
asS'S000004202'
p2030
(lp2031
g3
(g7
S'\xbf\xc0&A'
p2032
tp2033
Rp2034
asS'S000003618'
p2035
(lp2036
g3
(g7
S'u\x0cMA'
p2037
tp2038
Rp2039
asS'S000002893'
p2040
(lp2041
g3
(g7
S'1w+A'
p2042
tp2043
Rp2044
asS'S000003616'
p2045
(lp2046
g3
(g7
S'~\xc46A'
p2047
tp2048
Rp2049
asS'S000002895'
p2050
(lp2051
g3
(g7
S'"\x91HA'
p2052
tp2053
Rp2054
asS'S000000407'
p2055
(lp2056
g3
(g7
S'\xd9\x13-A'
p2057
tp2058
Rp2059
asS'S000003379'
p2060
(lp2061
g3
(g7
S'\x1c2QA'
p2062
tp2063
Rp2064
asS'S000004430'
p2065
(lp2066
g3
(g7
S'7\xce+A'
p2067
tp2068
Rp2069
ag3
(g7
S'\x1f\x8a[A'
p2070
tp2071
Rp2072
asS'S000004431'
p2073
(lp2074
g3
(g7
S"\xf3'%A"
p2075
tp2076
Rp2077
asS'S000000403'
p2078
(lp2079
g3
(g7
S'Wa<A'
p2080
tp2081
Rp2082
asS'S000000402'
p2083
(lp2084
g3
(g7
S'Wa<A'
p2085
tp2086
Rp2087
asS'S000001406'
p2088
(lp2089
g3
(g7
S'GD1A'
p2090
tp2091
Rp2092
asS'S000004435'
p2093
(lp2094
g3
(g7
S'\x84\xd4/A'
p2095
tp2096
Rp2097
asS'S000001408'
p2098
(lp2099
g3
(g7
S'9^NA'
p2100
tp2101
Rp2102
asS'S000004929'
p2103
(lp2104
g3
(g7
S'\xcf\x03\x1aA'
p2105
tp2106
Rp2107
ag3
(g7
S'{\xab/A'
p2108
tp2109
Rp2110
asS'S000001158'
p2111
(lp2112
g3
(g7
S'\x83\x91;A'
p2113
tp2114
Rp2115
asS'S000000215'
p2116
(lp2117
g3
(g7
S'\xee\nDA'
p2118
tp2119
Rp2120
asS'S000006303'
p2121
(lp2122
g3
(g7
S'\xc3\xf7LA'
p2123
tp2124
Rp2125
asS'S000006115'
p2126
(lp2127
g3
(g7
S'\x95\x91<A'
p2128
tp2129
Rp2130
asS'S000006114'
p2131
(lp2132
g3
(g7
S'\x8c&DA'
p2133
tp2134
Rp2135
asS'S000001363'
p2136
(lp2137
g3
(g7
S'\xce\xe4EA'
p2138
tp2139
Rp2140
asS'S000006055'
p2141
(lp2142
g3
(g7
S'\xc3\xf7LA'
p2143
tp2144
Rp2145
asS'S000003299'
p2146
(lp2147
g3
(g7
S'\x0bp*A'
p2148
tp2149
Rp2150
asS'S000003980'
p2151
(lp2152
g3
(g7
S'?^%A'
p2153
tp2154
Rp2155
asS'S000005521'
p2156
(lp2157
g3
(g7
S'\xe4\x1eQA'
p2158
tp2159
Rp2160
asS'S000004439'
p2161
(lp2162
g3
(g7
S'\xfe&8A'
p2163
tp2164
Rp2165
asS'S000004647'
p2166
(lp2167
g3
(g7
S'\x98\xee;A'
p2168
tp2169
Rp2170
asS'S000005528'
p2171
(lp2172
g3
(g7
S'\x95\x91<A'
p2173
tp2174
Rp2175
asS'S000001127'
p2176
(lp2177
g3
(g7
S"\xcf':A"
p2178
tp2179
Rp2180
asS'S000000388'
p2181
(lp2182
g3
(g7
S'>X>A'
p2183
tp2184
Rp2185
asS'S000004332'
p2186
(lp2187
g3
(g7
S'\xed\x88BA'
p2188
tp2189
Rp2190
asS'S000002144'
p2191
(lp2192
g3
(g7
S'Y\x88*A'
p2193
tp2194
Rp2195
ag3
(g7
S'\n\x141A'
p2196
tp2197
Rp2198
ag3
(g7
S'O\xba3A'
p2199
tp2200
Rp2201
asS'S000004728'
p2202
(lp2203
g3
(g7
S'E\xa3)A'
p2204
tp2205
Rp2206
asS'S000004440'
p2207
(lp2208
g3
(g7
S'\xfe&8A'
p2209
tp2210
Rp2211
asS'S000004449'
p2212
(lp2213
g3
(g7
S'\x84\xd4/A'
p2214
tp2215
Rp2216
asS'S000000903'
p2217
(lp2218
g3
(g7
S'~\xc46A'
p2219
tp2220
Rp2221
asS'S000000272'
p2222
(lp2223
g3
(g7
S'\xf7}QA'
p2224
tp2225
Rp2226
ag3
(g7
S'\xcc\x8cUA'
p2227
tp2228
Rp2229
asS'S000000274'
p2230
(lp2231
g3
(g7
S'\x06=\x18A'
p2232
tp2233
Rp2234
asS'S000000275'
p2235
(lp2236
g3
(g7
S'\x06=\x18A'
p2237
tp2238
Rp2239
asS'S000004650'
p2240
(lp2241
g3
(g7
S'\x0c\x0e2A'
p2242
tp2243
Rp2244
asS'S000001233'
p2245
(lp2246
g3
(g7
S'\xde\x88-A'
p2247
tp2248
Rp2249
asS'S000004729'
p2250
(lp2251
g3
(g7
S'E\xa3)A'
p2252
tp2253
Rp2254
asS'S000007587'
p2255
(lp2256
g3
(g7
S'\t\xbdUA'
p2257
tp2258
Rp2259
asS'S000005092'
p2260
(lp2261
g3
(g7
S'L?8A'
p2262
tp2263
Rp2264
asS'S000005091'
p2265
(lp2266
g3
(g7
S'?^%A'
p2267
tp2268
Rp2269
asS'S000005090'
p2270
(lp2271
g3
(g7
S'L?8A'
p2272
tp2273
Rp2274
asS'S000000312'
p2275
(lp2276
g3
(g7
S'O\xba3A'
p2277
tp2278
Rp2279
asS'S000001231'
p2280
(lp2281
g3
(g7
S'\xde\x88-A'
p2282
tp2283
Rp2284
asS'S000001493'
p2285
(lp2286
g3
(g7
S'\x96\x92BA'
p2287
tp2288
Rp2289
asS'S000001492'
p2290
(lp2291
g3
(g7
S'\x96\x92BA'
p2292
tp2293
Rp2294
asS'S000005790'
p2295
(lp2296
g3
(g7
S'\xa5\xb8?A'
p2297
tp2298
Rp2299
asS'S000005792'
p2300
(lp2301
g3
(g7
S'\xba\x11AA'
p2302
tp2303
Rp2304
asS'S000005797'
p2305
(lp2306
g3
(g7
S'T\x10`A'
p2307
tp2308
Rp2309
ag3
(g7
S'T\x10`A'
p2310
tp2311
Rp2312
asS'S000005413'
p2313
(lp2314
g3
(g7
S'5\t6A'
p2315
tp2316
Rp2317
ag3
(g7
S'\x05eKA'
p2318
tp2319
Rp2320
ag3
(g7
S'\x1c2QA'
p2321
tp2322
Rp2323
asS'S000005799'
p2324
(lp2325
g3
(g7
S'\xed\x88BA'
p2326
tp2327
Rp2328
asS'S000005411'
p2329
(lp2330
g3
(g7
S't:<A'
p2331
tp2332
Rp2333
asS'S000006759'
p2334
(lp2335
g3
(g7
S'\xcb,3A'
p2336
tp2337
Rp2338
asS'S000002865'
p2339
(lp2340
g3
(g7
S'V\x05#A'
p2341
tp2342
Rp2343
asS'S000005414'
p2344
(lp2345
g3
(g7
S'\x94\xf34A'
p2346
tp2347
Rp2348
asS'S000005000'
p2349
(lp2350
g3
(g7
S'c\xd8BA'
p2351
tp2352
Rp2353
asS'S000005001'
p2354
(lp2355
g3
(g7
S'\xa258A'
p2356
tp2357
Rp2358
asS'S000005003'
p2359
(lp2360
g3
(g7
S'\xa258A'
p2361
tp2362
Rp2363
asS'S000001394'
p2364
(lp2365
g3
(g7
S'\xa0~5A'
p2366
tp2367
Rp2368
asS'S000000971'
p2369
(lp2370
g3
(g7
S'\xb0\xdaCA'
p2371
tp2372
Rp2373
asS'S000001397'
p2374
(lp2375
g3
(g7
S'\x91x5A'
p2376
tp2377
Rp2378
asS'S000004533'
p2379
(lp2380
g3
(g7
S'\xa258A'
p2381
tp2382
Rp2383
asS'S000003968'
p2384
(lp2385
g3
(g7
S'\t\xbdUA'
p2386
tp2387
Rp2388
asS'S000005558'
p2389
(lp2390
g3
(g7
S'\x96\x92BA'
p2391
tp2392
Rp2393
asS'S000000875'
p2394
(lp2395
g3
(g7
S'\xa5\xedJA'
p2396
tp2397
Rp2398
ag3
(g7
S'\t\xbdUA'
p2399
tp2400
Rp2401
asS'S000006206'
p2402
(lp2403
g3
(g7
S'\xcd\xa7 A'
p2404
tp2405
Rp2406
asS'S000005959'
p2407
(lp2408
g3
(g7
S'\x80 0A'
p2409
tp2410
Rp2411
asS'S000001570'
p2412
(lp2413
g3
(g7
S'L?8A'
p2414
tp2415
Rp2416
ag3
(g7
S'\x8e\xeb9A'
p2417
tp2418
Rp2419
asS'S000007591'
p2420
(lp2421
g3
(g7
S'o\xc5;A'
p2422
tp2423
Rp2424
ag3
(g7
S'\xdc\xcb?A'
p2425
tp2426
Rp2427
ag3
(g7
S'+wTA'
p2428
tp2429
Rp2430
asS'S000005952'
p2431
(lp2432
g3
(g7
S'\xe5@+A'
p2433
tp2434
Rp2435
asS'S000000751'
p2436
(lp2437
g3
(g7
S'\xa258A'
p2438
tp2439
Rp2440
asS'S000005951'
p2441
(lp2442
g3
(g7
S'\xe5@+A'
p2443
tp2444
Rp2445
asS'S000001272'
p2446
(lp2447
g3
(g7
S'|\xca5A'
p2448
tp2449
Rp2450
asS'S000005381'
p2451
(lp2452
g3
(g7
S'\xdc\xcb?A'
p2453
tp2454
Rp2455
asS'S000005380'
p2456
(lp2457
g3
(g7
S'\xdc\xcb?A'
p2458
tp2459
Rp2460
asS'S000002986'
p2461
(lp2462
g3
(g7
S'\x8f EA'
p2463
tp2464
Rp2465
asS'S000001370'
p2466
(lp2467
g3
(g7
S'~\xc46A'
p2468
tp2469
Rp2470
asS'S000002820'
p2471
(lp2472
g3
(g7
S'\x88\x06<A'
p2473
tp2474
Rp2475
asS'S000004143'
p2476
(lp2477
g3
(g7
S'\xcb,3A'
p2478
tp2479
Rp2480
asS'S000001783'
p2481
(lp2482
g3
(g7
S'\x98\xee;A'
p2483
tp2484
Rp2485
ag3
(g7
S'\x94N>A'
p2486
tp2487
Rp2488
ag3
(g7
S'IzBA'
p2489
tp2490
Rp2491
asS'S000000904'
p2492
(lp2493
g3
(g7
S'~\xc46A'
p2494
tp2495
Rp2496
asS'S000001784'
p2497
(lp2498
g3
(g7
S'\x98\xee;A'
p2499
tp2500
Rp2501
asS'S000028566'
p2502
(lp2503
g3
(g7
S'\x91x5A'
p2504
tp2505
Rp2506
ag3
(g7
S'IzBA'
p2507
tp2508
Rp2509
asS'S000028564'
p2510
(lp2511
g3
(g7
S'\x91x5A'
p2512
tp2513
Rp2514
ag3
(g7
S'IzBA'
p2515
tp2516
Rp2517
asS'S000028565'
p2518
(lp2519
g3
(g7
S'\x91x5A'
p2520
tp2521
Rp2522
ag3
(g7
S'IzBA'
p2523
tp2524
Rp2525
asS'S000028562'
p2526
(lp2527
g3
(g7
S'\x91x5A'
p2528
tp2529
Rp2530
ag3
(g7
S'IzBA'
p2531
tp2532
Rp2533
asS'S000028688'
p2534
(lp2535
g3
(g7
S'\xd3\xdfLA'
p2536
tp2537
Rp2538
asS'S000005264'
p2539
(lp2540
g3
(g7
S'\xcd&4A'
p2541
tp2542
Rp2543
asS'S000000247'
p2544
(lp2545
g3
(g7
S'\x07\\\x1eA'
p2546
tp2547
Rp2548
asS'S000005256'
p2549
(lp2550
g3
(g7
S'\xa2\xda.A'
p2551
tp2552
Rp2553
asS'S000003150'
p2554
(lp2555
g3
(g7
S'0\x945A'
p2556
tp2557
Rp2558
asS'S000003151'
p2559
(lp2560
g3
(g7
S'0\x945A'
p2561
tp2562
Rp2563
asS'S000003620'
p2564
(lp2565
g3
(g7
S'\xc9VDA'
p2566
tp2567
Rp2568
asS'S000003253'
p2569
(lp2570
g3
(g7
S'x\xc4_A'
p2571
tp2572
Rp2573
asS'S000002478'
p2574
(lp2575
g3
(g7
S'IE7A'
p2576
tp2577
Rp2578
ag3
(g7
S"'\x8b8A"
p2579
tp2580
Rp2581
asS'S000003628'
p2582
(lp2583
g3
(g7
S'\x8c&DA'
p2584
tp2585
Rp2586
asS'S000003629'
p2587
(lp2588
g3
(g7
S'B\xbb$A'
p2589
tp2590
Rp2591
ag3
(g7
S'\xbd\x8c@A'
p2592
tp2593
Rp2594
ag3
(g7
S'\xc9\x17AA'
p2595
tp2596
Rp2597
asS'S000028667'
p2598
(lp2599
g3
(g7
S'\xd3\x7fDA'
p2600
tp2601
Rp2602
asS'S000000728'
p2603
(lp2604
g3
(g7
S'~\xc46A'
p2605
tp2606
Rp2607
asS'S000000052'
p2608
(lp2609
g3
(g7
S'\xf6@,A'
p2610
tp2611
Rp2612
asS'S000006279'
p2613
(lp2614
g3
(g7
S'\xe1@@A'
p2615
tp2616
Rp2617
asS'S000001266'
p2618
(lp2619
g3
(g7
S'\x1c2QA'
p2620
tp2621
Rp2622
asS'S000000057'
p2623
(lp2624
g3
(g7
S'M\x9b1A'
p2625
tp2626
Rp2627
ag3
(g7
S'W\xa0?A'
p2628
tp2629
Rp2630
asS'S000005201'
p2631
(lp2632
g3
(g7
S'\n\x141A'
p2633
tp2634
Rp2635
asS'S000000299'
p2636
(lp2637
g3
(g7
S'F\xc2/A'
p2638
tp2639
Rp2640
asS'S000000355'
p2641
(lp2642
g3
(g7
S'\x90\xc1(A'
p2643
tp2644
Rp2645
ag3
(g7
S'\x1c2QA'
p2646
tp2647
Rp2648
asS'S000000354'
p2649
(lp2650
g3
(g7
S'\x90\xc1(A'
p2651
tp2652
Rp2653
asS'S000002916'
p2654
(lp2655
g3
(g7
S'\xfb9\x1aA'
p2656
tp2657
Rp2658
asS'S000000359'
p2659
(lp2660
g3
(g7
S'M\x9b1A'
p2661
tp2662
Rp2663
asS'S000000358'
p2664
(lp2665
g3
(g7
S'M\x9b1A'
p2666
tp2667
Rp2668
asS'S000002910'
p2669
(lp2670
g3
(g7
S'/r[A'
p2671
tp2672
Rp2673
asS'S000003275'
p2674
(lp2675
g3
(g7
S'\x87\xaaBA'
p2676
tp2677
Rp2678
asS'S000002784'
p2679
(lp2680
g3
(g7
S'5\t6A'
p2681
tp2682
Rp2683
asS'S000028806'
p2684
(lp2685
g3
(g7
S'-qUA'
p2686
tp2687
Rp2688
asS'S000005175'
p2689
(lp2690
g3
(g7
S'\xac*GA'
p2691
tp2692
Rp2693
asS'S000004772'
p2694
(lp2695
g3
(g7
S'$r1A'
p2696
tp2697
Rp2698
asS'S000004802'
p2699
(lp2700
g3
(g7
S'F\xc2/A'
p2701
tp2702
Rp2703
asS'S000004777'
p2704
(lp2705
g3
(g7
S'\xd67WA'
p2706
tp2707
Rp2708
asS'S000006154'
p2709
(lp2710
g3
(g7
S'u\x0cMA'
p2711
tp2712
Rp2713
asS'S000003633'
p2714
(lp2715
g3
(g7
S'\x0e5 A'
p2716
tp2717
Rp2718
asS'S000006150'
p2719
(lp2720
g3
(g7
S'\xa0~5A'
p2721
tp2722
Rp2723
ag3
(g7
S'5\xa6;A'
p2724
tp2725
Rp2726
asS'S000001168'
p2727
(lp2728
g3
(g7
S'Y\xbd5A'
p2729
tp2730
Rp2731
asS'S000006015'
p2732
(lp2733
g3
(g7
S'\xa258A'
p2734
tp2735
Rp2736
asS'S000005093'
p2737
(lp2738
g3
(g7
S'?^%A'
p2739
tp2740
Rp2741
asS'S000000128'
p2742
(lp2743
g3
(g7
S'S\xcf\x11A'
p2744
tp2745
Rp2746
asS'S000000834'
p2747
(lp2748
g3
(g7
S'\x956)A'
p2749
tp2750
Rp2751
asS'S000000125'
p2752
(lp2753
g3
(g7
S'\xdc\xcb?A'
p2754
tp2755
Rp2756
ag3
(g7
S'+wTA'
p2757
tp2758
Rp2759
asS'S000000126'
p2760
(lp2761
g3
(g7
S'\xd3YFA'
p2762
tp2763
Rp2764
asS'S000004101'
p2765
(lp2766
g3
(g7
S'Tt\x1eA'
p2767
tp2768
Rp2769
asS'S000005874'
p2770
(lp2771
g3
(g7
S'W,1A'
p2772
tp2773
Rp2774
asS'S000002968'
p2775
(lp2776
g3
(g7
S'\x91\xd9)A'
p2777
tp2778
Rp2779
asS'S000004278'
p2780
(lp2781
g3
(g7
S'\xe1f>A'
p2782
tp2783
Rp2784
asS'S000004063'
p2785
(lp2786
g3
(g7
S'\xd3\xdfLA'
p2787
tp2788
Rp2789
asS'S000002965'
p2790
(lp2791
g3
(g7
S'\xdc,4A'
p2792
tp2793
Rp2794
asS'S000000821'
p2795
(lp2796
g3
(g7
S'7\x87$A'
p2797
tp2798
Rp2799
asS'S000001754'
p2800
(lp2801
g3
(g7
S'\x05eKA'
p2802
tp2803
Rp2804
asS'S000001025'
p2805
(lp2806
g3
(g7
S'\xd3\x7fDA'
p2807
tp2808
Rp2809
asS'S000005116'
p2810
(lp2811
g3
(g7
S'\xdc\xcb?A'
p2812
tp2813
Rp2814
asS'S000001028'
p2815
(lp2816
g3
(g7
S'\xa5\xb8?A'
p2817
tp2818
Rp2819
asS'S000000432'
p2820
(lp2821
g3
(g7
S'\xd3\xdfLA'
p2822
tp2823
Rp2824
asS'S000000433'
p2825
(lp2826
g3
(g7
S'\x9f;7A'
p2827
tp2828
Rp2829
asS'S000001455'
p2830
(lp2831
g3
(g7
S'T\xe8,A'
p2832
tp2833
Rp2834
asS'S000028651'
p2835
(lp2836
g3
(g7
S'!\x8baA'
p2837
tp2838
Rp2839
asS'S000004873'
p2840
(lp2841
g3
(g7
S'\x18\xfb*A'
p2842
tp2843
Rp2844
asS'S000003448'
p2845
(lp2846
g3
(g7
S'\x08\xb8\x17A'
p2847
tp2848
Rp2849
asS'S000003320'
p2850
(lp2851
g3
(g7
S'?\xb47A'
p2852
tp2853
Rp2854
asS'S000003327'
p2855
(lp2856
g3
(g7
S'\x85\xc7LA'
p2857
tp2858
Rp2859
asS'S000003326'
p2860
(lp2861
g3
(g7
S'\x8f EA'
p2862
tp2863
Rp2864
asS'S000005076'
p2865
(lp2866
g3
(g7
S'\xdc\xcb?A'
p2867
tp2868
Rp2869
asS'S000003324'
p2870
(lp2871
g3
(g7
S'\x18z>A'
p2872
tp2873
Rp2874
asS'S000000309'
p2875
(lp2876
g3
(g7
S'B\xbb$A'
p2877
tp2878
Rp2879
ag3
(g7
S'\x96\x92BA'
p2880
tp2881
Rp2882
asS'S000004878'
p2883
(lp2884
g3
(g7
S'\xa2\xda.A'
p2885
tp2886
Rp2887
asS'S000003328'
p2888
(lp2889
g3
(g7
S'\x96\xed5A'
p2890
tp2891
Rp2892
asS'S000005051'
p2893
(lp2894
g3
(g7
S'\x94N>A'
p2895
tp2896
Rp2897
asS'S000006553'
p2898
(lp2899
g3
(g7
S'\xd1\xdeFA'
p2900
tp2901
Rp2902
asS'S000004521'
p2903
(lp2904
g3
(g7
S'\xcb,3A'
p2905
tp2906
Rp2907
asS'S000005454'
p2908
(lp2909
g3
(g7
S'9^NA'
p2910
tp2911
Rp2912
asS'S000006556'
p2913
(lp2914
g3
(g7
S'\x90\xf63A'
p2915
tp2916
Rp2917
asS'S000003884'
p2918
(lp2919
g3
(g7
S'W,1A'
p2920
tp2921
Rp2922
asS'S000004184'
p2923
(lp2924
g3
(g7
S'!\x8baA'
p2925
tp2926
Rp2927
asS'S000005515'
p2928
(lp2929
g3
(g7
S'\xca\xef\rA'
p2930
tp2931
Rp2932
asS'S000004183'
p2933
(lp2934
g3
(g7
S'\xdf\xe4FA'
p2935
tp2936
Rp2937
asS'S000005798'
p2938
(lp2939
g3
(g7
S'T\x10`A'
p2940
tp2941
Rp2942
ag3
(g7
S'T\x10`A'
p2943
tp2944
Rp2945
asS'S000003966'
p2946
(lp2947
g3
(g7
S'\xc5\xf8RA'
p2948
tp2949
Rp2950
ag3
(g7
S'\t\xbdUA'
p2951
tp2952
Rp2953
asS'S000001053'
p2954
(lp2955
g3
(g7
S'9^NA'
p2956
tp2957
Rp2958
asS'S000001119'
p2959
(lp2960
g3
(g7
S'\x85\xc7LA'
p2961
tp2962
Rp2963
asS'S000004591'
p2964
(lp2965
g3
(g7
S'3\xad<A'
p2966
tp2967
Rp2968
ag3
(g7
S'\xae+MA'
p2969
tp2970
Rp2971
asS'S000003969'
p2972
(lp2973
g3
(g7
S'\x82\xda.A'
p2974
tp2975
Rp2976
asS'S000000373'
p2977
(lp2978
g3
(g7
S'\x0e5 A'
p2979
tp2980
Rp2981
asS'S000002646'
p2982
(lp2983
g3
(g7
S'\x17\xa4OA'
p2984
tp2985
Rp2986
asS'S000000381'
p2987
(lp2988
g3
(g7
S'\xce\xe4EA'
p2989
tp2990
Rp2991
asS'S000001238'
p2992
(lp2993
g3
(g7
S'I[<A'
p2994
tp2995
Rp2996
asS'S000001237'
p2997
(lp2998
g3
(g7
S'\x88\x8cBA'
p2999
tp3000
Rp3001
asS'S000000220'
p3002
(lp3003
g3
(g7
S'\xd1\xdeFA'
p3004
tp3005
Rp3006
asS'S000004605'
p3007
(lp3008
g3
(g7
S'o\xfaFA'
p3009
tp3010
Rp3011
ag3
(g7
S'o\xfaFA'
p3012
tp3013
Rp3014
asS'S000002133'
p3015
(lp3016
g3
(g7
S'}\xac5A'
p3017
tp3018
Rp3019
asS'S000001512'
p3020
(lp3021
g3
(g7
S'j\xddeA'
p3022
tp3023
Rp3024
asS'S000000540'
p3025
(lp3026
g3
(g7
S'\xf5\xa2$A'
p3027
tp3028
Rp3029
ag3
(g7
S'\x94\xf34A'
p3030
tp3031
Rp3032
asS'S000000898'
p3033
(lp3034
g3
(g7
S'\x84\xd4/A'
p3035
tp3036
Rp3037
asS'S000002862'
p3038
(lp3039
g3
(g7
S'\x98\xee;A'
p3040
tp3041
Rp3042
asS'S000000894'
p3043
(lp3044
g3
(g7
S'x\xc4_A'
p3045
tp3046
Rp3047
asS'S000000895'
p3048
(lp3049
g3
(g7
S'\xd1\xfdLA'
p3050
tp3051
Rp3052
asS'S000004523'
p3053
(lp3054
g3
(g7
S'\xcb,3A'
p3055
tp3056
Rp3057
asS'S000000893'
p3058
(lp3059
g3
(g7
S'x\xc4_A'
p3060
tp3061
Rp3062
asS'S000001511'
p3063
(lp3064
g3
(g7
S'j\xddeA'
p3065
tp3066
Rp3067
asS'S000004980'
p3068
(lp3069
g3
(g7
S'\x94N>A'
p3070
tp3071
Rp3072
asS'S000001516'
p3073
(lp3074
g3
(g7
S'\xe1@@A'
p3075
tp3076
Rp3077
ag3
(g7
S'x\xc4_A'
p3078
tp3079
Rp3080
asS'S000006239'
p3081
(lp3082
g3
(g7
S"'\x8b8A"
p3083
tp3084
Rp3085
ag3
(g7
S';tBA'
p3086
tp3087
Rp3088
asS'S000001645'
p3089
(lp3090
g3
(g7
S'\x94N>A'
p3091
tp3092
Rp3093
asS'S000006237'
p3094
(lp3095
g3
(g7
S'\xb86\x14A'
p3096
tp3097
Rp3098
asS'S000000946'
p3099
(lp3100
g3
(g7
S'\xfbn%A'
p3101
tp3102
Rp3103
asS'S000005359'
p3104
(lp3105
g3
(g7
S'\x91x5A'
p3106
tp3107
Rp3108
ag3
(g7
S'\x94N>A'
p3109
tp3110
Rp3111
ag3
(g7
S'\xe4\x1eQA'
p3112
tp3113
Rp3114
asS'S000000944'
p3115
(lp3116
g3
(g7
S'\xbf?:A'
p3117
tp3118
Rp3119
asS'S000000736'
p3120
(lp3121
g3
(g7
S'\x80\xd9(A'
p3122
tp3123
Rp3124
asS'S000002618'
p3125
(lp3126
g3
(g7
S'Fa;A'
p3127
tp3128
Rp3129
ag3
(g7
S'T\x10`A'
p3130
tp3131
Rp3132
ag3
(g7
S'T\x10`A'
p3133
tp3134
Rp3135
asS'S000006336'
p3136
(lp3137
g3
(g7
S'H&1A'
p3138
tp3139
Rp3140
asS'S000006335'
p3141
(lp3142
g3
(g7
S'H&1A'
p3143
tp3144
Rp3145
asS'S000005120'
p3146
(lp3147
g3
(g7
S'\x8b\r)A'
p3148
tp3149
Rp3150
asS'S000028588'
p3151
(lp3152
g3
(g7
S'\x80 0A'
p3153
tp3154
Rp3155
asS'S000003744'
p3156
(lp3157
g3
(g7
S'W\xa0?A'
p3158
tp3159
Rp3160
asS'S000006331'
p3161
(lp3162
g3
(g7
S'\tV\x1fA'
p3163
tp3164
Rp3165
ag3
(g7
S'\x91x5A'
p3166
tp3167
Rp3168
asS'S000006330'
p3169
(lp3170
g3
(g7
S'\tV\x1fA'
p3171
tp3172
Rp3173
ag3
(g7
S'\x91x5A'
p3174
tp3175
Rp3176
asS'S000002610'
p3177
(lp3178
g3
(g7
S'5r2A'
p3179
tp3180
Rp3181
asS'S000002347'
p3182
(lp3183
g3
(g7
S'\x8f EA'
p3184
tp3185
Rp3186
asS'S000000970'
p3187
(lp3188
g3
(g7
S'\xb0\xdaCA'
p3189
tp3190
Rp3191
asS'S000005442'
p3192
(lp3193
g3
(g7
S'\x1c2QA'
p3194
tp3195
Rp3196
asS'S000003219'
p3197
(lp3198
g3
(g7
S'}\xe1@A'
p3199
tp3200
Rp3201
asS'S000002341'
p3202
(lp3203
g3
(g7
S'b\xcf&A'
p3204
tp3205
Rp3206
asS'S000000648'
p3207
(lp3208
g3
(g7
S';tBA'
p3209
tp3210
Rp3211
asS'S000001521'
p3212
(lp3213
g3
(g7
S'\x94\xf34A'
p3214
tp3215
Rp3216
asS'S000005902'
p3217
(lp3218
g3
(g7
S'\xf7}QA'
p3219
tp3220
Rp3221
ag3
(g7
S'\xcc\x8cUA'
p3222
tp3223
Rp3224
asS'S000002595'
p3225
(lp3226
g3
(g7
S'\x0e5 A'
p3227
tp3228
Rp3229
asS'S000005009'
p3230
(lp3231
g3
(g7
S'g%SA'
p3232
tp3233
Rp3234
asS'S000005909'
p3235
(lp3236
g3
(g7
S'\x94\xf34A'
p3237
tp3238
Rp3239
asS'S000001931'
p3240
(lp3241
g3
(g7
S'\x80\xd9(A'
p3242
tp3243
Rp3244
asS'S000000315'
p3245
(lp3246
g3
(g7
S'\x1f\x8a[A'
p3247
tp3248
Rp3249
asS'S000000642'
p3250
(lp3251
g3
(g7
S'\xf5\xa2$A'
p3252
tp3253
Rp3254
asS'S000000645'
p3255
(lp3256
g3
(g7
S'L?8A'
p3257
tp3258
Rp3259
asS'S000000644'
p3260
(lp3261
g3
(g7
S'\xf5\xa2$A'
p3262
tp3263
Rp3264
asS'S000000647'
p3265
(lp3266
g3
(g7
S'L?8A'
p3267
tp3268
Rp3269
asS'S000000646'
p3270
(lp3271
g3
(g7
S';tBA'
p3272
tp3273
Rp3274
asS'S000029724'
p3275
(lp3276
g3
(g7
S';tBA'
p3277
tp3278
Rp3279
asS'S000029722'
p3280
(lp3281
g3
(g7
S'\x9f;7A'
p3282
tp3283
Rp3284
asS'S000001939'
p3285
(lp3286
g3
(g7
S'\xdc\xcb?A'
p3287
tp3288
Rp3289
asS'S000007521'
p3290
(lp3291
g3
(g7
S'\xb86\x14A'
p3292
tp3293
Rp3294
asS'S000002819'
p3295
(lp3296
g3
(g7
S'\x88\x06<A'
p3297
tp3298
Rp3299
asS'S000007524'
p3300
(lp3301
g3
(g7
S'E\xa3)A'
p3302
tp3303
Rp3304
asS'S000001520'
p3305
(lp3306
g3
(g7
S'\xdf\xe4FA'
p3307
tp3308
Rp3309
asS'S000005634'
p3310
(lp3311
g3
(g7
S'j\xddeA'
p3312
tp3313
Rp3314
asS'S000003340'
p3315
(lp3316
g3
(g7
S';tBA'
p3317
tp3318
Rp3319
asS'S000003109'
p3320
(lp3321
g3
(g7
S'\xdc\xcb?A'
p3322
tp3323
Rp3324
asS'S000006585'
p3325
(lp3326
g3
(g7
S'\xd3YFA'
p3327
tp3328
Rp3329
asS'S000004453'
p3330
(lp3331
g3
(g7
S'\x91x5A'
p3332
tp3333
Rp3334
ag3
(g7
S'\xe4\x1eQA'
p3335
tp3336
Rp3337
asS'S000005896'
p3338
(lp3339
g3
(g7
S'\x19W$A'
p3340
tp3341
Rp3342
asS'S000003069'
p3343
(lp3344
g3
(g7
S'\xe2Y[A'
p3345
tp3346
Rp3347
ag3
(g7
S'x\xc4_A'
p3348
tp3349
Rp3350
asS'S000001930'
p3351
(lp3352
g3
(g7
S'\t!\x14A'
p3353
tp3354
Rp3355
ag3
(g7
S'\x80\xd9(A'
p3356
tp3357
Rp3358
asS'S000002769'
p3359
(lp3360
g3
(g7
S'\xd67WA'
p3361
tp3362
Rp3363
asS'S000028832'
p3364
(lp3365
g3
(g7
S'\x94\xf34A'
p3366
tp3367
Rp3368
asS'S000000160'
p3369
(lp3370
g3
(g7
S'\xd3\xdfLA'
p3371
tp3372
Rp3373
asS'S000000161'
p3374
(lp3375
g3
(g7
S'W,1A'
p3376
tp3377
Rp3378
asS'S000001932'
p3379
(lp3380
g3
(g7
S'\t!\x14A'
p3381
tp3382
Rp3383
ag3
(g7
S'\x80\xd9(A'
p3384
tp3385
Rp3386
asS'S000000002'
p3387
(lp3388
g3
(g7
S'\xecS7A'
p3389
tp3390
Rp3391
asS'S000002598'
p3392
(lp3393
g3
(g7
S'B\xbb$A'
p3394
tp3395
Rp3396
asS'S000005830'
p3397
(lp3398
g3
(g7
S'1w+A'
p3399
tp3400
Rp3401
asS'S000005833'
p3402
(lp3403
g3
(g7
S'2Y+A'
p3404
tp3405
Rp3406
asS'S000004237'
p3407
(lp3408
g3
(g7
S'}\xe1@A'
p3409
tp3410
Rp3411
asS'S000000360'
p3412
(lp3413
g3
(g7
S'E\xa3)A'
p3414
tp3415
Rp3416
asS'S000000008'
p3417
(lp3418
g3
(g7
S',\xbaHA'
p3419
tp3420
Rp3421
asS'S000001800'
p3422
(lp3423
g3
(g7
S'+wTA'
p3424
tp3425
Rp3426
asS'S000001801'
p3427
(lp3428
g3
(g7
S'\x0c\xd9&A'
p3429
tp3430
Rp3431
ag3
(g7
S'+wTA'
p3432
tp3433
Rp3434
asS'S000001802'
p3435
(lp3436
g3
(g7
S'\xcd&4A'
p3437
tp3438
Rp3439
asS'S000001803'
p3440
(lp3441
g3
(g7
S'\xcd&4A'
p3442
tp3443
Rp3444
asS'S000003587'
p3445
(lp3446
g3
(g7
S'\x819KA'
p3447
tp3448
Rp3449
ag3
(g7
S'\xe4\x1eQA'
p3450
tp3451
Rp3452
asS'S000005956'
p3453
(lp3454
g3
(g7
S'\xdc\xcb?A'
p3455
tp3456
Rp3457
asS'S000004563'
p3458
(lp3459
g3
(g7
S'\xcd&4A'
p3460
tp3461
Rp3462
asS'S000000311'
p3463
(lp3464
g3
(g7
S'O\xba3A'
p3465
tp3466
Rp3467
asS'S000002883'
p3468
(lp3469
g3
(g7
S'B\xbb$A'
p3470
tp3471
Rp3472
asS'S000000310'
p3473
(lp3474
g3
(g7
S'B\xbb$A'
p3475
tp3476
Rp3477
asS'S000004423'
p3478
(lp3479
g3
(g7
S'Wa<A'
p3480
tp3481
Rp3482
asS'S000004933'
p3483
(lp3484
g3
(g7
S'\xd9>DA'
p3485
tp3486
Rp3487
asS'S000004424'
p3488
(lp3489
g3
(g7
S'Wa<A'
p3490
tp3491
Rp3492
asS'S000004429'
p3493
(lp3494
g3
(g7
S'\x1f\x8a[A'
p3495
tp3496
Rp3497
asS'S000004428'
p3498
(lp3499
g3
(g7
S'7\xce+A'
p3500
tp3501
Rp3502
asS'S000003363'
p3503
(lp3504
g3
(g7
S'S\xcf\x11A'
p3505
tp3506
Rp3507
ag3
(g7
S'A_+A'
p3508
tp3509
Rp3510
ag3
(g7
S'\x95\x91<A'
p3511
tp3512
Rp3513
asS'S000004231'
p3514
(lp3515
g3
(g7
S'\xdc\xcb?A'
p3516
tp3517
Rp3518
asS'S000004939'
p3519
(lp3520
g3
(g7
S'\n\x93DA'
p3521
tp3522
Rp3523
asS'S000001179'
p3524
(lp3525
g3
(g7
S'>X>A'
p3526
tp3527
Rp3528
asS'S000000750'
p3529
(lp3530
g3
(g7
S'\xa258A'
p3531
tp3532
Rp3533
asS'S000006044'
p3534
(lp3535
g3
(g7
S'GD1A'
p3536
tp3537
Rp3538
asS'S000006510'
p3539
(lp3540
g3
(g7
S'\xa2\xda.A'
p3541
tp3542
Rp3543
asS'S000002170'
p3544
(lp3545
g3
(g7
S'\xf6@,A'
p3546
tp3547
Rp3548
asS'S000003062'
p3549
(lp3550
g3
(g7
S'\xe1@@A'
p3551
tp3552
Rp3553
asS'S000002173'
p3554
(lp3555
g3
(g7
S'\x07\\\x1eA'
p3556
tp3557
Rp3558
asS'S000004304'
p3559
(lp3560
g3
(g7
S'\x956)A'
p3561
tp3562
Rp3563
asS'S000004306'
p3564
(lp3565
g3
(g7
S'IE7A'
p3566
tp3567
Rp3568
asS'S000004307'
p3569
(lp3570
g3
(g7
S'IE7A'
p3571
tp3572
Rp3573
asS'S000004303'
p3574
(lp3575
g3
(g7
S'\x956)A'
p3576
tp3577
Rp3578
asS'S000006190'
p3579
(lp3580
g3
(g7
S'\xa0~5A'
p3581
tp3582
Rp3583
asS'S000004731'
p3584
(lp3585
g3
(g7
S'\x8f EA'
p3586
tp3587
Rp3588
asS'S000004309'
p3589
(lp3590
g3
(g7
S'IE7A'
p3591
tp3592
Rp3593
asS'S000006195'
p3594
(lp3595
g3
(g7
S'T\xe8,A'
p3596
tp3597
Rp3598
asS'S000005062'
p3599
(lp3600
g3
(g7
S'\xe1@@A'
p3601
tp3602
Rp3603
asS'S000000913'
p3604
(lp3605
g3
(g7
S'L?8A'
p3606
tp3607
Rp3608
asS'S000005061'
p3609
(lp3610
g3
(g7
S'\xe1@@A'
p3611
tp3612
Rp3613
asS'S000004168'
p3614
(lp3615
g3
(g7
S'\xaaO\x1aA'
p3616
tp3617
Rp3618
asS'S000000262'
p3619
(lp3620
g3
(g7
S'\xb86\x14A'
p3621
tp3622
Rp3623
asS'S000000261'
p3624
(lp3625
g3
(g7
S'W,1A'
p3626
tp3627
Rp3628
asS'S000004166'
p3629
(lp3630
g3
(g7
S'\x80\xc5<A'
p3631
tp3632
Rp3633
asS'S000004167'
p3634
(lp3635
g3
(g7
S'\x80\xc5<A'
p3636
tp3637
Rp3638
asS'S000001707'
p3639
(lp3640
g3
(g7
S'\xe4\x1eQA'
p3641
tp3642
Rp3643
asS'S000000269'
p3644
(lp3645
g3
(g7
S'j\xddeA'
p3646
tp3647
Rp3648
asS'S000003038'
p3649
(lp3650
g3
(g7
S'\x8e\xeb9A'
p3651
tp3652
Rp3653
asS'S000000464'
p3654
(lp3655
g3
(g7
S'\xceE:A'
p3656
tp3657
Rp3658
asS'S000000467'
p3659
(lp3660
g3
(g7
S'\xceE:A'
p3661
tp3662
Rp3663
asS'S000000469'
p3664
(lp3665
g3
(g7
S'\x03\x8a\x1eA'
p3666
tp3667
Rp3668
asS'S000003310'
p3669
(lp3670
g3
(g7
S'\x8e\xeb9A'
p3671
tp3672
Rp3673
asS'S000003311'
p3674
(lp3675
g3
(g7
S'\x8e\xeb9A'
p3676
tp3677
Rp3678
asS'S000004490'
p3679
(lp3680
g3
(g7
S'~\xc46A'
p3681
tp3682
Rp3683
asS'S000005389'
p3684
(lp3685
g3
(g7
S'\x91x5A'
p3686
tp3687
Rp3688
asS'S000006601'
p3689
(lp3690
g3
(g7
S'\xd1\xdeFA'
p3691
tp3692
Rp3693
asS'S000006569'
p3694
(lp3695
g3
(g7
S'\xdc\xcb?A'
p3696
tp3697
Rp3698
asS'S000005961'
p3699
(lp3700
g3
(g7
S'\x80 0A'
p3701
tp3702
Rp3703
asS'S000006605'
p3704
(lp3705
g3
(g7
S'\x0eKWA'
p3706
tp3707
Rp3708
asS'S000006609'
p3709
(lp3710
g3
(g7
S'\x94N>A'
p3711
tp3712
Rp3713
asS'S000006561'
p3714
(lp3715
g3
(g7
S'\xe1f>A'
p3716
tp3717
Rp3718
asS'S000006564'
p3719
(lp3720
g3
(g7
S'\x9a\r>A'
p3721
tp3722
Rp3723
asS'S000005541'
p3724
(lp3725
g3
(g7
S'\xdc\xcb?A'
p3726
tp3727
Rp3728
asS'S000005540'
p3729
(lp3730
g3
(g7
S'\xde\x88-A'
p3731
tp3732
Rp3733
asS'S000001385'
p3734
(lp3735
g3
(g7
S'2\x8e6A'
p3736
tp3737
Rp3738
asS'S000004321'
p3739
(lp3740
g3
(g7
S'\xe4\x1eQA'
p3741
tp3742
Rp3743
asS'S000003851'
p3744
(lp3745
g3
(g7
S'\xceQKA'
p3746
tp3747
Rp3748
asS'S000001382'
p3749
(lp3750
g3
(g7
S'-qUA'
p3751
tp3752
Rp3753
asS'S000003852'
p3754
(lp3755
g3
(g7
S'\xceQKA'
p3756
tp3757
Rp3758
asS'S000004013'
p3759
(lp3760
g3
(g7
S'\x97\x06QA'
p3761
tp3762
Rp3763
asS'S000003910'
p3764
(lp3765
g3
(g7
S'\xed\x88BA'
p3766
tp3767
Rp3768
asS'S000001389'
p3769
(lp3770
g3
(g7
S'*\xb9BA'
p3771
tp3772
Rp3773
asS'S000005607'
p3774
(lp3775
g3
(g7
S'IE7A'
p3776
tp3777
Rp3778
asS'S000005605'
p3779
(lp3780
g3
(g7
S'\x06=\x18A'
p3781
tp3782
Rp3783
asS'S000002268'
p3784
(lp3785
g3
(g7
S'W\xa0?A'
p3786
tp3787
Rp3788
asS'S000005600'
p3789
(lp3790
g3
(g7
S'\xdc\xcb?A'
p3791
tp3792
Rp3793
asS'S000001568'
p3794
(lp3795
g3
(g7
S'L?8A'
p3796
tp3797
Rp3798
ag3
(g7
S'\x8e\xeb9A'
p3799
tp3800
Rp3801
asS'S000005941'
p3802
(lp3803
g3
(g7
S'3x1A'
p3804
tp3805
Rp3806
asS'S000005608'
p3807
(lp3808
g3
(g7
S'IE7A'
p3809
tp3810
Rp3811
asS'S000005609'
p3812
(lp3813
g3
(g7
S'\xfb\r1A'
p3814
tp3815
Rp3816
asS'S000000605'
p3817
(lp3818
g3
(g7
S'\xa2\xda.A'
p3819
tp3820
Rp3821
asS'S000000604'
p3822
(lp3823
g3
(g7
S'\xa2\xda.A'
p3824
tp3825
Rp3826
asS'S000000607'
p3827
(lp3828
g3
(g7
S'9^NA'
p3829
tp3830
Rp3831
asS'S000002994'
p3832
(lp3833
g3
(g7
S'\xbf?:A'
p3834
tp3835
Rp3836
asS'S000001206'
p3837
(lp3838
g3
(g7
S'\x8e\xc0"A'
p3839
tp3840
Rp3841
asS'S000000600'
p3842
(lp3843
g3
(g7
S'\xfc\x95\x13A'
p3844
tp3845
Rp3846
asS'S000000602'
p3847
(lp3848
g3
(g7
S'\x8e\xeb9A'
p3849
tp3850
Rp3851
asS'S000001361'
p3852
(lp3853
g3
(g7
S'\xce\xe4EA'
p3854
tp3855
Rp3856
asS'S000007488'
p3857
(lp3858
g3
(g7
S'\x92\x97;A'
p3859
tp3860
Rp3861
asS'S000000219'
p3862
(lp3863
g3
(g7
S'\xd1\xdeFA'
p3864
tp3865
Rp3866
asS'S000002850'
p3867
(lp3868
g3
(g7
S'\x819KA'
p3869
tp3870
Rp3871
asS'S000000237'
p3872
(lp3873
g3
(g7
S'\xb8\x17@A'
p3874
tp3875
Rp3876
asS'S000003329'
p3877
(lp3878
g3
(g7
S'Y\x88*A'
p3879
tp3880
Rp3881
asS'S000002548'
p3882
(lp3883
g3
(g7
S'\x06=\x18A'
p3884
tp3885
Rp3886
asS'S000005300'
p3887
(lp3888
g3
(g7
S'\xe9\x80 A'
p3889
tp3890
Rp3891
asS'S000000691'
p3892
(lp3893
g3
(g7
S';tBA'
p3894
tp3895
Rp3896
asS'S000005118'
p3897
(lp3898
g3
(g7
S'\x8b\r)A'
p3899
tp3900
Rp3901
asS'S000000101'
p3902
(lp3903
g3
(g7
S'\x8a\xb1/A'
p3904
tp3905
Rp3906
ag3
(g7
S'\x80\xc5<A'
p3907
tp3908
Rp3909
asS'S000028710'
p3910
(lp3911
g3
(g7
S'\x96\x92BA'
p3912
tp3913
Rp3914
asS'S000001319'
p3915
(lp3916
g3
(g7
S'o\xc5;A'
p3917
tp3918
Rp3919
asS'S000002723'
p3920
(lp3921
g3
(g7
S'"\x91HA'
p3922
tp3923
Rp3924
asS'S000028650'
p3925
(lp3926
g3
(g7
S'\xdc\xcb?A'
p3927
tp3928
Rp3929
asS'S000005117'
p3930
(lp3931
g3
(g7
S'\xdc\xcb?A'
p3932
tp3933
Rp3934
asS'S000003149'
p3935
(lp3936
g3
(g7
S'0\x945A'
p3937
tp3938
Rp3939
asS'S000002727'
p3940
(lp3941
g3
(g7
S'\xcbK\x07A'
p3942
tp3943
Rp3944
asS'S000001204'
p3945
(lp3946
g3
(g7
S'\x8e\xc0"A'
p3947
tp3948
Rp3949
asS'S000001518'
p3950
(lp3951
g3
(g7
S'\xb86\x14A'
p3952
tp3953
Rp3954
asS'S000006264'
p3955
(lp3956
g3
(g7
S'\x8e\xc0"A'
p3957
tp3958
Rp3959
asS'S000000047'
p3960
(lp3961
g3
(g7
S'\tV\x1fA'
p3962
tp3963
Rp3964
asS'S000000733'
p3965
(lp3966
g3
(g7
S'\xdc\xcb?A'
p3967
tp3968
Rp3969
asS'S000000732'
p3970
(lp3971
g3
(g7
S'\x93\xaeFA'
p3972
tp3973
Rp3974
asS'S000000735'
p3975
(lp3976
g3
(g7
S'j\xddeA'
p3977
tp3978
Rp3979
asS'S000001517'
p3980
(lp3981
g3
(g7
S'\x95\x91<A'
p3982
tp3983
Rp3984
asS'S000000041'
p3985
(lp3986
g3
(g7
S'\x90\xc1(A'
p3987
tp3988
Rp3989
asS'S000000040'
p3990
(lp3991
g3
(g7
S'\x90\xc1(A'
p3992
tp3993
Rp3994
asS'S000000238'
p3995
(lp3996
g3
(g7
S'7\xbc/A'
p3997
tp3998
Rp3999
asS'S000000287'
p4000
(lp4001
g3
(g7
S'\xcbWJA'
p4002
tp4003
Rp4004
asS'S000001646'
p4005
(lp4006
g3
(g7
S'\xf8U\x1eA'
p4007
tp4008
Rp4009
asS'S000002798'
p4010
(lp4011
g3
(g7
S'\xa2\xf3IA'
p4012
tp4013
Rp4014
asS'S000001647'
p4015
(lp4016
g3
(g7
S'\xf8U\x1eA'
p4017
tp4018
Rp4019
asS'S000002794'
p4020
(lp4021
g3
(g7
S'\x85N)A'
p4022
tp4023
Rp4024
asS'S000005163'
p4025
(lp4026
g3
(g7
S'C\xf0/A'
p4027
tp4028
Rp4029
asS'S000005162'
p4030
(lp4031
g3
(g7
S'C\xf0/A'
p4032
tp4033
Rp4034
asS'S000002992'
p4035
(lp4036
g3
(g7
S'\xbf?:A'
p4037
tp4038
Rp4039
asS'S000004744'
p4040
(lp4041
g3
(g7
S'5r2A'
p4042
tp4043
Rp4044
ag3
(g7
S'"\x91HA'
p4045
tp4046
Rp4047
asS'S000004745'
p4048
(lp4049
g3
(g7
S'\xd3\xdfLA'
p4050
tp4051
Rp4052
asS'S000003039'
p4053
(lp4054
g3
(g7
S'\xf7}QA'
p4055
tp4056
Rp4057
ag3
(g7
S'\xcc\x8cUA'
p4058
tp4059
Rp4060
asS'S000004747'
p4061
(lp4062
g3
(g7
S'\xd3\xdfLA'
p4063
tp4064
Rp4065
asS'S000004742'
p4066
(lp4067
g3
(g7
S'5r2A'
p4068
tp4069
Rp4070
ag3
(g7
S'"\x91HA'
p4071
tp4072
Rp4073
asS'S000000139'
p4074
(lp4075
g3
(g7
S'\xa1\x00-A'
p4076
tp4077
Rp4078
asS'S000003030'
p4079
(lp4080
g3
(g7
S'\xdc\xcb?A'
p4081
tp4082
Rp4083
asS'S000003035'
p4084
(lp4085
g3
(g7
S'\x8e\xeb9A'
p4086
tp4087
Rp4088
asS'S000004299'
p4089
(lp4090
g3
(g7
S"\xf3'%A"
p4091
tp4092
Rp4093
asS'S000006005'
p4094
(lp4095
g3
(g7
S'V\x05#A'
p4096
tp4097
Rp4098
ag3
(g7
S'\xf7}QA'
p4099
tp4100
Rp4101
ag3
(g7
S'\xcc\x8cUA'
p4102
tp4103
Rp4104
asS'S000006004'
p4105
(lp4106
g3
(g7
S'U++A'
p4107
tp4108
Rp4109
asS'S000003130'
p4110
(lp4111
g3
(g7
S'\x05eKA'
p4112
tp4113
Rp4114
asS'S000000130'
p4115
(lp4116
g3
(g7
S'\xfe\xf1,A'
p4117
tp4118
Rp4119
asS'S000003137'
p4120
(lp4121
g3
(g7
S'\x80\xd9(A'
p4122
tp4123
Rp4124
asS'S000000300'
p4125
(lp4126
g3
(g7
S'F\xc2/A'
p4127
tp4128
Rp4129
asS'S000003138'
p4130
(lp4131
g3
(g7
S"\xf3'%A"
p4132
tp4133
Rp4134
ag3
(g7
S'\x80\xd9(A'
p4135
tp4136
Rp4137
asS'S000002168'
p4138
(lp4139
g3
(g7
S'\xf6@,A'
p4140
tp4141
Rp4142
asS'S000003682'
p4143
(lp4144
g3
(g7
S'\x8e\xeb9A'
p4145
tp4146
Rp4147
asS'S000003683'
p4148
(lp4149
g3
(g7
S'\x8e\xeb9A'
p4150
tp4151
Rp4152
asS'S000004340'
p4153
(lp4154
g3
(g7
S'Fa;A'
p4155
tp4156
Rp4157
asS'S000006394'
p4158
(lp4159
g3
(g7
S'\xce\xe4EA'
p4160
tp4161
Rp4162
asS'S000004342'
p4163
(lp4164
g3
(g7
S'Fa;A'
p4165
tp4166
Rp4167
asS'S000006396'
p4168
(lp4169
g3
(g7
S'\xfe&8A'
p4170
tp4171
Rp4172
asS'S000005848'
p4173
(lp4174
g3
(g7
S'\xcbs:A'
p4175
tp4176
Rp4177
asS'S000004347'
p4178
(lp4179
g3
(g7
S'\x94\xf34A'
p4180
tp4181
Rp4182
ag3
(g7
S'T\x10`A'
p4183
tp4184
Rp4185
ag3
(g7
S'T\x10`A'
p4186
tp4187
Rp4188
asS'S000004348'
p4189
(lp4190
g3
(g7
S'\x94\xf34A'
p4191
tp4192
Rp4193
ag3
(g7
S'T\x10`A'
p4194
tp4195
Rp4196
ag3
(g7
S'T\x10`A'
p4197
tp4198
Rp4199
asS'S000000033'
p4200
(lp4201
g3
(g7
S'\x8a\x07BA'
p4202
tp4203
Rp4204
ag3
(g7
S'\xc0jQA'
p4205
tp4206
Rp4207
asS'S000004261'
p4208
(lp4209
g3
(g7
S'\xed\x88BA'
p4210
tp4211
Rp4212
asS'S000005847'
p4213
(lp4214
g3
(g7
S'\xcbs:A'
p4215
tp4216
Rp4217
asS'S000001723'
p4218
(lp4219
g3
(g7
S'\xcb,3A'
p4220
tp4221
Rp4222
asS'S000005843'
p4223
(lp4224
g3
(g7
S'\x87\xaaBA'
p4225
tp4226
Rp4227
asS'S000005844'
p4228
(lp4229
g3
(g7
S'\x96\xed5A'
p4230
tp4231
Rp4232
asS'S000001368'
p4233
(lp4234
g3
(g7
S'\x8a\xb1/A'
p4235
tp4236
Rp4237
asS'S000006098'
p4238
(lp4239
g3
(g7
S'TH5A'
p4240
tp4241
Rp4242
asS'S000002973'
p4243
(lp4244
g3
(g7
S'\x8a\xb1/A'
p4245
tp4246
Rp4247
asS'S000006093'
p4248
(lp4249
g3
(g7
S'M\x9b1A'
p4250
tp4251
Rp4252
asS'S000002977'
p4253
(lp4254
g3
(g7
S'\xbd\x8c@A'
p4255
tp4256
Rp4257
ag3
(g7
S'\xe2Y[A'
p4258
tp4259
Rp4260
asS'S000002976'
p4261
(lp4262
g3
(g7
S'E\xa3)A'
p4263
tp4264
Rp4265
ag3
(g7
S'\x1c2QA'
p4266
tp4267
Rp4268
asS'S000006319'
p4269
(lp4270
g3
(g7
S'"\x91HA'
p4271
tp4272
Rp4273
asS'S000001030'
p4274
(lp4275
g3
(g7
S'\xa5\xb8?A'
p4276
tp4277
Rp4278
asS'S000004041'
p4279
(lp4280
g3
(g7
S'}\xac5A'
p4281
tp4282
Rp4283
asS'S000000086'
p4284
(lp4285
g3
(g7
S'\xdc\xcb?A'
p4286
tp4287
Rp4288
ag3
(g7
S'\x87\xaaBA'
p4289
tp4290
Rp4291
asS'S000000812'
p4292
(lp4293
g3
(g7
S'I[<A'
p4294
tp4295
Rp4296
asS'S000000813'
p4297
(lp4298
g3
(g7
S'\x8e\xeb9A'
p4299
tp4300
Rp4301
asS'S000000425'
p4302
(lp4303
g3
(g7
S'\x17\xa4OA'
p4304
tp4305
Rp4306
asS'S000004905'
p4307
(lp4308
g3
(g7
S'b\xf7YA'
p4309
tp4310
Rp4311
asS'S000000819'
p4312
(lp4313
g3
(g7
S'7\x87$A'
p4314
tp4315
Rp4316
asS'S000004170'
p4317
(lp4318
g3
(g7
S'\xaaO\x1aA'
p4319
tp4320
Rp4321
asS'S000004864'
p4322
(lp4323
g3
(g7
S'5\t6A'
p4324
tp4325
Rp4326
asS'S000003359'
p4327
(lp4328
g3
(g7
S'b\xcf&A'
p4329
tp4330
Rp4331
asS'S000003958'
p4332
(lp4333
g3
(g7
S'\xcd\xa7 A'
p4334
tp4335
Rp4336
asS'S000003959'
p4337
(lp4338
g3
(g7
S'\xcd\xa7 A'
p4339
tp4340
Rp4341
asS'S000005077'
p4342
(lp4343
g3
(g7
S'\xdc\xcb?A'
p4344
tp4345
Rp4346
asS'S000004195'
p4347
(lp4348
g3
(g7
S'W,1A'
p4349
tp4350
Rp4351
asS'S000004194'
p4352
(lp4353
g3
(g7
S"\xcf':A"
p4354
tp4355
Rp4356
asS'S000004196'
p4357
(lp4358
g3
(g7
S'W,1A'
p4359
tp4360
Rp4361
asS'S000001721'
p4362
(lp4363
g3
(g7
S'*\xb9BA'
p4364
tp4365
Rp4366
asS'S000007612'
p4367
(lp4368
g3
(g7
S'I[<A'
p4369
tp4370
Rp4371
asS'S000005078'
p4372
(lp4373
g3
(g7
S'\x97\x06QA'
p4374
tp4375
Rp4376
asS'S000004469'
p4377
(lp4378
g3
(g7
S'\xe1f>A'
p4379
tp4380
Rp4381
asS'S000004468'
p4382
(lp4383
g3
(g7
S'\xe1f>A'
p4384
tp4385
Rp4386
asS'S000003252'
p4387
(lp4388
g3
(g7
S'x\xc4_A'
p4389
tp4390
Rp4391
asS'S000004465'
p4392
(lp4393
g3
(g7
S'\x19\xa5UA'
p4394
tp4395
Rp4396
asS'S000007610'
p4397
(lp4398
g3
(g7
S'\x819KA'
p4399
tp4400
Rp4401
asS'S000001103'
p4402
(lp4403
g3
(g7
S'\xce\xe4EA'
p4404
tp4405
Rp4406
ag3
(g7
S'\xa5\xedJA'
p4407
tp4408
Rp4409
asS'S000005727'
p4410
(lp4411
g3
(g7
S'\xa2\xda.A'
p4412
tp4413
Rp4414
asS'S000002451'
p4415
(lp4416
g3
(g7
S'\x97\xd1EA'
p4417
tp4418
Rp4419
asS'S000004638'
p4420
(lp4421
g3
(g7
S'9^NA'
p4422
tp4423
Rp4424
asS'S000005335'
p4425
(lp4426
g3
(g7
S'\x19W$A'
p4427
tp4428
Rp4429
asS'S000005485'
p4430
(lp4431
g3
(g7
S'\x98\xee;A'
p4432
tp4433
Rp4434
asS'S000005486'
p4435
(lp4436
g3
(g7
S'\x98\xee;A'
p4437
tp4438
Rp4439
asS'S000004637'
p4440
(lp4441
g3
(g7
S'\xc3\xf7LA'
p4442
tp4443
Rp4444
asS'S000005729'
p4445
(lp4446
g3
(g7
S'\xa2\xda.A'
p4447
tp4448
Rp4449
asS'S000028425'
p4450
(lp4451
g3
(g7
S'M\x9b1A'
p4452
tp4453
Rp4454
asS'S000004928'
p4455
(lp4456
g3
(g7
S'\xcf\x03\x1aA'
p4457
tp4458
Rp4459
asS'S000007608'
p4460
(lp4461
g3
(g7
S'\xdc,4A'
p4462
tp4463
Rp4464
asS'S000003255'
p4465
(lp4466
g3
(g7
S'q\xbf<A'
p4467
tp4468
Rp4469
ag3
(g7
S'\x85\x92AA'
p4470
tp4471
Rp4472
asS'S000000885'
p4473
(lp4474
g3
(g7
S'\x98\xee;A'
p4475
tp4476
Rp4477
asS'S000002404'
p4478
(lp4479
g3
(g7
S'U++A'
p4480
tp4481
Rp4482
asS'S000007601'
p4483
(lp4484
g3
(g7
S'7\xbc/A'
p4485
tp4486
Rp4487
asS'S000001738'
p4488
(lp4489
g3
(g7
S'\xf8\x9c%A'
p4490
tp4491
Rp4492
asS'S000006094'
p4493
(lp4494
g3
(g7
S'\xe0#JA'
p4495
tp4496
Rp4497
asS'S000000006'
p4498
(lp4499
g3
(g7
S',\xbaHA'
p4500
tp4501
Rp4502
asS'S000006730'
p4503
(lp4504
g3
(g7
S'\xc3\xf7LA'
p4505
tp4506
Rp4507
asS'S000002444'
p4508
(lp4509
g3
(g7
S'TH5A'
p4510
tp4511
Rp4512
asS'S000002717'
p4513
(lp4514
g3
(g7
S'2\xd3$A'
p4515
tp4516
Rp4517
asS'S000002427'
p4518
(lp4519
g3
(g7
S'\x1f\x8a[A'
p4520
tp4521
Rp4522
asS'S000004129'
p4523
(lp4524
g3
(g7
S'\xf8\x9c%A'
p4525
tp4526
Rp4527
asS'S000002423'
p4528
(lp4529
g3
(g7
S'p\xdd<A'
p4530
tp4531
Rp4532
asS'S000005028'
p4533
(lp4534
g3
(g7
S'\x08\xb8\x17A'
p4535
tp4536
Rp4537
asS'S000005029'
p4538
(lp4539
g3
(g7
S'\x97\xd1EA'
p4540
tp4541
Rp4542
asS'S000000957'
p4543
(lp4544
g3
(g7
S'\x94\xf34A'
p4545
tp4546
Rp4547
asS'S000000934'
p4548
(lp4549
g3
(g7
S'9^NA'
p4550
tp4551
Rp4552
asS'S000005020'
p4553
(lp4554
g3
(g7
S'\x9f;7A'
p4555
tp4556
Rp4557
asS'S000001876'
p4558
(lp4559
g3
(g7
S'\xdc,4A'
p4560
tp4561
Rp4562
asS'S000003777'
p4563
(lp4564
g3
(g7
S'\xb8\x17@A'
p4565
tp4566
Rp4567
asS'S000005152'
p4568
(lp4569
g3
(g7
S'\x1c2QA'
p4570
tp4571
Rp4572
asS'S000001477'
p4573
(lp4574
g3
(g7
S'\x8e\xc0"A'
p4575
tp4576
Rp4577
asS'S000005151'
p4578
(lp4579
g3
(g7
S'Rs\x18A'
p4580
tp4581
Rp4582
asS'S000005651'
p4583
(lp4584
g3
(g7
S'\x1c2QA'
p4585
tp4586
Rp4587
asS'S000005839'
p4588
(lp4589
g3
(g7
S'\xfb9\x1aA'
p4590
tp4591
Rp4592
asS'S000000081'
p4593
(lp4594
g3
(g7
S'\x87\xaaBA'
p4595
tp4596
Rp4597
asS'S000001740'
p4598
(lp4599
g3
(g7
S',\xbaHA'
p4600
tp4601
Rp4602
asS'S000003779'
p4603
(lp4604
g3
(g7
S'\xb8\x17@A'
p4605
tp4606
Rp4607
asS'S000002601'
p4608
(lp4609
g3
(g7
S'\xf8U\x1eA'
p4610
tp4611
Rp4612
ag3
(g7
S'}\xac5A'
p4613
tp4614
Rp4615
asS'S000002352'
p4616
(lp4617
g3
(g7
S'>X>A'
p4618
tp4619
Rp4620
asS'S000001556'
p4621
(lp4622
g3
(g7
S'T\xe8,A'
p4623
tp4624
Rp4625
asS'S000001885'
p4626
(lp4627
g3
(g7
S':\xa0+A'
p4628
tp4629
Rp4630
asS'S000002216'
p4631
(lp4632
g3
(g7
S'b\xcf&A'
p4633
tp4634
Rp4635
asS'S000002217'
p4636
(lp4637
g3
(g7
S'b\xcf&A'
p4638
tp4639
Rp4640
asS'S000001881'
p4641
(lp4642
g3
(g7
S'+wTA'
p4643
tp4644
Rp4645
asS'S000001882'
p4646
(lp4647
g3
(g7
S'+wTA'
p4648
tp4649
Rp4650
asS'S000002198'
p4651
(lp4652
g3
(g7
S'}\xac5A'
p4653
tp4654
Rp4655
asS'S000001251'
p4656
(lp4657
g3
(g7
S'T\x10`A'
p4658
tp4659
Rp4660
ag3
(g7
S'T\x10`A'
p4661
tp4662
Rp4663
asS'S000001250'
p4664
(lp4665
g3
(g7
S'T\x10`A'
p4666
tp4667
Rp4668
ag3
(g7
S'T\x10`A'
p4669
tp4670
Rp4671
asS'S000001255'
p4672
(lp4673
g3
(g7
S'\xdc\xcb?A'
p4674
tp4675
Rp4676
ag3
(g7
S'\x87\xaaBA'
p4677
tp4678
Rp4679
asS'S000001257'
p4680
(lp4681
g3
(g7
S'Y\x88*A'
p4682
tp4683
Rp4684
ag3
(g7
S'\n\x141A'
p4685
tp4686
Rp4687
ag3
(g7
S'O\xba3A'
p4688
tp4689
Rp4690
asS'S000001256'
p4691
(lp4692
g3
(g7
S'\xdc\xcb?A'
p4693
tp4694
Rp4695
ag3
(g7
S'\x87\xaaBA'
p4696
tp4697
Rp4698
asS'S000002803'
p4699
(lp4700
g3
(g7
S'm\xc45A'
p4701
tp4702
Rp4703
asS'S000001070'
p4704
(lp4705
g3
(g7
S'\xe8Y2A'
p4706
tp4707
Rp4708
asS'S000002333'
p4709
(lp4710
g3
(g7
S'\xfe\xf1,A'
p4711
tp4712
Rp4713
asS'S000005235'
p4714
(lp4715
g3
(g7
S'E\xa3)A'
p4716
tp4717
Rp4718
ag3
(g7
S'\x93y;A'
p4719
tp4720
Rp4721
asS'S000001073'
p4722
(lp4723
g3
(g7
S'\xf8U\x1eA'
p4724
tp4725
Rp4726
ag3
(g7
S'u\x0cMA'
p4727
tp4728
Rp4729
ag3
(g7
S'\x97\x06QA'
p4730
tp4731
Rp4732
asS'S000004100'
p4733
(lp4734
g3
(g7
S'Tt\x1eA'
p4735
tp4736
Rp4737
ag3
(g7
S'\xa0~5A'
p4738
tp4739
Rp4740
asS'S000004903'
p4741
(lp4742
g3
(g7
S'b\xf7YA'
p4743
tp4744
Rp4745
asS'S000006352'
p4746
(lp4747
g3
(g7
S'\x0c\x0e2A'
p4748
tp4749
Rp4750
asS'S000006355'
p4751
(lp4752
g3
(g7
S'\x18z>A'
p4753
tp4754
Rp4755
asS'S000005800'
p4756
(lp4757
g3
(g7
S'\xed\x88BA'
p4758
tp4759
Rp4760
asS'S000001873'
p4761
(lp4762
g3
(g7
S'}&/A'
p4763
tp4764
Rp4765
ag3
(g7
S't:<A'
p4766
tp4767
Rp4768
asS'S000000173'
p4769
(lp4770
g3
(g7
S'\x82\xda.A'
p4771
tp4772
Rp4773
ag3
(g7
S'\x84\xd4/A'
p4774
tp4775
Rp4776
asS'S000000172'
p4777
(lp4778
g3
(g7
S'\x80\xc5<A'
p4779
tp4780
Rp4781
asS'S000005036'
p4782
(lp4783
g3
(g7
S'\xee\nDA'
p4784
tp4785
Rp4786
asS'S000002919'
p4787
(lp4788
g3
(g7
S'\xfb9\x1aA'
p4789
tp4790
Rp4791
asS'S000002284'
p4792
(lp4793
g3
(g7
S'\x91x5A'
p4794
tp4795
Rp4796
asS'S000000807'
p4797
(lp4798
g3
(g7
S'\xc1\x1c A'
p4799
tp4800
Rp4801
ag3
(g7
S'\xd7=>A'
p4802
tp4803
Rp4804
asS'S000002289'
p4805
(lp4806
g3
(g7
S'x\xc4_A'
p4807
tp4808
Rp4809
asS'S000002918'
p4810
(lp4811
g3
(g7
S'\xfb9\x1aA'
p4812
tp4813
Rp4814
asS'S000001957'
p4815
(lp4816
g3
(g7
S'\x17\xa4OA'
p4817
tp4818
Rp4819
asS'S000000079'
p4820
(lp4821
g3
(g7
S'9^NA'
p4822
tp4823
Rp4824
asS'S000002937'
p4825
(lp4826
g3
(g7
S'\xc0jQA'
p4827
tp4828
Rp4829
asS'S000004374'
p4830
(lp4831
g3
(g7
S'2Y+A'
p4832
tp4833
Rp4834
asS'S000001872'
p4835
(lp4836
g3
(g7
S'}&/A'
p4837
tp4838
Rp4839
ag3
(g7
S't:<A'
p4840
tp4841
Rp4842
asS'S000003671'
p4843
(lp4844
g3
(g7
S'2\x8e6A'
p4845
tp4846
Rp4847
asS'S000003670'
p4848
(lp4849
g3
(g7
S'2\x8e6A'
p4850
tp4851
Rp4852
asS'S000003672'
p4853
(lp4854
g3
(g7
S'2\x8e6A'
p4855
tp4856
Rp4857
asS'S000000159'
p4858
(lp4859
g3
(g7
S'\xd3\xdfLA'
p4860
tp4861
Rp4862
asS'S000003395'
p4863
(lp4864
g3
(g7
S'\x0eKWA'
p4865
tp4866
Rp4867
asS'S000004824'
p4868
(lp4869
g3
(g7
S'W\x87$A'
p4870
tp4871
Rp4872
asS'S000003398'
p4873
(lp4874
g3
(g7
S'\xc6\xfe9A'
p4875
tp4876
Rp4877
asS'S000001178'
p4878
(lp4879
g3
(g7
S'>X>A'
p4880
tp4881
Rp4882
asS'S000004820'
p4883
(lp4884
g3
(g7
S'\xe1@@A'
p4885
tp4886
Rp4887
asS'S000003415'
p4888
(lp4889
g3
(g7
S'H&1A'
p4890
tp4891
Rp4892
asS'S000003003'
p4893
(lp4894
g3
(g7
S'\xf6\x0b!A'
p4895
tp4896
Rp4897
ag3
(g7
S'\x17\xa4OA'
p4898
tp4899
Rp4900
asS'S000006214'
p4901
(lp4902
g3
(g7
S'\x80\xd9(A'
p4903
tp4904
Rp4905
ag3
(g7
S'\xb0\xdaCA'
p4906
tp4907
Rp4908
asS'S000006077'
p4909
(lp4910
g3
(g7
S'\x9e"\x1cA'
p4911
tp4912
Rp4913
asS'S000005140'
p4914
(lp4915
g3
(g7
S'\xbb0GA'
p4916
tp4917
Rp4918
ag3
(g7
S'\x19\xa5UA'
p4919
tp4920
Rp4921
ag3
(g7
S'\x0b\xbe[A'
p4922
tp4923
Rp4924
asS'S000003997'
p4925
(lp4926
g3
(g7
S'\xa0~5A'
p4927
tp4928
Rp4929
asS'S000005886'
p4930
(lp4931
g3
(g7
S':?7A'
p4932
tp4933
Rp4934
asS'S000000102'
p4935
(lp4936
g3
(g7
S'\x88\x8cBA'
p4937
tp4938
Rp4939
asS'S000000103'
p4940
(lp4941
g3
(g7
S'\x8a\xb1/A'
p4942
tp4943
Rp4944
ag3
(g7
S'\x80\xc5<A'
p4945
tp4946
Rp4947
asS'S000005142'
p4948
(lp4949
g3
(g7
S'5\xa6;A'
p4950
tp4951
Rp4952
asS'S000000107'
p4953
(lp4954
g3
(g7
S'\x80 0A'
p4955
tp4956
Rp4957
ag3
(g7
S':?7A'
p4958
tp4959
Rp4960
asS'S000005664'
p4961
(lp4962
g3
(g7
S'IE7A'
p4963
tp4964
Rp4965
ag3
(g7
S't:<A'
p4966
tp4967
Rp4968
ag3
(g7
S'\x1c2QA'
p4969
tp4970
Rp4971
asS'S000004702'
p4972
(lp4973
g3
(g7
S'\x935#A'
p4974
tp4975
Rp4976
ag3
(g7
S'\x1c2QA'
p4977
tp4978
Rp4979
asS'S000003489'
p4980
(lp4981
g3
(g7
S'\xba\x11AA'
p4982
tp4983
Rp4984
asS'S000004259'
p4985
(lp4986
g3
(g7
S'\xed\x88BA'
p4987
tp4988
Rp4989
asS'S000003481'
p4990
(lp4991
g3
(g7
S'H&1A'
p4992
tp4993
Rp4994
ag3
(g7
S'\xe0#JA'
p4995
tp4996
Rp4997
asS'S000001676'
p4998
(lp4999
g3
(g7
S'K\xa10A'
p5000
tp5001
Rp5002
asS'S000001674'
p5003
(lp5004
g3
(g7
S'K\xa10A'
p5005
tp5006
Rp5007
asS'S000001673'
p5008
(lp5009
g3
(g7
S'\xf6@,A'
p5010
tp5011
Rp5012
asS'S000001671'
p5013
(lp5014
g3
(g7
S'}&/A'
p5015
tp5016
Rp5017
asS'S000001779'
p5018
(lp5019
g3
(g7
S'T\x10`A'
p5020
tp5021
Rp5022
ag3
(g7
S'T\x10`A'
p5023
tp5024
Rp5025
asS'S000000515'
p5026
(lp5027
g3
(g7
S'\x9a\r>A'
p5028
tp5029
Rp5030
asS'S000007256'
p5031
(lp5032
g3
(g7
S'-qUA'
p5033
tp5034
Rp5035
asS'S000006312'
p5036
(lp5037
g3
(g7
S'\xfb9\x1aA'
p5038
tp5039
Rp5040
asS'S000001772'
p5041
(lp5042
g3
(g7
S'\xe2Y[A'
p5043
tp5044
Rp5045
asS'S000003362'
p5046
(lp5047
g3
(g7
S'S\xcf\x11A'
p5048
tp5049
Rp5050
ag3
(g7
S'A_+A'
p5051
tp5052
Rp5053
ag3
(g7
S'\x95\x91<A'
p5054
tp5055
Rp5056
asS'S000003557'
p5057
(lp5058
g3
(g7
S'\x83\xf2/A'
p5059
tp5060
Rp5061
asS'S000004480'
p5062
(lp5063
g3
(g7
S'\x80\xd9(A'
p5064
tp5065
Rp5066
asS'S000001474'
p5067
(lp5068
g3
(g7
S'5r2A'
p5069
tp5070
Rp5071
ag3
(g7
S'\x19\xa5UA'
p5072
tp5073
Rp5074
asS'S000004957'
p5075
(lp5076
g3
(g7
S'\xb0\xdaCA'
p5077
tp5078
Rp5079
asS'S000001476'
p5080
(lp5081
g3
(g7
S'5r2A'
p5082
tp5083
Rp5084
asS'S000004890'
p5085
(lp5086
g3
(g7
S'Y\x88*A'
p5087
tp5088
Rp5089
asS'S000001077'
p5090
(lp5091
g3
(g7
S'\xd9>DA'
p5092
tp5093
Rp5094
asS'S000000663'
p5095
(lp5096
g3
(g7
S'\x0eKWA'
p5097
tp5098
Rp5099
asS'S000005479'
p5100
(lp5101
g3
(g7
S'\x0eKWA'
p5102
tp5103
Rp5104
asS'S000005478'
p5105
(lp5106
g3
(g7
S'\x0eKWA'
p5107
tp5108
Rp5109
asS'S000003093'
p5110
(lp5111
g3
(g7
S'?^%A'
p5112
tp5113
Rp5114
ag3
(g7
S'\t\xbdUA'
p5115
tp5116
Rp5117
asS'S000006572'
p5118
(lp5119
g3
(g7
S'\xa2\xf3IA'
p5120
tp5121
Rp5122
asS'S000003095'
p5123
(lp5124
g3
(g7
S'\xcbWJA'
p5125
tp5126
Rp5127
asS'S000003096'
p5128
(lp5129
g3
(g7
S'\xcbWJA'
p5130
tp5131
Rp5132
asS'S000005574'
p5133
(lp5134
g3
(g7
S'\x1c\xd2HA'
p5135
tp5136
Rp5137
asS'S000000852'
p5138
(lp5139
g3
(g7
S'\xa0~5A'
p5140
tp5141
Rp5142
asS'S000004409'
p5143
(lp5144
g3
(g7
S'\x1f\x8a[A'
p5145
tp5146
Rp5147
asS'S000004558'
p5148
(lp5149
g3
(g7
S'\x1c2QA'
p5150
tp5151
Rp5152
asS'S000003905'
p5153
(lp5154
g3
(g7
S'\xf7}QA'
p5155
tp5156
Rp5157
ag3
(g7
S'\xcc\x8cUA'
p5158
tp5159
Rp5160
asS'S000003951'
p5161
(lp5162
g3
(g7
S'Fa;A'
p5163
tp5164
Rp5165
ag3
(g7
S'I[<A'
p5166
tp5167
Rp5168
ag3
(g7
S'\xce\xe4EA'
p5169
tp5170
Rp5171
asS'S000000858'
p5172
(lp5173
g3
(g7
S'\xfd\xca\x1eA'
p5174
tp5175
Rp5176
asS'S000001074'
p5177
(lp5178
g3
(g7
S'\xf8U\x1eA'
p5179
tp5180
Rp5181
asS'S000003909'
p5182
(lp5183
g3
(g7
S'\x94N>A'
p5184
tp5185
Rp5186
asS'S000004556'
p5187
(lp5188
g3
(g7
S'\xf8U\x1eA'
p5189
tp5190
Rp5191
ag3
(g7
S'\x9d\xc6"A'
p5192
tp5193
Rp5194
asS'S000005578'
p5195
(lp5196
g3
(g7
S'\xa2\xda.A'
p5197
tp5198
Rp5199
ag3
(g7
S'\xa2\xda.A'
p5200
tp5201
Rp5202
asS'S000005579'
p5203
(lp5204
g3
(g7
S'\xa2\xda.A'
p5205
tp5206
Rp5207
asS'S000004553'
p5208
(lp5209
g3
(g7
S'\x9d\xc6"A'
p5210
tp5211
Rp5212
asS'S000004552'
p5213
(lp5214
g3
(g7
S'\xfd\xca\x1eA'
p5215
tp5216
Rp5217
as.